Microsoft (R) COFF/PE Dumper Version 14.38.33134.0
Copyright (C) Microsoft Corporation.  All rights reserved.


Dump of file a.exe

File Type: EXECUTABLE IMAGE

  0000000140001000: C3                 ret
  0000000140001001: 66 66 2E 0F 1F 84  nop         word ptr cs:[rax+rax+0000000000000000h]
                    00 00 00 00 00
  000000014000100C: 0F 1F 40 00        nop         dword ptr [rax]
  0000000140001010: 48 83 EC 28        sub         rsp,28h
  0000000140001014: 48 8B 05 C5 33 00  mov         rax,qword ptr [00000001400043E0h]
                    00
  000000014000101B: 31 C9              xor         ecx,ecx
  000000014000101D: C7 00 01 00 00 00  mov         dword ptr [rax],1
  0000000140001023: 48 8B 05 C6 33 00  mov         rax,qword ptr [00000001400043F0h]
                    00
  000000014000102A: C7 00 01 00 00 00  mov         dword ptr [rax],1
  0000000140001030: 48 8B 05 C9 33 00  mov         rax,qword ptr [0000000140004400h]
                    00
  0000000140001037: C7 00 01 00 00 00  mov         dword ptr [rax],1
  000000014000103D: 48 8B 05 1C 33 00  mov         rax,qword ptr [0000000140004360h]
                    00
  0000000140001044: 66 81 38 4D 5A     cmp         word ptr [rax],5A4Dh
  0000000140001049: 75 0F              jne         000000014000105A
  000000014000104B: 48 63 50 3C        movsxd      rdx,dword ptr [rax+3Ch]
  000000014000104F: 48 01 D0           add         rax,rdx
  0000000140001052: 81 38 50 45 00 00  cmp         dword ptr [rax],4550h
  0000000140001058: 74 76              je          00000001400010D0
  000000014000105A: 48 8B 05 6F 33 00  mov         rax,qword ptr [00000001400043D0h]
                    00
  0000000140001061: 89 0D A1 5F 00 00  mov         dword ptr [0000000140007008h],ecx
  0000000140001067: 8B 00              mov         eax,dword ptr [rax]
  0000000140001069: 85 C0              test        eax,eax
  000000014000106B: 74 53              je          00000001400010C0
  000000014000106D: B9 02 00 00 00     mov         ecx,2
  0000000140001072: E8 F1 15 00 00     call        0000000140002668
  0000000140001077: E8 64 15 00 00     call        00000001400025E0
  000000014000107C: 48 8B 15 1D 34 00  mov         rdx,qword ptr [00000001400044A0h]
                    00
  0000000140001083: 8B 12              mov         edx,dword ptr [rdx]
  0000000140001085: 89 10              mov         dword ptr [rax],edx
  0000000140001087: E8 64 15 00 00     call        00000001400025F0
  000000014000108C: 48 8B 15 ED 33 00  mov         rdx,qword ptr [0000000140004480h]
                    00
  0000000140001093: 8B 12              mov         edx,dword ptr [rdx]
  0000000140001095: 89 10              mov         dword ptr [rax],edx
  0000000140001097: E8 E4 04 00 00     call        0000000140001580
  000000014000109C: 85 C0              test        eax,eax
  000000014000109E: 0F 88 9A 00 00 00  js          000000014000113E
  00000001400010A4: 48 8B 05 95 32 00  mov         rax,qword ptr [0000000140004340h]
                    00
  00000001400010AB: 83 38 01           cmp         dword ptr [rax],1
  00000001400010AE: 74 58              je          0000000140001108
  00000001400010B0: 31 C0              xor         eax,eax
  00000001400010B2: 48 83 C4 28        add         rsp,28h
  00000001400010B6: C3                 ret
  00000001400010B7: 66 0F 1F 84 00 00  nop         word ptr [rax+rax+0000000000000000h]
                    00 00 00
  00000001400010C0: B9 01 00 00 00     mov         ecx,1
  00000001400010C5: E8 9E 15 00 00     call        0000000140002668
  00000001400010CA: EB AB              jmp         0000000140001077
  00000001400010CC: 0F 1F 40 00        nop         dword ptr [rax]
  00000001400010D0: 0F B7 50 18        movzx       edx,word ptr [rax+18h]
  00000001400010D4: 66 81 FA 0B 01     cmp         dx,10Bh
  00000001400010D9: 74 45              je          0000000140001120
  00000001400010DB: 66 81 FA 0B 02     cmp         dx,20Bh
  00000001400010E0: 0F 85 74 FF FF FF  jne         000000014000105A
  00000001400010E6: 83 B8 84 00 00 00  cmp         dword ptr [rax+0000000000000084h],0Eh
                    0E
  00000001400010ED: 0F 86 67 FF FF FF  jbe         000000014000105A
  00000001400010F3: 8B 90 F8 00 00 00  mov         edx,dword ptr [rax+00000000000000F8h]
  00000001400010F9: 31 C9              xor         ecx,ecx
  00000001400010FB: 85 D2              test        edx,edx
  00000001400010FD: 0F 95 C1           setne       cl
  0000000140001100: E9 55 FF FF FF     jmp         000000014000105A
  0000000140001105: 0F 1F 00           nop         dword ptr [rax]
  0000000140001108: 48 8B 0D B1 33 00  mov         rcx,qword ptr [00000001400044C0h]
                    00
  000000014000110F: E8 CC 0B 00 00     call        0000000140001CE0
  0000000140001114: 31 C0              xor         eax,eax
  0000000140001116: 48 83 C4 28        add         rsp,28h
  000000014000111A: C3                 ret
  000000014000111B: 0F 1F 44 00 00     nop         dword ptr [rax+rax]
  0000000140001120: 83 78 74 0E        cmp         dword ptr [rax+74h],0Eh
  0000000140001124: 0F 86 30 FF FF FF  jbe         000000014000105A
  000000014000112A: 44 8B 80 E8 00 00  mov         r8d,dword ptr [rax+00000000000000E8h]
                    00
  0000000140001131: 31 C9              xor         ecx,ecx
  0000000140001133: 45 85 C0           test        r8d,r8d
  0000000140001136: 0F 95 C1           setne       cl
  0000000140001139: E9 1C FF FF FF     jmp         000000014000105A
  000000014000113E: B9 08 00 00 00     mov         ecx,8
  0000000140001143: E8 30 15 00 00     call        0000000140002678
  0000000140001148: 90                 nop
  0000000140001149: 0F 1F 80 00 00 00  nop         dword ptr [rax+0000000000000000h]
                    00
  0000000140001150: 48 83 EC 48        sub         rsp,48h
  0000000140001154: 48 8B 05 75 33 00  mov         rax,qword ptr [00000001400044D0h]
                    00
  000000014000115B: 4C 8D 05 AE 5E 00  lea         r8,[0000000140007010h]
                    00
  0000000140001162: 48 8D 15 AF 5E 00  lea         rdx,[0000000140007018h]
                    00
  0000000140001169: 48 8D 0D B0 5E 00  lea         rcx,[0000000140007020h]
                    00
  0000000140001170: 8B 00              mov         eax,dword ptr [rax]
  0000000140001172: 89 44 24 3C        mov         dword ptr [rsp+3Ch],eax
  0000000140001176: 48 8B 05 13 33 00  mov         rax,qword ptr [0000000140004490h]
                    00
  000000014000117D: 44 8B 08           mov         r9d,dword ptr [rax]
  0000000140001180: 48 8D 44 24 3C     lea         rax,[rsp+3Ch]
  0000000140001185: 48 89 44 24 20     mov         qword ptr [rsp+20h],rax
  000000014000118A: E8 C9 14 00 00     call        0000000140002658
  000000014000118F: 85 C0              test        eax,eax
  0000000140001191: 78 05              js          0000000140001198
  0000000140001193: 48 83 C4 48        add         rsp,48h
  0000000140001197: C3                 ret
  0000000140001198: B9 08 00 00 00     mov         ecx,8
  000000014000119D: E8 D6 14 00 00     call        0000000140002678
  00000001400011A2: 90                 nop
  00000001400011A3: 66 66 2E 0F 1F 84  nop         word ptr cs:[rax+rax+0000000000000000h]
                    00 00 00 00 00
  00000001400011AE: 66 90              nop
  00000001400011B0: 41 54              push        r12
  00000001400011B2: 55                 push        rbp
  00000001400011B3: 57                 push        rdi
  00000001400011B4: 56                 push        rsi
  00000001400011B5: 53                 push        rbx
  00000001400011B6: 48 83 EC 20        sub         rsp,20h
  00000001400011BA: B8 30 00 00 00     mov         eax,30h
  00000001400011BF: 65 67 48 8B 00     mov         rax,qword ptr gs:[eax]
  00000001400011C4: 48 8B 70 08        mov         rsi,qword ptr [rax+8]
  00000001400011C8: 48 8B 1D 51 32 00  mov         rbx,qword ptr [0000000140004420h]
                    00
  00000001400011CF: 48 8B 3D BA 6F 00  mov         rdi,qword ptr [0000000140008190h]
                    00
  00000001400011D6: EB 18              jmp         00000001400011F0
  00000001400011D8: 0F 1F 84 00 00 00  nop         dword ptr [rax+rax+0000000000000000h]
                    00 00
  00000001400011E0: 48 39 C6           cmp         rsi,rax
  00000001400011E3: 0F 84 5F 01 00 00  je          0000000140001348
  00000001400011E9: B9 E8 03 00 00     mov         ecx,3E8h
  00000001400011EE: FF D7              call        rdi
  00000001400011F0: 31 C0              xor         eax,eax
  00000001400011F2: F0 48 0F B1 33     lock cmpxchg qword ptr [rbx],rsi
  00000001400011F7: 75 E7              jne         00000001400011E0
  00000001400011F9: 31 FF              xor         edi,edi
  00000001400011FB: 48 8B 35 2E 32 00  mov         rsi,qword ptr [0000000140004430h]
                    00
  0000000140001202: 8B 06              mov         eax,dword ptr [rsi]
  0000000140001204: 83 F8 01           cmp         eax,1
  0000000140001207: 0F 84 D2 01 00 00  je          00000001400013DF
  000000014000120D: 8B 06              mov         eax,dword ptr [rsi]
  000000014000120F: 85 C0              test        eax,eax
  0000000140001211: 0F 84 41 01 00 00  je          0000000140001358
  0000000140001217: C7 05 E3 5D 00 00  mov         dword ptr [0000000140007004h],1
                    01 00 00 00
  0000000140001221: 8B 06              mov         eax,dword ptr [rsi]
  0000000140001223: 83 F8 01           cmp         eax,1
  0000000140001226: 0F 84 84 01 00 00  je          00000001400013B0
  000000014000122C: 85 FF              test        edi,edi
  000000014000122E: 0F 84 4C 01 00 00  je          0000000140001380
  0000000140001234: 48 8B 05 55 31 00  mov         rax,qword ptr [0000000140004390h]
                    00
  000000014000123B: 48 8B 00           mov         rax,qword ptr [rax]
  000000014000123E: 48 85 C0           test        rax,rax
  0000000140001241: 74 0C              je          000000014000124F
  0000000140001243: 45 31 C0           xor         r8d,r8d
  0000000140001246: BA 02 00 00 00     mov         edx,2
  000000014000124B: 31 C9              xor         ecx,ecx
  000000014000124D: FF D0              call        rax
  000000014000124F: E8 DC 06 00 00     call        0000000140001930
  0000000140001254: 48 8B 0D 55 32 00  mov         rcx,qword ptr [00000001400044B0h]
                    00
  000000014000125B: FF 15 27 6F 00 00  call        qword ptr [0000000140008188h]
  0000000140001261: 48 8B 15 A8 31 00  mov         rdx,qword ptr [0000000140004410h]
                    00
  0000000140001268: 48 8D 0D 91 FD FF  lea         rcx,[0000000140001000h]
                    FF
  000000014000126F: 48 89 02           mov         qword ptr [rdx],rax
  0000000140001272: E8 A9 13 00 00     call        0000000140002620
  0000000140001277: E8 C4 04 00 00     call        0000000140001740
  000000014000127C: 8B 1D 9E 5D 00 00  mov         ebx,dword ptr [0000000140007020h]
  0000000140001282: 8D 7B 01           lea         edi,[rbx+1]
  0000000140001285: 48 63 FF           movsxd      rdi,edi
  0000000140001288: 48 C1 E7 03        shl         rdi,3
  000000014000128C: 48 89 F9           mov         rcx,rdi
  000000014000128F: E8 34 14 00 00     call        00000001400026C8
  0000000140001294: 4C 8B 25 7D 5D 00  mov         r12,qword ptr [0000000140007018h]
                    00
  000000014000129B: 48 89 C5           mov         rbp,rax
  000000014000129E: 85 DB              test        ebx,ebx
  00000001400012A0: 0F 8E 2A 01 00 00  jle         00000001400013D0
  00000001400012A6: 48 83 EF 08        sub         rdi,8
  00000001400012AA: 31 DB              xor         ebx,ebx
  00000001400012AC: 0F 1F 40 00        nop         dword ptr [rax]
  00000001400012B0: 49 8B 0C 1C        mov         rcx,qword ptr [r12+rbx]
  00000001400012B4: E8 27 14 00 00     call        00000001400026E0
  00000001400012B9: 48 8D 70 01        lea         rsi,[rax+1]
  00000001400012BD: 48 89 F1           mov         rcx,rsi
  00000001400012C0: E8 03 14 00 00     call        00000001400026C8
  00000001400012C5: 49 89 F0           mov         r8,rsi
  00000001400012C8: 48 89 44 1D 00     mov         qword ptr [rbp+rbx],rax
  00000001400012CD: 49 8B 14 1C        mov         rdx,qword ptr [r12+rbx]
  00000001400012D1: 48 89 C1           mov         rcx,rax
  00000001400012D4: 48 83 C3 08        add         rbx,8
  00000001400012D8: E8 F3 13 00 00     call        00000001400026D0
  00000001400012DD: 48 39 DF           cmp         rdi,rbx
  00000001400012E0: 75 CE              jne         00000001400012B0
  00000001400012E2: 48 01 EF           add         rdi,rbp
  00000001400012E5: 48 C7 07 00 00 00  mov         qword ptr [rdi],0
                    00
  00000001400012EC: 48 89 2D 25 5D 00  mov         qword ptr [0000000140007018h],rbp
                    00
  00000001400012F3: E8 68 02 00 00     call        0000000140001560
  00000001400012F8: E8 03 13 00 00     call        0000000140002600
  00000001400012FD: 4C 8B 05 0C 5D 00  mov         r8,qword ptr [0000000140007010h]
                    00
  0000000140001304: 8B 0D 16 5D 00 00  mov         ecx,dword ptr [0000000140007020h]
  000000014000130A: 4C 89 00           mov         qword ptr [rax],r8
  000000014000130D: 48 8B 15 04 5D 00  mov         rdx,qword ptr [0000000140007018h]
                    00
  0000000140001314: E8 47 01 00 00     call        0000000140001460
  0000000140001319: 8B 0D E9 5C 00 00  mov         ecx,dword ptr [0000000140007008h]
  000000014000131F: 89 05 E7 5C 00 00  mov         dword ptr [000000014000700Ch],eax
  0000000140001325: 85 C9              test        ecx,ecx
  0000000140001327: 0F 84 AB 00 00 00  je          00000001400013D8
  000000014000132D: 8B 15 D1 5C 00 00  mov         edx,dword ptr [0000000140007004h]
  0000000140001333: 85 D2              test        edx,edx
  0000000140001335: 74 59              je          0000000140001390
  0000000140001337: 48 83 C4 20        add         rsp,20h
  000000014000133B: 5B                 pop         rbx
  000000014000133C: 5E                 pop         rsi
  000000014000133D: 5F                 pop         rdi
  000000014000133E: 5D                 pop         rbp
  000000014000133F: 41 5C              pop         r12
  0000000140001341: C3                 ret
  0000000140001342: 66 0F 1F 44 00 00  nop         word ptr [rax+rax]
  0000000140001348: BF 01 00 00 00     mov         edi,1
  000000014000134D: E9 A9 FE FF FF     jmp         00000001400011FB
  0000000140001352: 66 0F 1F 44 00 00  nop         word ptr [rax+rax]
  0000000140001358: 48 8B 15 11 31 00  mov         rdx,qword ptr [0000000140004470h]
                    00
  000000014000135F: 48 8B 0D FA 30 00  mov         rcx,qword ptr [0000000140004460h]
                    00
  0000000140001366: C7 06 01 00 00 00  mov         dword ptr [rsi],1
  000000014000136C: E8 2F 12 00 00     call        00000001400025A0
  0000000140001371: 85 C0              test        eax,eax
  0000000140001373: 0F 84 A8 FE FF FF  je          0000000140001221
  0000000140001379: B8 FF 00 00 00     mov         eax,0FFh
  000000014000137E: EB B7              jmp         0000000140001337
  0000000140001380: 31 C0              xor         eax,eax
  0000000140001382: 48 87 03           xchg        rax,qword ptr [rbx]
  0000000140001385: E9 AA FE FF FF     jmp         0000000140001234
  000000014000138A: 66 0F 1F 44 00 00  nop         word ptr [rax+rax]
  0000000140001390: E8 EB 12 00 00     call        0000000140002680
  0000000140001395: 8B 05 71 5C 00 00  mov         eax,dword ptr [000000014000700Ch]
  000000014000139B: 48 83 C4 20        add         rsp,20h
  000000014000139F: 5B                 pop         rbx
  00000001400013A0: 5E                 pop         rsi
  00000001400013A1: 5F                 pop         rdi
  00000001400013A2: 5D                 pop         rbp
  00000001400013A3: 41 5C              pop         r12
  00000001400013A5: C3                 ret
  00000001400013A6: 66 2E 0F 1F 84 00  nop         word ptr cs:[rax+rax+0000000000000000h]
                    00 00 00 00
  00000001400013B0: 48 8B 15 99 30 00  mov         rdx,qword ptr [0000000140004450h]
                    00
  00000001400013B7: 48 8B 0D 82 30 00  mov         rcx,qword ptr [0000000140004440h]
                    00
  00000001400013BE: E8 C5 12 00 00     call        0000000140002688
  00000001400013C3: C7 06 02 00 00 00  mov         dword ptr [rsi],2
  00000001400013C9: E9 5E FE FF FF     jmp         000000014000122C
  00000001400013CE: 66 90              nop
  00000001400013D0: 48 89 C7           mov         rdi,rax
  00000001400013D3: E9 0D FF FF FF     jmp         00000001400012E5
  00000001400013D8: 89 C1              mov         ecx,eax
  00000001400013DA: E8 C9 12 00 00     call        00000001400026A8
  00000001400013DF: B9 1F 00 00 00     mov         ecx,1Fh
  00000001400013E4: E8 8F 12 00 00     call        0000000140002678
  00000001400013E9: 90                 nop
  00000001400013EA: 66 0F 1F 44 00 00  nop         word ptr [rax+rax]
  00000001400013F0: 48 83 EC 28        sub         rsp,28h
  00000001400013F4: 48 8B 05 D5 2F 00  mov         rax,qword ptr [00000001400043D0h]
                    00
  00000001400013FB: C7 00 01 00 00 00  mov         dword ptr [rax],1
  0000000140001401: E8 AA FD FF FF     call        00000001400011B0
  0000000140001406: 90                 nop
  0000000140001407: 90                 nop
  0000000140001408: 48 83 C4 28        add         rsp,28h
  000000014000140C: C3                 ret
  000000014000140D: 0F 1F 00           nop         dword ptr [rax]
  0000000140001410: 48 83 EC 28        sub         rsp,28h
  0000000140001414: 48 8B 05 B5 2F 00  mov         rax,qword ptr [00000001400043D0h]
                    00
  000000014000141B: C7 00 00 00 00 00  mov         dword ptr [rax],0
  0000000140001421: E8 8A FD FF FF     call        00000001400011B0
  0000000140001426: 90                 nop
  0000000140001427: 90                 nop
  0000000140001428: 48 83 C4 28        add         rsp,28h
  000000014000142C: C3                 ret
  000000014000142D: 0F 1F 00           nop         dword ptr [rax]
  0000000140001430: E9 63 12 00 00     jmp         0000000140002698
  0000000140001435: 90                 nop
  0000000140001436: 90                 nop
  0000000140001437: 90                 nop
  0000000140001438: 90                 nop
  0000000140001439: 90                 nop
  000000014000143A: 90                 nop
  000000014000143B: 90                 nop
  000000014000143C: 90                 nop
  000000014000143D: 90                 nop
  000000014000143E: 90                 nop
  000000014000143F: 90                 nop
  0000000140001440: 48 8D 0D 09 00 00  lea         rcx,[0000000140001450h]
                    00
  0000000140001447: E9 E4 FF FF FF     jmp         0000000140001430
  000000014000144C: 0F 1F 40 00        nop         dword ptr [rax]
  0000000140001450: C3                 ret
  0000000140001451: 90                 nop
  0000000140001452: 90                 nop
  0000000140001453: 90                 nop
  0000000140001454: 90                 nop
  0000000140001455: 90                 nop
  0000000140001456: 90                 nop
  0000000140001457: 90                 nop
  0000000140001458: 90                 nop
  0000000140001459: 90                 nop
  000000014000145A: 90                 nop
  000000014000145B: 90                 nop
  000000014000145C: 90                 nop
  000000014000145D: 90                 nop
  000000014000145E: 90                 nop
  000000014000145F: 90                 nop
  0000000140001460: 55                 push        rbp
  0000000140001461: 48 89 E5           mov         rbp,rsp
  0000000140001464: 48 83 EC 30        sub         rsp,30h
  0000000140001468: E8 F3 00 00 00     call        0000000140001560
  000000014000146D: C7 45 FC 00 00 00  mov         dword ptr [rbp-4],0
                    00
  0000000140001474: C7 45 FC 88 44 00  mov         dword ptr [rbp-4],4488h
                    00
  000000014000147B: 8B 45 FC           mov         eax,dword ptr [rbp-4]
  000000014000147E: 48 83 C4 30        add         rsp,30h
  0000000140001482: 5D                 pop         rbp
  0000000140001483: C3                 ret
  0000000140001484: 90                 nop
  0000000140001485: 90                 nop
  0000000140001486: 90                 nop
  0000000140001487: 90                 nop
  0000000140001488: 90                 nop
  0000000140001489: 90                 nop
  000000014000148A: 90                 nop
  000000014000148B: 90                 nop
  000000014000148C: 90                 nop
  000000014000148D: 90                 nop
  000000014000148E: 90                 nop
  000000014000148F: 90                 nop
  0000000140001490: 48 83 EC 28        sub         rsp,28h
  0000000140001494: 48 8B 05 65 1B 00  mov         rax,qword ptr [0000000140003000h]
                    00
  000000014000149B: 48 8B 00           mov         rax,qword ptr [rax]
  000000014000149E: 48 85 C0           test        rax,rax
  00000001400014A1: 74 2A              je          00000001400014CD
  00000001400014A3: 66 66 2E 0F 1F 84  nop         word ptr cs:[rax+rax+0000000000000000h]
                    00 00 00 00 00
  00000001400014AE: 66 90              nop
  00000001400014B0: FF D0              call        rax
  00000001400014B2: 48 8B 05 47 1B 00  mov         rax,qword ptr [0000000140003000h]
                    00
  00000001400014B9: 48 8D 50 08        lea         rdx,[rax+8]
  00000001400014BD: 48 8B 40 08        mov         rax,qword ptr [rax+8]
  00000001400014C1: 48 89 15 38 1B 00  mov         qword ptr [0000000140003000h],rdx
                    00
  00000001400014C8: 48 85 C0           test        rax,rax
  00000001400014CB: 75 E3              jne         00000001400014B0
  00000001400014CD: 48 83 C4 28        add         rsp,28h
  00000001400014D1: C3                 ret
  00000001400014D2: 66 66 2E 0F 1F 84  nop         word ptr cs:[rax+rax+0000000000000000h]
                    00 00 00 00 00
  00000001400014DD: 0F 1F 00           nop         dword ptr [rax]
  00000001400014E0: 56                 push        rsi
  00000001400014E1: 53                 push        rbx
  00000001400014E2: 48 83 EC 28        sub         rsp,28h
  00000001400014E6: 48 8B 15 63 2E 00  mov         rdx,qword ptr [0000000140004350h]
                    00
  00000001400014ED: 48 8B 02           mov         rax,qword ptr [rdx]
  00000001400014F0: 89 C1              mov         ecx,eax
  00000001400014F2: 83 F8 FF           cmp         eax,0FFFFFFFFh
  00000001400014F5: 74 39              je          0000000140001530
  00000001400014F7: 85 C9              test        ecx,ecx
  00000001400014F9: 74 20              je          000000014000151B
  00000001400014FB: 89 C8              mov         eax,ecx
  00000001400014FD: 83 E9 01           sub         ecx,1
  0000000140001500: 48 8D 1C C2        lea         rbx,[rdx+rax*8]
  0000000140001504: 48 29 C8           sub         rax,rcx
  0000000140001507: 48 8D 74 C2 F8     lea         rsi,[rdx+rax*8-8]
  000000014000150C: 0F 1F 40 00        nop         dword ptr [rax]
  0000000140001510: FF 13              call        qword ptr [rbx]
  0000000140001512: 48 83 EB 08        sub         rbx,8
  0000000140001516: 48 39 F3           cmp         rbx,rsi
  0000000140001519: 75 F5              jne         0000000140001510
  000000014000151B: 48 8D 0D 6E FF FF  lea         rcx,[0000000140001490h]
                    FF
  0000000140001522: 48 83 C4 28        add         rsp,28h
  0000000140001526: 5B                 pop         rbx
  0000000140001527: 5E                 pop         rsi
  0000000140001528: E9 03 FF FF FF     jmp         0000000140001430
  000000014000152D: 0F 1F 00           nop         dword ptr [rax]
  0000000140001530: 31 C0              xor         eax,eax
  0000000140001532: 66 66 2E 0F 1F 84  nop         word ptr cs:[rax+rax+0000000000000000h]
                    00 00 00 00 00
  000000014000153D: 0F 1F 00           nop         dword ptr [rax]
  0000000140001540: 44 8D 40 01        lea         r8d,[rax+1]
  0000000140001544: 89 C1              mov         ecx,eax
  0000000140001546: 4A 83 3C C2 00     cmp         qword ptr [rdx+r8*8],0
  000000014000154B: 4C 89 C0           mov         rax,r8
  000000014000154E: 75 F0              jne         0000000140001540
  0000000140001550: EB A5              jmp         00000001400014F7
  0000000140001552: 66 66 2E 0F 1F 84  nop         word ptr cs:[rax+rax+0000000000000000h]
                    00 00 00 00 00
  000000014000155D: 0F 1F 00           nop         dword ptr [rax]
  0000000140001560: 8B 05 CA 5A 00 00  mov         eax,dword ptr [0000000140007030h]
  0000000140001566: 85 C0              test        eax,eax
  0000000140001568: 74 06              je          0000000140001570
  000000014000156A: C3                 ret
  000000014000156B: 0F 1F 44 00 00     nop         dword ptr [rax+rax]
  0000000140001570: C7 05 B6 5A 00 00  mov         dword ptr [0000000140007030h],1
                    01 00 00 00
  000000014000157A: E9 61 FF FF FF     jmp         00000001400014E0
  000000014000157F: 90                 nop
  0000000140001580: 31 C0              xor         eax,eax
  0000000140001582: C3                 ret
  0000000140001583: 90                 nop
  0000000140001584: 90                 nop
  0000000140001585: 90                 nop
  0000000140001586: 90                 nop
  0000000140001587: 90                 nop
  0000000140001588: 90                 nop
  0000000140001589: 90                 nop
  000000014000158A: 90                 nop
  000000014000158B: 90                 nop
  000000014000158C: 90                 nop
  000000014000158D: 90                 nop
  000000014000158E: 90                 nop
  000000014000158F: 90                 nop
  0000000140001590: 83 FA 03           cmp         edx,3
  0000000140001593: 74 0B              je          00000001400015A0
  0000000140001595: 85 D2              test        edx,edx
  0000000140001597: 74 07              je          00000001400015A0
  0000000140001599: C3                 ret
  000000014000159A: 66 0F 1F 44 00 00  nop         word ptr [rax+rax]
  00000001400015A0: E9 AB 0A 00 00     jmp         0000000140002050
  00000001400015A5: 66 66 2E 0F 1F 84  nop         word ptr cs:[rax+rax+0000000000000000h]
                    00 00 00 00 00
  00000001400015B0: 56                 push        rsi
  00000001400015B1: 53                 push        rbx
  00000001400015B2: 48 83 EC 28        sub         rsp,28h
  00000001400015B6: 48 8B 05 73 2D 00  mov         rax,qword ptr [0000000140004330h]
                    00
  00000001400015BD: 83 38 02           cmp         dword ptr [rax],2
  00000001400015C0: 74 06              je          00000001400015C8
  00000001400015C2: C7 00 02 00 00 00  mov         dword ptr [rax],2
  00000001400015C8: 83 FA 02           cmp         edx,2
  00000001400015CB: 74 13              je          00000001400015E0
  00000001400015CD: 83 FA 01           cmp         edx,1
  00000001400015D0: 74 4E              je          0000000140001620
  00000001400015D2: 48 83 C4 28        add         rsp,28h
  00000001400015D6: 5B                 pop         rbx
  00000001400015D7: 5E                 pop         rsi
  00000001400015D8: C3                 ret
  00000001400015D9: 0F 1F 80 00 00 00  nop         dword ptr [rax+0000000000000000h]
                    00
  00000001400015E0: 48 8D 1D 71 7A 00  lea         rbx,[0000000140009058h]
                    00
  00000001400015E7: 48 8D 35 6A 7A 00  lea         rsi,[0000000140009058h]
                    00
  00000001400015EE: 48 39 F3           cmp         rbx,rsi
  00000001400015F1: 74 DF              je          00000001400015D2
  00000001400015F3: 66 66 2E 0F 1F 84  nop         word ptr cs:[rax+rax+0000000000000000h]
                    00 00 00 00 00
  00000001400015FE: 66 90              nop
  0000000140001600: 48 8B 03           mov         rax,qword ptr [rbx]
  0000000140001603: 48 85 C0           test        rax,rax
  0000000140001606: 74 02              je          000000014000160A
  0000000140001608: FF D0              call        rax
  000000014000160A: 48 83 C3 08        add         rbx,8
  000000014000160E: 48 39 F3           cmp         rbx,rsi
  0000000140001611: 75 ED              jne         0000000140001600
  0000000140001613: 48 83 C4 28        add         rsp,28h
  0000000140001617: 5B                 pop         rbx
  0000000140001618: 5E                 pop         rsi
  0000000140001619: C3                 ret
  000000014000161A: 66 0F 1F 44 00 00  nop         word ptr [rax+rax]
  0000000140001620: 48 83 C4 28        add         rsp,28h
  0000000140001624: 5B                 pop         rbx
  0000000140001625: 5E                 pop         rsi
  0000000140001626: E9 25 0A 00 00     jmp         0000000140002050
  000000014000162B: 0F 1F 44 00 00     nop         dword ptr [rax+rax]
  0000000140001630: 31 C0              xor         eax,eax
  0000000140001632: C3                 ret
  0000000140001633: 90                 nop
  0000000140001634: 90                 nop
  0000000140001635: 90                 nop
  0000000140001636: 90                 nop
  0000000140001637: 90                 nop
  0000000140001638: 90                 nop
  0000000140001639: 90                 nop
  000000014000163A: 90                 nop
  000000014000163B: 90                 nop
  000000014000163C: 90                 nop
  000000014000163D: 90                 nop
  000000014000163E: 90                 nop
  000000014000163F: 90                 nop
  0000000140001640: 56                 push        rsi
  0000000140001641: 53                 push        rbx
  0000000140001642: 48 83 EC 78        sub         rsp,78h
  0000000140001646: 0F 11 74 24 40     movups      xmmword ptr [rsp+40h],xmm6
  000000014000164B: 0F 11 7C 24 50     movups      xmmword ptr [rsp+50h],xmm7
  0000000140001650: 44 0F 11 44 24 60  movups      xmmword ptr [rsp+60h],xmm8
  0000000140001656: 83 39 06           cmp         dword ptr [rcx],6
  0000000140001659: 0F 87 CD 00 00 00  ja          000000014000172C
  000000014000165F: 8B 01              mov         eax,dword ptr [rcx]
  0000000140001661: 48 8D 15 1C 2B 00  lea         rdx,[0000000140004184h]
                    00
  0000000140001668: 48 63 04 82        movsxd      rax,dword ptr [rdx+rax*4]
  000000014000166C: 48 01 D0           add         rax,rdx
  000000014000166F: FF E0              jmp         rax
  0000000140001671: 0F 1F 80 00 00 00  nop         dword ptr [rax+0000000000000000h]
                    00
  0000000140001678: 48 8D 1D 00 2A 00  lea         rbx,[000000014000407Fh]
                    00
  000000014000167F: F2 44 0F 10 41 20  movsd       xmm8,mmword ptr [rcx+20h]
  0000000140001685: F2 0F 10 79 18     movsd       xmm7,mmword ptr [rcx+18h]
  000000014000168A: F2 0F 10 71 10     movsd       xmm6,mmword ptr [rcx+10h]
  000000014000168F: 48 8B 71 08        mov         rsi,qword ptr [rcx+8]
  0000000140001693: B9 02 00 00 00     mov         ecx,2
  0000000140001698: E8 93 0F 00 00     call        0000000140002630
  000000014000169D: F2 44 0F 11 44 24  movsd       mmword ptr [rsp+30h],xmm8
                    30
  00000001400016A4: 49 89 D8           mov         r8,rbx
  00000001400016A7: 48 8D 15 AA 2A 00  lea         rdx,[0000000140004158h]
                    00
  00000001400016AE: F2 0F 11 7C 24 28  movsd       mmword ptr [rsp+28h],xmm7
  00000001400016B4: 48 89 C1           mov         rcx,rax
  00000001400016B7: 49 89 F1           mov         r9,rsi
  00000001400016BA: F2 0F 11 74 24 20  movsd       mmword ptr [rsp+20h],xmm6
  00000001400016C0: E8 EB 0F 00 00     call        00000001400026B0
  00000001400016C5: 90                 nop
  00000001400016C6: 0F 10 74 24 40     movups      xmm6,xmmword ptr [rsp+40h]
  00000001400016CB: 0F 10 7C 24 50     movups      xmm7,xmmword ptr [rsp+50h]
  00000001400016D0: 31 C0              xor         eax,eax
  00000001400016D2: 44 0F 10 44 24 60  movups      xmm8,xmmword ptr [rsp+60h]
  00000001400016D8: 48 83 C4 78        add         rsp,78h
  00000001400016DC: 5B                 pop         rbx
  00000001400016DD: 5E                 pop         rsi
  00000001400016DE: C3                 ret
  00000001400016DF: 90                 nop
  00000001400016E0: 48 8D 1D 79 29 00  lea         rbx,[0000000140004060h]
                    00
  00000001400016E7: EB 96              jmp         000000014000167F
  00000001400016E9: 0F 1F 80 00 00 00  nop         dword ptr [rax+0000000000000000h]
                    00
  00000001400016F0: 48 8D 1D C9 29 00  lea         rbx,[00000001400040C0h]
                    00
  00000001400016F7: EB 86              jmp         000000014000167F
  00000001400016F9: 0F 1F 80 00 00 00  nop         dword ptr [rax+0000000000000000h]
                    00
  0000000140001700: 48 8D 1D 99 29 00  lea         rbx,[00000001400040A0h]
                    00
  0000000140001707: E9 73 FF FF FF     jmp         000000014000167F
  000000014000170C: 0F 1F 40 00        nop         dword ptr [rax]
  0000000140001710: 48 8D 1D F9 29 00  lea         rbx,[0000000140004110h]
                    00
  0000000140001717: E9 63 FF FF FF     jmp         000000014000167F
  000000014000171C: 0F 1F 40 00        nop         dword ptr [rax]
  0000000140001720: 48 8D 1D C1 29 00  lea         rbx,[00000001400040E8h]
                    00
  0000000140001727: E9 53 FF FF FF     jmp         000000014000167F
  000000014000172C: 48 8D 1D 13 2A 00  lea         rbx,[0000000140004146h]
                    00
  0000000140001733: E9 47 FF FF FF     jmp         000000014000167F
  0000000140001738: 90                 nop
  0000000140001739: 90                 nop
  000000014000173A: 90                 nop
  000000014000173B: 90                 nop
  000000014000173C: 90                 nop
  000000014000173D: 90                 nop
  000000014000173E: 90                 nop
  000000014000173F: 90                 nop
  0000000140001740: DB E3              fninit
  0000000140001742: C3                 ret
  0000000140001743: 90                 nop
  0000000140001744: 90                 nop
  0000000140001745: 90                 nop
  0000000140001746: 90                 nop
  0000000140001747: 90                 nop
  0000000140001748: 90                 nop
  0000000140001749: 90                 nop
  000000014000174A: 90                 nop
  000000014000174B: 90                 nop
  000000014000174C: 90                 nop
  000000014000174D: 90                 nop
  000000014000174E: 90                 nop
  000000014000174F: 90                 nop
  0000000140001750: 56                 push        rsi
  0000000140001751: 53                 push        rbx
  0000000140001752: 48 83 EC 38        sub         rsp,38h
  0000000140001756: 48 89 CB           mov         rbx,rcx
  0000000140001759: 48 8D 44 24 58     lea         rax,[rsp+58h]
  000000014000175E: B9 02 00 00 00     mov         ecx,2
  0000000140001763: 48 89 54 24 58     mov         qword ptr [rsp+58h],rdx
  0000000140001768: 4C 89 44 24 60     mov         qword ptr [rsp+60h],r8
  000000014000176D: 4C 89 4C 24 68     mov         qword ptr [rsp+68h],r9
  0000000140001772: 48 89 44 24 28     mov         qword ptr [rsp+28h],rax
  0000000140001777: E8 B4 0E 00 00     call        0000000140002630
  000000014000177C: 41 B8 1B 00 00 00  mov         r8d,1Bh
  0000000140001782: BA 01 00 00 00     mov         edx,1
  0000000140001787: 48 8D 0D 12 2A 00  lea         rcx,[00000001400041A0h]
                    00
  000000014000178E: 49 89 C1           mov         r9,rax
  0000000140001791: E8 2A 0F 00 00     call        00000001400026C0
  0000000140001796: 48 8B 74 24 28     mov         rsi,qword ptr [rsp+28h]
  000000014000179B: B9 02 00 00 00     mov         ecx,2
  00000001400017A0: E8 8B 0E 00 00     call        0000000140002630
  00000001400017A5: 48 89 DA           mov         rdx,rbx
  00000001400017A8: 48 89 C1           mov         rcx,rax
  00000001400017AB: 49 89 F0           mov         r8,rsi
  00000001400017AE: E8 3D 0F 00 00     call        00000001400026F0
  00000001400017B3: E8 D8 0E 00 00     call        0000000140002690
  00000001400017B8: 90                 nop
  00000001400017B9: 0F 1F 80 00 00 00  nop         dword ptr [rax+0000000000000000h]
                    00
  00000001400017C0: 57                 push        rdi
  00000001400017C1: 56                 push        rsi
  00000001400017C2: 53                 push        rbx
  00000001400017C3: 48 83 EC 50        sub         rsp,50h
  00000001400017C7: 48 63 35 D6 58 00  movsxd      rsi,dword ptr [00000001400070A4h]
                    00
  00000001400017CE: 48 89 CB           mov         rbx,rcx
  00000001400017D1: 85 F6              test        esi,esi
  00000001400017D3: 0F 8E 17 01 00 00  jle         00000001400018F0
  00000001400017D9: 48 8B 05 C8 58 00  mov         rax,qword ptr [00000001400070A8h]
                    00
  00000001400017E0: 45 31 C9           xor         r9d,r9d
  00000001400017E3: 48 83 C0 18        add         rax,18h
  00000001400017E7: 66 0F 1F 84 00 00  nop         word ptr [rax+rax+0000000000000000h]
                    00 00 00
  00000001400017F0: 4C 8B 00           mov         r8,qword ptr [rax]
  00000001400017F3: 4C 39 C3           cmp         rbx,r8
  00000001400017F6: 72 13              jb          000000014000180B
  00000001400017F8: 48 8B 50 08        mov         rdx,qword ptr [rax+8]
  00000001400017FC: 8B 52 08           mov         edx,dword ptr [rdx+8]
  00000001400017FF: 49 01 D0           add         r8,rdx
  0000000140001802: 4C 39 C3           cmp         rbx,r8
  0000000140001805: 0F 82 8A 00 00 00  jb          0000000140001895
  000000014000180B: 41 83 C1 01        add         r9d,1
  000000014000180F: 48 83 C0 28        add         rax,28h
  0000000140001813: 41 39 F1           cmp         r9d,esi
  0000000140001816: 75 D8              jne         00000001400017F0
  0000000140001818: 48 89 D9           mov         rcx,rbx
  000000014000181B: E8 60 0A 00 00     call        0000000140002280
  0000000140001820: 48 89 C7           mov         rdi,rax
  0000000140001823: 48 85 C0           test        rax,rax
  0000000140001826: 0F 84 E6 00 00 00  je          0000000140001912
  000000014000182C: 48 8B 05 75 58 00  mov         rax,qword ptr [00000001400070A8h]
                    00
  0000000140001833: 48 8D 1C B6        lea         rbx,[rsi+rsi*4]
  0000000140001837: 48 C1 E3 03        shl         rbx,3
  000000014000183B: 48 01 D8           add         rax,rbx
  000000014000183E: 48 89 78 20        mov         qword ptr [rax+20h],rdi
  0000000140001842: C7 00 00 00 00 00  mov         dword ptr [rax],0
  0000000140001848: E8 73 0B 00 00     call        00000001400023C0
  000000014000184D: 8B 57 0C           mov         edx,dword ptr [rdi+0Ch]
  0000000140001850: 41 B8 30 00 00 00  mov         r8d,30h
  0000000140001856: 48 8D 0C 10        lea         rcx,[rax+rdx]
  000000014000185A: 48 8B 05 47 58 00  mov         rax,qword ptr [00000001400070A8h]
                    00
  0000000140001861: 48 8D 54 24 20     lea         rdx,[rsp+20h]
  0000000140001866: 48 89 4C 18 18     mov         qword ptr [rax+rbx+18h],rcx
  000000014000186B: FF 15 37 69 00 00  call        qword ptr [00000001400081A8h]
  0000000140001871: 48 85 C0           test        rax,rax
  0000000140001874: 0F 84 7D 00 00 00  je          00000001400018F7
  000000014000187A: 8B 44 24 44        mov         eax,dword ptr [rsp+44h]
  000000014000187E: 8D 50 FC           lea         edx,[rax-4]
  0000000140001881: 83 E2 FB           and         edx,0FFFFFFFBh
  0000000140001884: 74 08              je          000000014000188E
  0000000140001886: 8D 50 C0           lea         edx,[rax-40h]
  0000000140001889: 83 E2 BF           and         edx,0FFFFFFBFh
  000000014000188C: 75 12              jne         00000001400018A0
  000000014000188E: 83 05 0F 58 00 00  add         dword ptr [00000001400070A4h],1
                    01
  0000000140001895: 48 83 C4 50        add         rsp,50h
  0000000140001899: 5B                 pop         rbx
  000000014000189A: 5E                 pop         rsi
  000000014000189B: 5F                 pop         rdi
  000000014000189C: C3                 ret
  000000014000189D: 0F 1F 00           nop         dword ptr [rax]
  00000001400018A0: 83 F8 02           cmp         eax,2
  00000001400018A3: 48 8B 4C 24 20     mov         rcx,qword ptr [rsp+20h]
  00000001400018A8: 48 8B 54 24 38     mov         rdx,qword ptr [rsp+38h]
  00000001400018AD: 41 B8 40 00 00 00  mov         r8d,40h
  00000001400018B3: B8 04 00 00 00     mov         eax,4
  00000001400018B8: 44 0F 44 C0        cmove       r8d,eax
  00000001400018BC: 48 03 1D E5 57 00  add         rbx,qword ptr [00000001400070A8h]
                    00
  00000001400018C3: 48 89 4B 08        mov         qword ptr [rbx+8],rcx
  00000001400018C7: 49 89 D9           mov         r9,rbx
  00000001400018CA: 48 89 53 10        mov         qword ptr [rbx+10h],rdx
  00000001400018CE: FF 15 CC 68 00 00  call        qword ptr [00000001400081A0h]
  00000001400018D4: 85 C0              test        eax,eax
  00000001400018D6: 75 B6              jne         000000014000188E
  00000001400018D8: FF 15 92 68 00 00  call        qword ptr [0000000140008170h]
  00000001400018DE: 48 8D 0D 33 29 00  lea         rcx,[0000000140004218h]
                    00
  00000001400018E5: 89 C2              mov         edx,eax
  00000001400018E7: E8 64 FE FF FF     call        0000000140001750
  00000001400018EC: 0F 1F 40 00        nop         dword ptr [rax]
  00000001400018F0: 31 F6              xor         esi,esi
  00000001400018F2: E9 21 FF FF FF     jmp         0000000140001818
  00000001400018F7: 48 8B 05 AA 57 00  mov         rax,qword ptr [00000001400070A8h]
                    00
  00000001400018FE: 8B 57 08           mov         edx,dword ptr [rdi+8]
  0000000140001901: 48 8D 0D D8 28 00  lea         rcx,[00000001400041E0h]
                    00
  0000000140001908: 4C 8B 44 18 18     mov         r8,qword ptr [rax+rbx+18h]
  000000014000190D: E8 3E FE FF FF     call        0000000140001750
  0000000140001912: 48 89 DA           mov         rdx,rbx
  0000000140001915: 48 8D 0D A4 28 00  lea         rcx,[00000001400041C0h]
                    00
  000000014000191C: E8 2F FE FF FF     call        0000000140001750
  0000000140001921: 90                 nop
  0000000140001922: 66 66 2E 0F 1F 84  nop         word ptr cs:[rax+rax+0000000000000000h]
                    00 00 00 00 00
  000000014000192D: 0F 1F 00           nop         dword ptr [rax]
  0000000140001930: 55                 push        rbp
  0000000140001931: 41 57              push        r15
  0000000140001933: 41 56              push        r14
  0000000140001935: 41 55              push        r13
  0000000140001937: 41 54              push        r12
  0000000140001939: 57                 push        rdi
  000000014000193A: 56                 push        rsi
  000000014000193B: 53                 push        rbx
  000000014000193C: 48 83 EC 48        sub         rsp,48h
  0000000140001940: 48 8D 6C 24 40     lea         rbp,[rsp+40h]
  0000000140001945: 44 8B 25 54 57 00  mov         r12d,dword ptr [00000001400070A0h]
                    00
  000000014000194C: 45 85 E4           test        r12d,r12d
  000000014000194F: 74 17              je          0000000140001968
  0000000140001951: 48 8D 65 08        lea         rsp,[rbp+8]
  0000000140001955: 5B                 pop         rbx
  0000000140001956: 5E                 pop         rsi
  0000000140001957: 5F                 pop         rdi
  0000000140001958: 41 5C              pop         r12
  000000014000195A: 41 5D              pop         r13
  000000014000195C: 41 5E              pop         r14
  000000014000195E: 41 5F              pop         r15
  0000000140001960: 5D                 pop         rbp
  0000000140001961: C3                 ret
  0000000140001962: 66 0F 1F 44 00 00  nop         word ptr [rax+rax]
  0000000140001968: C7 05 2E 57 00 00  mov         dword ptr [00000001400070A0h],1
                    01 00 00 00
  0000000140001972: E8 89 09 00 00     call        0000000140002300
  0000000140001977: 48 98              cdqe
  0000000140001979: 48 8D 04 80        lea         rax,[rax+rax*4]
  000000014000197D: 48 8D 04 C5 0F 00  lea         rax,[rax*8+000000000000000Fh]
                    00 00
  0000000140001985: 48 83 E0 F0        and         rax,0FFFFFFFFFFFFFFF0h
  0000000140001989: E8 D2 0B 00 00     call        0000000140002560
  000000014000198E: 4C 8B 2D DB 29 00  mov         r13,qword ptr [0000000140004370h]
                    00
  0000000140001995: 48 8B 1D E4 29 00  mov         rbx,qword ptr [0000000140004380h]
                    00
  000000014000199C: 48 29 C4           sub         rsp,rax
  000000014000199F: C7 05 FB 56 00 00  mov         dword ptr [00000001400070A4h],0
                    00 00 00 00
  00000001400019A9: 48 8D 44 24 30     lea         rax,[rsp+30h]
  00000001400019AE: 48 89 05 F3 56 00  mov         qword ptr [00000001400070A8h],rax
                    00
  00000001400019B5: 4C 89 E8           mov         rax,r13
  00000001400019B8: 48 29 D8           sub         rax,rbx
  00000001400019BB: 48 83 F8 07        cmp         rax,7
  00000001400019BF: 7E 90              jle         0000000140001951
  00000001400019C1: 48 83 F8 0B        cmp         rax,0Bh
  00000001400019C5: 0F 8F 5D 01 00 00  jg          0000000140001B28
  00000001400019CB: 8B 03              mov         eax,dword ptr [rbx]
  00000001400019CD: 85 C0              test        eax,eax
  00000001400019CF: 0F 85 5B 02 00 00  jne         0000000140001C30
  00000001400019D5: 8B 43 04           mov         eax,dword ptr [rbx+4]
  00000001400019D8: 85 C0              test        eax,eax
  00000001400019DA: 0F 85 50 02 00 00  jne         0000000140001C30
  00000001400019E0: 8B 53 08           mov         edx,dword ptr [rbx+8]
  00000001400019E3: 83 FA 01           cmp         edx,1
  00000001400019E6: 0F 85 9A 02 00 00  jne         0000000140001C86
  00000001400019EC: 48 83 C3 0C        add         rbx,0Ch
  00000001400019F0: 4C 39 EB           cmp         rbx,r13
  00000001400019F3: 0F 83 58 FF FF FF  jae         0000000140001951
  00000001400019F9: 4C 8B 35 60 29 00  mov         r14,qword ptr [0000000140004360h]
                    00
  0000000140001A00: 41 BF FF FF FF FF  mov         r15d,0FFFFFFFFh
  0000000140001A06: EB 6B              jmp         0000000140001A73
  0000000140001A08: 0F 1F 84 00 00 00  nop         dword ptr [rax+rax+0000000000000000h]
                    00 00
  0000000140001A10: 83 F9 08           cmp         ecx,8
  0000000140001A13: 0F 84 37 01 00 00  je          0000000140001B50
  0000000140001A19: 83 F9 10           cmp         ecx,10h
  0000000140001A1C: 0F 85 40 02 00 00  jne         0000000140001C62
  0000000140001A22: 0F B7 37           movzx       esi,word ptr [rdi]
  0000000140001A25: 81 E2 C0 00 00 00  and         edx,0C0h
  0000000140001A2B: 66 85 F6           test        si,si
  0000000140001A2E: 0F 89 E4 01 00 00  jns         0000000140001C18
  0000000140001A34: 48 81 CE 00 00 FF  or          rsi,0FFFFFFFFFFFF0000h
                    FF
  0000000140001A3B: 48 29 C6           sub         rsi,rax
  0000000140001A3E: 4C 01 CE           add         rsi,r9
  0000000140001A41: 85 D2              test        edx,edx
  0000000140001A43: 75 1A              jne         0000000140001A5F
  0000000140001A45: 48 81 FE FF FF 00  cmp         rsi,0FFFFh
                    00
  0000000140001A4C: 0F 8F 1E 02 00 00  jg          0000000140001C70
  0000000140001A52: 48 81 FE 00 80 FF  cmp         rsi,0FFFFFFFFFFFF8000h
                    FF
  0000000140001A59: 0F 8C 11 02 00 00  jl          0000000140001C70
  0000000140001A5F: 48 89 F9           mov         rcx,rdi
  0000000140001A62: E8 59 FD FF FF     call        00000001400017C0
  0000000140001A67: 66 89 37           mov         word ptr [rdi],si
  0000000140001A6A: 48 83 C3 0C        add         rbx,0Ch
  0000000140001A6E: 4C 39 EB           cmp         rbx,r13
  0000000140001A71: 73 5D              jae         0000000140001AD0
  0000000140001A73: 8B 03              mov         eax,dword ptr [rbx]
  0000000140001A75: 8B 53 08           mov         edx,dword ptr [rbx+8]
  0000000140001A78: 8B 7B 04           mov         edi,dword ptr [rbx+4]
  0000000140001A7B: 4C 01 F0           add         rax,r14
  0000000140001A7E: 0F B6 CA           movzx       ecx,dl
  0000000140001A81: 4C 8B 08           mov         r9,qword ptr [rax]
  0000000140001A84: 4C 01 F7           add         rdi,r14
  0000000140001A87: 83 F9 20           cmp         ecx,20h
  0000000140001A8A: 0F 84 10 01 00 00  je          0000000140001BA0
  0000000140001A90: 0F 86 7A FF FF FF  jbe         0000000140001A10
  0000000140001A96: 83 F9 40           cmp         ecx,40h
  0000000140001A99: 0F 85 C3 01 00 00  jne         0000000140001C62
  0000000140001A9F: 48 8B 37           mov         rsi,qword ptr [rdi]
  0000000140001AA2: 48 29 C6           sub         rsi,rax
  0000000140001AA5: 4C 01 CE           add         rsi,r9
  0000000140001AA8: 81 E2 C0 00 00 00  and         edx,0C0h
  0000000140001AAE: 75 09              jne         0000000140001AB9
  0000000140001AB0: 48 85 F6           test        rsi,rsi
  0000000140001AB3: 0F 89 B7 01 00 00  jns         0000000140001C70
  0000000140001AB9: 48 89 F9           mov         rcx,rdi
  0000000140001ABC: 48 83 C3 0C        add         rbx,0Ch
  0000000140001AC0: E8 FB FC FF FF     call        00000001400017C0
  0000000140001AC5: 48 89 37           mov         qword ptr [rdi],rsi
  0000000140001AC8: 4C 39 EB           cmp         rbx,r13
  0000000140001ACB: 72 A6              jb          0000000140001A73
  0000000140001ACD: 0F 1F 00           nop         dword ptr [rax]
  0000000140001AD0: 8B 0D CE 55 00 00  mov         ecx,dword ptr [00000001400070A4h]
  0000000140001AD6: 85 C9              test        ecx,ecx
  0000000140001AD8: 0F 8E 73 FE FF FF  jle         0000000140001951
  0000000140001ADE: 48 8B 35 BB 66 00  mov         rsi,qword ptr [00000001400081A0h]
                    00
  0000000140001AE5: 31 DB              xor         ebx,ebx
  0000000140001AE7: 48 8D 7D FC        lea         rdi,[rbp-4]
  0000000140001AEB: 0F 1F 44 00 00     nop         dword ptr [rax+rax]
  0000000140001AF0: 48 8B 05 B1 55 00  mov         rax,qword ptr [00000001400070A8h]
                    00
  0000000140001AF7: 48 01 D8           add         rax,rbx
  0000000140001AFA: 44 8B 00           mov         r8d,dword ptr [rax]
  0000000140001AFD: 45 85 C0           test        r8d,r8d
  0000000140001B00: 74 0D              je          0000000140001B0F
  0000000140001B02: 48 8B 50 10        mov         rdx,qword ptr [rax+10h]
  0000000140001B06: 48 8B 48 08        mov         rcx,qword ptr [rax+8]
  0000000140001B0A: 49 89 F9           mov         r9,rdi
  0000000140001B0D: FF D6              call        rsi
  0000000140001B0F: 41 83 C4 01        add         r12d,1
  0000000140001B13: 48 83 C3 28        add         rbx,28h
  0000000140001B17: 44 3B 25 86 55 00  cmp         r12d,dword ptr [00000001400070A4h]
                    00
  0000000140001B1E: 7C D0              jl          0000000140001AF0
  0000000140001B20: E9 2C FE FF FF     jmp         0000000140001951
  0000000140001B25: 0F 1F 00           nop         dword ptr [rax]
  0000000140001B28: 8B 13              mov         edx,dword ptr [rbx]
  0000000140001B2A: 85 D2              test        edx,edx
  0000000140001B2C: 0F 85 FE 00 00 00  jne         0000000140001C30
  0000000140001B32: 8B 43 04           mov         eax,dword ptr [rbx+4]
  0000000140001B35: 89 C1              mov         ecx,eax
  0000000140001B37: 0B 4B 08           or          ecx,dword ptr [rbx+8]
  0000000140001B3A: 0F 85 98 FE FF FF  jne         00000001400019D8
  0000000140001B40: 48 83 C3 0C        add         rbx,0Ch
  0000000140001B44: E9 82 FE FF FF     jmp         00000001400019CB
  0000000140001B49: 0F 1F 80 00 00 00  nop         dword ptr [rax+0000000000000000h]
                    00
  0000000140001B50: 0F B6 37           movzx       esi,byte ptr [rdi]
  0000000140001B53: 81 E2 C0 00 00 00  and         edx,0C0h
  0000000140001B59: 40 84 F6           test        sil,sil
  0000000140001B5C: 0F 89 9E 00 00 00  jns         0000000140001C00
  0000000140001B62: 48 81 CE 00 FF FF  or          rsi,0FFFFFFFFFFFFFF00h
                    FF
  0000000140001B69: 48 29 C6           sub         rsi,rax
  0000000140001B6C: 4C 01 CE           add         rsi,r9
  0000000140001B6F: 85 D2              test        edx,edx
  0000000140001B71: 75 17              jne         0000000140001B8A
  0000000140001B73: 48 81 FE FF 00 00  cmp         rsi,0FFh
                    00
  0000000140001B7A: 0F 8F F0 00 00 00  jg          0000000140001C70
  0000000140001B80: 48 83 FE 80        cmp         rsi,0FFFFFFFFFFFFFF80h
  0000000140001B84: 0F 8C E6 00 00 00  jl          0000000140001C70
  0000000140001B8A: 48 89 F9           mov         rcx,rdi
  0000000140001B8D: E8 2E FC FF FF     call        00000001400017C0
  0000000140001B92: 40 88 37           mov         byte ptr [rdi],sil
  0000000140001B95: E9 D0 FE FF FF     jmp         0000000140001A6A
  0000000140001B9A: 66 0F 1F 44 00 00  nop         word ptr [rax+rax]
  0000000140001BA0: 8B 37              mov         esi,dword ptr [rdi]
  0000000140001BA2: 81 E2 C0 00 00 00  and         edx,0C0h
  0000000140001BA8: 85 F6              test        esi,esi
  0000000140001BAA: 79 44              jns         0000000140001BF0
  0000000140001BAC: 49 BB 00 00 00 00  mov         r11,0FFFFFFFF00000000h
                    FF FF FF FF
  0000000140001BB6: 4C 09 DE           or          rsi,r11
  0000000140001BB9: 48 29 C6           sub         rsi,rax
  0000000140001BBC: 4C 01 CE           add         rsi,r9
  0000000140001BBF: 85 D2              test        edx,edx
  0000000140001BC1: 75 1C              jne         0000000140001BDF
  0000000140001BC3: 4C 39 FE           cmp         rsi,r15
  0000000140001BC6: 0F 8F A4 00 00 00  jg          0000000140001C70
  0000000140001BCC: 48 B8 FF FF FF 7F  mov         rax,0FFFFFFFF7FFFFFFFh
                    FF FF FF FF
  0000000140001BD6: 48 39 C6           cmp         rsi,rax
  0000000140001BD9: 0F 8E 91 00 00 00  jle         0000000140001C70
  0000000140001BDF: 48 89 F9           mov         rcx,rdi
  0000000140001BE2: E8 D9 FB FF FF     call        00000001400017C0
  0000000140001BE7: 89 37              mov         dword ptr [rdi],esi
  0000000140001BE9: E9 7C FE FF FF     jmp         0000000140001A6A
  0000000140001BEE: 66 90              nop
  0000000140001BF0: 48 29 C6           sub         rsi,rax
  0000000140001BF3: 4C 01 CE           add         rsi,r9
  0000000140001BF6: 85 D2              test        edx,edx
  0000000140001BF8: 74 C9              je          0000000140001BC3
  0000000140001BFA: EB E3              jmp         0000000140001BDF
  0000000140001BFC: 0F 1F 40 00        nop         dword ptr [rax]
  0000000140001C00: 48 29 C6           sub         rsi,rax
  0000000140001C03: 4C 01 CE           add         rsi,r9
  0000000140001C06: 85 D2              test        edx,edx
  0000000140001C08: 0F 84 65 FF FF FF  je          0000000140001B73
  0000000140001C0E: E9 77 FF FF FF     jmp         0000000140001B8A
  0000000140001C13: 0F 1F 44 00 00     nop         dword ptr [rax+rax]
  0000000140001C18: 48 29 C6           sub         rsi,rax
  0000000140001C1B: 4C 01 CE           add         rsi,r9
  0000000140001C1E: 85 D2              test        edx,edx
  0000000140001C20: 0F 84 1F FE FF FF  je          0000000140001A45
  0000000140001C26: E9 34 FE FF FF     jmp         0000000140001A5F
  0000000140001C2B: 0F 1F 44 00 00     nop         dword ptr [rax+rax]
  0000000140001C30: 4C 39 EB           cmp         rbx,r13
  0000000140001C33: 0F 83 18 FD FF FF  jae         0000000140001951
  0000000140001C39: 4C 8B 35 20 27 00  mov         r14,qword ptr [0000000140004360h]
                    00
  0000000140001C40: 8B 73 04           mov         esi,dword ptr [rbx+4]
  0000000140001C43: 8B 3B              mov         edi,dword ptr [rbx]
  0000000140001C45: 48 83 C3 08        add         rbx,8
  0000000140001C49: 4C 01 F6           add         rsi,r14
  0000000140001C4C: 03 3E              add         edi,dword ptr [rsi]
  0000000140001C4E: 48 89 F1           mov         rcx,rsi
  0000000140001C51: E8 6A FB FF FF     call        00000001400017C0
  0000000140001C56: 89 3E              mov         dword ptr [rsi],edi
  0000000140001C58: 4C 39 EB           cmp         rbx,r13
  0000000140001C5B: 72 E3              jb          0000000140001C40
  0000000140001C5D: E9 6E FE FF FF     jmp         0000000140001AD0
  0000000140001C62: 89 CA              mov         edx,ecx
  0000000140001C64: 48 8D 0D 0D 26 00  lea         rcx,[0000000140004278h]
                    00
  0000000140001C6B: E8 E0 FA FF FF     call        0000000140001750
  0000000140001C70: 48 89 74 24 20     mov         qword ptr [rsp+20h],rsi
  0000000140001C75: 89 CA              mov         edx,ecx
  0000000140001C77: 49 89 F8           mov         r8,rdi
  0000000140001C7A: 48 8D 0D 27 26 00  lea         rcx,[00000001400042A8h]
                    00
  0000000140001C81: E8 CA FA FF FF     call        0000000140001750
  0000000140001C86: 48 8D 0D B3 25 00  lea         rcx,[0000000140004240h]
                    00
  0000000140001C8D: E8 BE FA FF FF     call        0000000140001750
  0000000140001C92: 90                 nop
  0000000140001C93: 90                 nop
  0000000140001C94: 90                 nop
  0000000140001C95: 90                 nop
  0000000140001C96: 90                 nop
  0000000140001C97: 90                 nop
  0000000140001C98: 90                 nop
  0000000140001C99: 90                 nop
  0000000140001C9A: 90                 nop
  0000000140001C9B: 90                 nop
  0000000140001C9C: 90                 nop
  0000000140001C9D: 90                 nop
  0000000140001C9E: 90                 nop
  0000000140001C9F: 90                 nop
  0000000140001CA0: 48 83 EC 58        sub         rsp,58h
  0000000140001CA4: 48 8B 05 05 54 00  mov         rax,qword ptr [00000001400070B0h]
                    00
  0000000140001CAB: 66 0F 14 D3        unpcklpd    xmm2,xmm3
  0000000140001CAF: 48 85 C0           test        rax,rax
  0000000140001CB2: 74 25              je          0000000140001CD9
  0000000140001CB4: F2 0F 10 84 24 80  movsd       xmm0,mmword ptr [rsp+0000000000000080h]
                    00 00 00
  0000000140001CBD: 89 4C 24 20        mov         dword ptr [rsp+20h],ecx
  0000000140001CC1: 48 8D 4C 24 20     lea         rcx,[rsp+20h]
  0000000140001CC6: 48 89 54 24 28     mov         qword ptr [rsp+28h],rdx
  0000000140001CCB: 0F 11 54 24 30     movups      xmmword ptr [rsp+30h],xmm2
  0000000140001CD0: F2 0F 11 44 24 40  movsd       mmword ptr [rsp+40h],xmm0
  0000000140001CD6: FF D0              call        rax
  0000000140001CD8: 90                 nop
  0000000140001CD9: 48 83 C4 58        add         rsp,58h
  0000000140001CDD: C3                 ret
  0000000140001CDE: 66 90              nop
  0000000140001CE0: 48 89 0D C9 53 00  mov         qword ptr [00000001400070B0h],rcx
                    00
  0000000140001CE7: E9 84 09 00 00     jmp         0000000140002670
  0000000140001CEC: 90                 nop
  0000000140001CED: 90                 nop
  0000000140001CEE: 90                 nop
  0000000140001CEF: 90                 nop
  0000000140001CF0: 53                 push        rbx
  0000000140001CF1: 48 83 EC 20        sub         rsp,20h
  0000000140001CF5: 48 8B 11           mov         rdx,qword ptr [rcx]
  0000000140001CF8: 8B 02              mov         eax,dword ptr [rdx]
  0000000140001CFA: 48 89 CB           mov         rbx,rcx
  0000000140001CFD: 89 C1              mov         ecx,eax
  0000000140001CFF: 81 E1 FF FF FF 20  and         ecx,20FFFFFFh
  0000000140001D05: 81 F9 43 43 47 20  cmp         ecx,20474343h
  0000000140001D0B: 0F 84 8F 00 00 00  je          0000000140001DA0
  0000000140001D11: 3D 96 00 00 C0     cmp         eax,0C0000096h
  0000000140001D16: 77 47              ja          0000000140001D5F
  0000000140001D18: 3D 8B 00 00 C0     cmp         eax,0C000008Bh
  0000000140001D1D: 76 61              jbe         0000000140001D80
  0000000140001D1F: 05 73 FF FF 3F     add         eax,3FFFFF73h
  0000000140001D24: 83 F8 09           cmp         eax,9
  0000000140001D27: 77 6B              ja          0000000140001D94
  0000000140001D29: 48 8D 15 D0 25 00  lea         rdx,[0000000140004300h]
                    00
  0000000140001D30: 48 63 04 82        movsxd      rax,dword ptr [rdx+rax*4]
  0000000140001D34: 48 01 D0           add         rax,rdx
  0000000140001D37: FF E0              jmp         rax
  0000000140001D39: 0F 1F 80 00 00 00  nop         dword ptr [rax+0000000000000000h]
                    00
  0000000140001D40: 31 D2              xor         edx,edx
  0000000140001D42: B9 08 00 00 00     mov         ecx,8
  0000000140001D47: E8 8C 09 00 00     call        00000001400026D8
  0000000140001D4C: 48 83 F8 01        cmp         rax,1
  0000000140001D50: 0F 84 3E 01 00 00  je          0000000140001E94
  0000000140001D56: 48 85 C0           test        rax,rax
  0000000140001D59: 0F 85 01 01 00 00  jne         0000000140001E60
  0000000140001D5F: 48 8B 05 6A 53 00  mov         rax,qword ptr [00000001400070D0h]
                    00
  0000000140001D66: 48 85 C0           test        rax,rax
  0000000140001D69: 74 45              je          0000000140001DB0
  0000000140001D6B: 48 89 D9           mov         rcx,rbx
  0000000140001D6E: 48 83 C4 20        add         rsp,20h
  0000000140001D72: 5B                 pop         rbx
  0000000140001D73: 48 FF E0           jmp         rax
  0000000140001D76: 66 2E 0F 1F 84 00  nop         word ptr cs:[rax+rax+0000000000000000h]
                    00 00 00 00
  0000000140001D80: 3D 05 00 00 C0     cmp         eax,0C0000005h
  0000000140001D85: 0F 84 A5 00 00 00  je          0000000140001E30
  0000000140001D8B: 77 33              ja          0000000140001DC0
  0000000140001D8D: 3D 02 00 00 80     cmp         eax,80000002h
  0000000140001D92: 75 CB              jne         0000000140001D5F
  0000000140001D94: B8 FF FF FF FF     mov         eax,0FFFFFFFFh
  0000000140001D99: 48 83 C4 20        add         rsp,20h
  0000000140001D9D: 5B                 pop         rbx
  0000000140001D9E: C3                 ret
  0000000140001D9F: 90                 nop
  0000000140001DA0: F6 42 04 01        test        byte ptr [rdx+4],1
  0000000140001DA4: 0F 85 67 FF FF FF  jne         0000000140001D11
  0000000140001DAA: EB E8              jmp         0000000140001D94
  0000000140001DAC: 0F 1F 40 00        nop         dword ptr [rax]
  0000000140001DB0: 31 C0              xor         eax,eax
  0000000140001DB2: 48 83 C4 20        add         rsp,20h
  0000000140001DB6: 5B                 pop         rbx
  0000000140001DB7: C3                 ret
  0000000140001DB8: 0F 1F 84 00 00 00  nop         dword ptr [rax+rax+0000000000000000h]
                    00 00
  0000000140001DC0: 3D 08 00 00 C0     cmp         eax,0C0000008h
  0000000140001DC5: 74 CD              je          0000000140001D94
  0000000140001DC7: 3D 1D 00 00 C0     cmp         eax,0C000001Dh
  0000000140001DCC: 75 91              jne         0000000140001D5F
  0000000140001DCE: 31 D2              xor         edx,edx
  0000000140001DD0: B9 04 00 00 00     mov         ecx,4
  0000000140001DD5: E8 FE 08 00 00     call        00000001400026D8
  0000000140001DDA: 48 83 F8 01        cmp         rax,1
  0000000140001DDE: 0F 84 9C 00 00 00  je          0000000140001E80
  0000000140001DE4: 48 85 C0           test        rax,rax
  0000000140001DE7: 0F 84 72 FF FF FF  je          0000000140001D5F
  0000000140001DED: B9 04 00 00 00     mov         ecx,4
  0000000140001DF2: FF D0              call        rax
  0000000140001DF4: EB 9E              jmp         0000000140001D94
  0000000140001DF6: 66 2E 0F 1F 84 00  nop         word ptr cs:[rax+rax+0000000000000000h]
                    00 00 00 00
  0000000140001E00: 31 D2              xor         edx,edx
  0000000140001E02: B9 08 00 00 00     mov         ecx,8
  0000000140001E07: E8 CC 08 00 00     call        00000001400026D8
  0000000140001E0C: 48 83 F8 01        cmp         rax,1
  0000000140001E10: 0F 85 40 FF FF FF  jne         0000000140001D56
  0000000140001E16: BA 01 00 00 00     mov         edx,1
  0000000140001E1B: B9 08 00 00 00     mov         ecx,8
  0000000140001E20: E8 B3 08 00 00     call        00000001400026D8
  0000000140001E25: E9 6A FF FF FF     jmp         0000000140001D94
  0000000140001E2A: 66 0F 1F 44 00 00  nop         word ptr [rax+rax]
  0000000140001E30: 31 D2              xor         edx,edx
  0000000140001E32: B9 0B 00 00 00     mov         ecx,0Bh
  0000000140001E37: E8 9C 08 00 00     call        00000001400026D8
  0000000140001E3C: 48 83 F8 01        cmp         rax,1
  0000000140001E40: 74 2A              je          0000000140001E6C
  0000000140001E42: 48 85 C0           test        rax,rax
  0000000140001E45: 0F 84 14 FF FF FF  je          0000000140001D5F
  0000000140001E4B: B9 0B 00 00 00     mov         ecx,0Bh
  0000000140001E50: FF D0              call        rax
  0000000140001E52: E9 3D FF FF FF     jmp         0000000140001D94
  0000000140001E57: 66 0F 1F 84 00 00  nop         word ptr [rax+rax+0000000000000000h]
                    00 00 00
  0000000140001E60: B9 08 00 00 00     mov         ecx,8
  0000000140001E65: FF D0              call        rax
  0000000140001E67: E9 28 FF FF FF     jmp         0000000140001D94
  0000000140001E6C: BA 01 00 00 00     mov         edx,1
  0000000140001E71: B9 0B 00 00 00     mov         ecx,0Bh
  0000000140001E76: E8 5D 08 00 00     call        00000001400026D8
  0000000140001E7B: E9 14 FF FF FF     jmp         0000000140001D94
  0000000140001E80: BA 01 00 00 00     mov         edx,1
  0000000140001E85: B9 04 00 00 00     mov         ecx,4
  0000000140001E8A: E8 49 08 00 00     call        00000001400026D8
  0000000140001E8F: E9 00 FF FF FF     jmp         0000000140001D94
  0000000140001E94: BA 01 00 00 00     mov         edx,1
  0000000140001E99: B9 08 00 00 00     mov         ecx,8
  0000000140001E9E: E8 35 08 00 00     call        00000001400026D8
  0000000140001EA3: E8 98 F8 FF FF     call        0000000140001740
  0000000140001EA8: E9 E7 FE FF FF     jmp         0000000140001D94
  0000000140001EAD: 90                 nop
  0000000140001EAE: 90                 nop
  0000000140001EAF: 90                 nop
  0000000140001EB0: 66 2E 0F 1F 84 00  nop         word ptr cs:[rax+rax+0000000000000000h]
                    00 00 00 00
  0000000140001EBA: 66 0F 1F 44 00 00  nop         word ptr [rax+rax]
  0000000140001EC0: 41 54              push        r12
  0000000140001EC2: 55                 push        rbp
  0000000140001EC3: 57                 push        rdi
  0000000140001EC4: 56                 push        rsi
  0000000140001EC5: 53                 push        rbx
  0000000140001EC6: 48 83 EC 20        sub         rsp,20h
  0000000140001ECA: 4C 8D 25 2F 52 00  lea         r12,[0000000140007100h]
                    00
  0000000140001ED1: 4C 89 E1           mov         rcx,r12
  0000000140001ED4: FF 15 8E 62 00 00  call        qword ptr [0000000140008168h]
  0000000140001EDA: 48 8B 1D FF 51 00  mov         rbx,qword ptr [00000001400070E0h]
                    00
  0000000140001EE1: 48 85 DB           test        rbx,rbx
  0000000140001EE4: 74 3E              je          0000000140001F24
  0000000140001EE6: 48 8B 2D AB 62 00  mov         rbp,qword ptr [0000000140008198h]
                    00
  0000000140001EED: 48 8B 3D 7C 62 00  mov         rdi,qword ptr [0000000140008170h]
                    00
  0000000140001EF4: 66 66 2E 0F 1F 84  nop         word ptr cs:[rax+rax+0000000000000000h]
                    00 00 00 00 00
  0000000140001EFF: 90                 nop
  0000000140001F00: 8B 0B              mov         ecx,dword ptr [rbx]
  0000000140001F02: FF D5              call        rbp
  0000000140001F04: 48 89 C6           mov         rsi,rax
  0000000140001F07: FF D7              call        rdi
  0000000140001F09: 48 85 F6           test        rsi,rsi
  0000000140001F0C: 74 0D              je          0000000140001F1B
  0000000140001F0E: 85 C0              test        eax,eax
  0000000140001F10: 75 09              jne         0000000140001F1B
  0000000140001F12: 48 8B 43 08        mov         rax,qword ptr [rbx+8]
  0000000140001F16: 48 89 F1           mov         rcx,rsi
  0000000140001F19: FF D0              call        rax
  0000000140001F1B: 48 8B 5B 10        mov         rbx,qword ptr [rbx+10h]
  0000000140001F1F: 48 85 DB           test        rbx,rbx
  0000000140001F22: 75 DC              jne         0000000140001F00
  0000000140001F24: 4C 89 E1           mov         rcx,r12
  0000000140001F27: 48 83 C4 20        add         rsp,20h
  0000000140001F2B: 5B                 pop         rbx
  0000000140001F2C: 5E                 pop         rsi
  0000000140001F2D: 5F                 pop         rdi
  0000000140001F2E: 5D                 pop         rbp
  0000000140001F2F: 41 5C              pop         r12
  0000000140001F31: 48 FF 25 48 62 00  jmp         qword ptr [0000000140008180h]
                    00
  0000000140001F38: 0F 1F 84 00 00 00  nop         dword ptr [rax+rax+0000000000000000h]
                    00 00
  0000000140001F40: 57                 push        rdi
  0000000140001F41: 56                 push        rsi
  0000000140001F42: 53                 push        rbx
  0000000140001F43: 48 83 EC 20        sub         rsp,20h
  0000000140001F47: 8B 05 9B 51 00 00  mov         eax,dword ptr [00000001400070E8h]
  0000000140001F4D: 89 CF              mov         edi,ecx
  0000000140001F4F: 48 89 D6           mov         rsi,rdx
  0000000140001F52: 85 C0              test        eax,eax
  0000000140001F54: 75 0A              jne         0000000140001F60
  0000000140001F56: 31 C0              xor         eax,eax
  0000000140001F58: 48 83 C4 20        add         rsp,20h
  0000000140001F5C: 5B                 pop         rbx
  0000000140001F5D: 5E                 pop         rsi
  0000000140001F5E: 5F                 pop         rdi
  0000000140001F5F: C3                 ret
  0000000140001F60: BA 18 00 00 00     mov         edx,18h
  0000000140001F65: B9 01 00 00 00     mov         ecx,1
  0000000140001F6A: E8 31 07 00 00     call        00000001400026A0
  0000000140001F6F: 48 89 C3           mov         rbx,rax
  0000000140001F72: 48 85 C0           test        rax,rax
  0000000140001F75: 74 33              je          0000000140001FAA
  0000000140001F77: 48 89 70 08        mov         qword ptr [rax+8],rsi
  0000000140001F7B: 48 8D 35 7E 51 00  lea         rsi,[0000000140007100h]
                    00
  0000000140001F82: 89 38              mov         dword ptr [rax],edi
  0000000140001F84: 48 89 F1           mov         rcx,rsi
  0000000140001F87: FF 15 DB 61 00 00  call        qword ptr [0000000140008168h]
  0000000140001F8D: 48 8B 05 4C 51 00  mov         rax,qword ptr [00000001400070E0h]
                    00
  0000000140001F94: 48 89 F1           mov         rcx,rsi
  0000000140001F97: 48 89 1D 42 51 00  mov         qword ptr [00000001400070E0h],rbx
                    00
  0000000140001F9E: 48 89 43 10        mov         qword ptr [rbx+10h],rax
  0000000140001FA2: FF 15 D8 61 00 00  call        qword ptr [0000000140008180h]
  0000000140001FA8: EB AC              jmp         0000000140001F56
  0000000140001FAA: 83 C8 FF           or          eax,0FFFFFFFFh
  0000000140001FAD: EB A9              jmp         0000000140001F58
  0000000140001FAF: 90                 nop
  0000000140001FB0: 56                 push        rsi
  0000000140001FB1: 53                 push        rbx
  0000000140001FB2: 48 83 EC 28        sub         rsp,28h
  0000000140001FB6: 8B 05 2C 51 00 00  mov         eax,dword ptr [00000001400070E8h]
  0000000140001FBC: 89 CB              mov         ebx,ecx
  0000000140001FBE: 85 C0              test        eax,eax
  0000000140001FC0: 75 0E              jne         0000000140001FD0
  0000000140001FC2: 31 C0              xor         eax,eax
  0000000140001FC4: 48 83 C4 28        add         rsp,28h
  0000000140001FC8: 5B                 pop         rbx
  0000000140001FC9: 5E                 pop         rsi
  0000000140001FCA: C3                 ret
  0000000140001FCB: 0F 1F 44 00 00     nop         dword ptr [rax+rax]
  0000000140001FD0: 48 8D 35 29 51 00  lea         rsi,[0000000140007100h]
                    00
  0000000140001FD7: 48 89 F1           mov         rcx,rsi
  0000000140001FDA: FF 15 88 61 00 00  call        qword ptr [0000000140008168h]
  0000000140001FE0: 48 8B 0D F9 50 00  mov         rcx,qword ptr [00000001400070E0h]
                    00
  0000000140001FE7: 48 85 C9           test        rcx,rcx
  0000000140001FEA: 74 37              je          0000000140002023
  0000000140001FEC: 31 D2              xor         edx,edx
  0000000140001FEE: EB 1B              jmp         000000014000200B
  0000000140001FF0: 66 66 2E 0F 1F 84  nop         word ptr cs:[rax+rax+0000000000000000h]
                    00 00 00 00 00
  0000000140001FFB: 0F 1F 44 00 00     nop         dword ptr [rax+rax]
  0000000140002000: 48 89 CA           mov         rdx,rcx
  0000000140002003: 48 85 C0           test        rax,rax
  0000000140002006: 74 1B              je          0000000140002023
  0000000140002008: 48 89 C1           mov         rcx,rax
  000000014000200B: 8B 01              mov         eax,dword ptr [rcx]
  000000014000200D: 39 D8              cmp         eax,ebx
  000000014000200F: 48 8B 41 10        mov         rax,qword ptr [rcx+10h]
  0000000140002013: 75 EB              jne         0000000140002000
  0000000140002015: 48 85 D2           test        rdx,rdx
  0000000140002018: 74 1E              je          0000000140002038
  000000014000201A: 48 89 42 10        mov         qword ptr [rdx+10h],rax
  000000014000201E: E8 95 06 00 00     call        00000001400026B8
  0000000140002023: 48 89 F1           mov         rcx,rsi
  0000000140002026: FF 15 54 61 00 00  call        qword ptr [0000000140008180h]
  000000014000202C: 31 C0              xor         eax,eax
  000000014000202E: 48 83 C4 28        add         rsp,28h
  0000000140002032: 5B                 pop         rbx
  0000000140002033: 5E                 pop         rsi
  0000000140002034: C3                 ret
  0000000140002035: 0F 1F 00           nop         dword ptr [rax]
  0000000140002038: 48 89 05 A1 50 00  mov         qword ptr [00000001400070E0h],rax
                    00
  000000014000203F: EB DD              jmp         000000014000201E
  0000000140002041: 66 66 2E 0F 1F 84  nop         word ptr cs:[rax+rax+0000000000000000h]
                    00 00 00 00 00
  000000014000204C: 0F 1F 40 00        nop         dword ptr [rax]
  0000000140002050: 53                 push        rbx
  0000000140002051: 48 83 EC 20        sub         rsp,20h
  0000000140002055: 83 FA 02           cmp         edx,2
  0000000140002058: 0F 84 C2 00 00 00  je          0000000140002120
  000000014000205E: 77 30              ja          0000000140002090
  0000000140002060: 85 D2              test        edx,edx
  0000000140002062: 74 4C              je          00000001400020B0
  0000000140002064: 8B 05 7E 50 00 00  mov         eax,dword ptr [00000001400070E8h]
  000000014000206A: 85 C0              test        eax,eax
  000000014000206C: 0F 84 CE 00 00 00  je          0000000140002140
  0000000140002072: C7 05 6C 50 00 00  mov         dword ptr [00000001400070E8h],1
                    01 00 00 00
  000000014000207C: B8 01 00 00 00     mov         eax,1
  0000000140002081: 48 83 C4 20        add         rsp,20h
  0000000140002085: 5B                 pop         rbx
  0000000140002086: C3                 ret
  0000000140002087: 66 0F 1F 84 00 00  nop         word ptr [rax+rax+0000000000000000h]
                    00 00 00
  0000000140002090: 83 FA 03           cmp         edx,3
  0000000140002093: 75 E7              jne         000000014000207C
  0000000140002095: 8B 05 4D 50 00 00  mov         eax,dword ptr [00000001400070E8h]
  000000014000209B: 85 C0              test        eax,eax
  000000014000209D: 74 DD              je          000000014000207C
  000000014000209F: E8 1C FE FF FF     call        0000000140001EC0
  00000001400020A4: EB D6              jmp         000000014000207C
  00000001400020A6: 66 2E 0F 1F 84 00  nop         word ptr cs:[rax+rax+0000000000000000h]
                    00 00 00 00
  00000001400020B0: 8B 05 32 50 00 00  mov         eax,dword ptr [00000001400070E8h]
  00000001400020B6: 85 C0              test        eax,eax
  00000001400020B8: 75 76              jne         0000000140002130
  00000001400020BA: 8B 05 28 50 00 00  mov         eax,dword ptr [00000001400070E8h]
  00000001400020C0: 83 F8 01           cmp         eax,1
  00000001400020C3: 75 B7              jne         000000014000207C
  00000001400020C5: 48 8B 1D 14 50 00  mov         rbx,qword ptr [00000001400070E0h]
                    00
  00000001400020CC: 48 85 DB           test        rbx,rbx
  00000001400020CF: 74 20              je          00000001400020F1
  00000001400020D1: 66 66 2E 0F 1F 84  nop         word ptr cs:[rax+rax+0000000000000000h]
                    00 00 00 00 00
  00000001400020DC: 0F 1F 40 00        nop         dword ptr [rax]
  00000001400020E0: 48 89 D9           mov         rcx,rbx
  00000001400020E3: 48 8B 5B 10        mov         rbx,qword ptr [rbx+10h]
  00000001400020E7: E8 CC 05 00 00     call        00000001400026B8
  00000001400020EC: 48 85 DB           test        rbx,rbx
  00000001400020EF: 75 EF              jne         00000001400020E0
  00000001400020F1: 48 8D 0D 08 50 00  lea         rcx,[0000000140007100h]
                    00
  00000001400020F8: 48 C7 05 DD 4F 00  mov         qword ptr [00000001400070E0h],0
                    00 00 00 00 00
  0000000140002103: C7 05 DB 4F 00 00  mov         dword ptr [00000001400070E8h],0
                    00 00 00 00
  000000014000210D: FF 15 4D 60 00 00  call        qword ptr [0000000140008160h]
  0000000140002113: E9 64 FF FF FF     jmp         000000014000207C
  0000000140002118: 0F 1F 84 00 00 00  nop         dword ptr [rax+rax+0000000000000000h]
                    00 00
  0000000140002120: E8 1B F6 FF FF     call        0000000140001740
  0000000140002125: B8 01 00 00 00     mov         eax,1
  000000014000212A: 48 83 C4 20        add         rsp,20h
  000000014000212E: 5B                 pop         rbx
  000000014000212F: C3                 ret
  0000000140002130: E8 8B FD FF FF     call        0000000140001EC0
  0000000140002135: EB 83              jmp         00000001400020BA
  0000000140002137: 66 0F 1F 84 00 00  nop         word ptr [rax+rax+0000000000000000h]
                    00 00 00
  0000000140002140: 48 8D 0D B9 4F 00  lea         rcx,[0000000140007100h]
                    00
  0000000140002147: FF 15 2B 60 00 00  call        qword ptr [0000000140008178h]
  000000014000214D: E9 20 FF FF FF     jmp         0000000140002072
  0000000140002152: 90                 nop
  0000000140002153: 90                 nop
  0000000140002154: 90                 nop
  0000000140002155: 90                 nop
  0000000140002156: 90                 nop
  0000000140002157: 90                 nop
  0000000140002158: 90                 nop
  0000000140002159: 90                 nop
  000000014000215A: 90                 nop
  000000014000215B: 90                 nop
  000000014000215C: 90                 nop
  000000014000215D: 90                 nop
  000000014000215E: 90                 nop
  000000014000215F: 90                 nop
  0000000140002160: 31 C0              xor         eax,eax
  0000000140002162: 66 81 39 4D 5A     cmp         word ptr [rcx],5A4Dh
  0000000140002167: 75 0F              jne         0000000140002178
  0000000140002169: 48 63 51 3C        movsxd      rdx,dword ptr [rcx+3Ch]
  000000014000216D: 48 01 D1           add         rcx,rdx
  0000000140002170: 81 39 50 45 00 00  cmp         dword ptr [rcx],4550h
  0000000140002176: 74 08              je          0000000140002180
  0000000140002178: C3                 ret
  0000000140002179: 0F 1F 80 00 00 00  nop         dword ptr [rax+0000000000000000h]
                    00
  0000000140002180: 31 C0              xor         eax,eax
  0000000140002182: 66 81 79 18 0B 02  cmp         word ptr [rcx+18h],20Bh
  0000000140002188: 0F 94 C0           sete        al
  000000014000218B: C3                 ret
  000000014000218C: 0F 1F 40 00        nop         dword ptr [rax]
  0000000140002190: 48 63 41 3C        movsxd      rax,dword ptr [rcx+3Ch]
  0000000140002194: 48 01 C1           add         rcx,rax
  0000000140002197: 0F B7 41 14        movzx       eax,word ptr [rcx+14h]
  000000014000219B: 44 0F B7 41 06     movzx       r8d,word ptr [rcx+6]
  00000001400021A0: 48 8D 44 01 18     lea         rax,[rcx+rax+18h]
  00000001400021A5: 66 45 85 C0        test        r8w,r8w
  00000001400021A9: 74 32              je          00000001400021DD
  00000001400021AB: 41 8D 48 FF        lea         ecx,[r8-1]
  00000001400021AF: 48 8D 0C 89        lea         rcx,[rcx+rcx*4]
  00000001400021B3: 4C 8D 4C C8 28     lea         r9,[rax+rcx*8+28h]
  00000001400021B8: 0F 1F 84 00 00 00  nop         dword ptr [rax+rax+0000000000000000h]
                    00 00
  00000001400021C0: 44 8B 40 0C        mov         r8d,dword ptr [rax+0Ch]
  00000001400021C4: 4C 89 C1           mov         rcx,r8
  00000001400021C7: 4C 39 C2           cmp         rdx,r8
  00000001400021CA: 72 08              jb          00000001400021D4
  00000001400021CC: 03 48 08           add         ecx,dword ptr [rax+8]
  00000001400021CF: 48 39 CA           cmp         rdx,rcx
  00000001400021D2: 72 0B              jb          00000001400021DF
  00000001400021D4: 48 83 C0 28        add         rax,28h
  00000001400021D8: 4C 39 C8           cmp         rax,r9
  00000001400021DB: 75 E3              jne         00000001400021C0
  00000001400021DD: 31 C0              xor         eax,eax
  00000001400021DF: C3                 ret
  00000001400021E0: 57                 push        rdi
  00000001400021E1: 56                 push        rsi
  00000001400021E2: 53                 push        rbx
  00000001400021E3: 48 83 EC 20        sub         rsp,20h
  00000001400021E7: 48 89 CE           mov         rsi,rcx
  00000001400021EA: E8 F1 04 00 00     call        00000001400026E0
  00000001400021EF: 48 83 F8 08        cmp         rax,8
  00000001400021F3: 77 7B              ja          0000000140002270
  00000001400021F5: 48 8B 15 64 21 00  mov         rdx,qword ptr [0000000140004360h]
                    00
  00000001400021FC: 31 DB              xor         ebx,ebx
  00000001400021FE: 66 81 3A 4D 5A     cmp         word ptr [rdx],5A4Dh
  0000000140002203: 75 59              jne         000000014000225E
  0000000140002205: 48 63 42 3C        movsxd      rax,dword ptr [rdx+3Ch]
  0000000140002209: 48 01 D0           add         rax,rdx
  000000014000220C: 81 38 50 45 00 00  cmp         dword ptr [rax],4550h
  0000000140002212: 75 4A              jne         000000014000225E
  0000000140002214: 66 81 78 18 0B 02  cmp         word ptr [rax+18h],20Bh
  000000014000221A: 75 42              jne         000000014000225E
  000000014000221C: 0F B7 50 14        movzx       edx,word ptr [rax+14h]
  0000000140002220: 48 8D 5C 10 18     lea         rbx,[rax+rdx+18h]
  0000000140002225: 0F B7 50 06        movzx       edx,word ptr [rax+6]
  0000000140002229: 66 85 D2           test        dx,dx
  000000014000222C: 74 42              je          0000000140002270
  000000014000222E: 8D 42 FF           lea         eax,[rdx-1]
  0000000140002231: 48 8D 04 80        lea         rax,[rax+rax*4]
  0000000140002235: 48 8D 7C C3 28     lea         rdi,[rbx+rax*8+28h]
  000000014000223A: EB 0D              jmp         0000000140002249
  000000014000223C: 0F 1F 40 00        nop         dword ptr [rax]
  0000000140002240: 48 83 C3 28        add         rbx,28h
  0000000140002244: 48 39 FB           cmp         rbx,rdi
  0000000140002247: 74 27              je          0000000140002270
  0000000140002249: 41 B8 08 00 00 00  mov         r8d,8
  000000014000224F: 48 89 F2           mov         rdx,rsi
  0000000140002252: 48 89 D9           mov         rcx,rbx
  0000000140002255: E8 8E 04 00 00     call        00000001400026E8
  000000014000225A: 85 C0              test        eax,eax
  000000014000225C: 75 E2              jne         0000000140002240
  000000014000225E: 48 89 D8           mov         rax,rbx
  0000000140002261: 48 83 C4 20        add         rsp,20h
  0000000140002265: 5B                 pop         rbx
  0000000140002266: 5E                 pop         rsi
  0000000140002267: 5F                 pop         rdi
  0000000140002268: C3                 ret
  0000000140002269: 0F 1F 80 00 00 00  nop         dword ptr [rax+0000000000000000h]
                    00
  0000000140002270: 31 DB              xor         ebx,ebx
  0000000140002272: 48 89 D8           mov         rax,rbx
  0000000140002275: 48 83 C4 20        add         rsp,20h
  0000000140002279: 5B                 pop         rbx
  000000014000227A: 5E                 pop         rsi
  000000014000227B: 5F                 pop         rdi
  000000014000227C: C3                 ret
  000000014000227D: 0F 1F 00           nop         dword ptr [rax]
  0000000140002280: 48 8B 15 D9 20 00  mov         rdx,qword ptr [0000000140004360h]
                    00
  0000000140002287: 31 C0              xor         eax,eax
  0000000140002289: 66 81 3A 4D 5A     cmp         word ptr [rdx],5A4Dh
  000000014000228E: 75 10              jne         00000001400022A0
  0000000140002290: 4C 63 42 3C        movsxd      r8,dword ptr [rdx+3Ch]
  0000000140002294: 49 01 D0           add         r8,rdx
  0000000140002297: 41 81 38 50 45 00  cmp         dword ptr [r8],4550h
                    00
  000000014000229E: 74 08              je          00000001400022A8
  00000001400022A0: C3                 ret
  00000001400022A1: 0F 1F 80 00 00 00  nop         dword ptr [rax+0000000000000000h]
                    00
  00000001400022A8: 66 41 81 78 18 0B  cmp         word ptr [r8+18h],20Bh
                    02
  00000001400022AF: 75 EF              jne         00000001400022A0
  00000001400022B1: 41 0F B7 40 14     movzx       eax,word ptr [r8+14h]
  00000001400022B6: 48 29 D1           sub         rcx,rdx
  00000001400022B9: 49 8D 44 00 18     lea         rax,[r8+rax+18h]
  00000001400022BE: 45 0F B7 40 06     movzx       r8d,word ptr [r8+6]
  00000001400022C3: 66 45 85 C0        test        r8w,r8w
  00000001400022C7: 74 34              je          00000001400022FD
  00000001400022C9: 41 8D 50 FF        lea         edx,[r8-1]
  00000001400022CD: 48 8D 14 92        lea         rdx,[rdx+rdx*4]
  00000001400022D1: 4C 8D 4C D0 28     lea         r9,[rax+rdx*8+28h]
  00000001400022D6: 66 2E 0F 1F 84 00  nop         word ptr cs:[rax+rax+0000000000000000h]
                    00 00 00 00
  00000001400022E0: 44 8B 40 0C        mov         r8d,dword ptr [rax+0Ch]
  00000001400022E4: 4C 89 C2           mov         rdx,r8
  00000001400022E7: 4C 39 C1           cmp         rcx,r8
  00000001400022EA: 72 08              jb          00000001400022F4
  00000001400022EC: 03 50 08           add         edx,dword ptr [rax+8]
  00000001400022EF: 48 39 D1           cmp         rcx,rdx
  00000001400022F2: 72 AC              jb          00000001400022A0
  00000001400022F4: 48 83 C0 28        add         rax,28h
  00000001400022F8: 4C 39 C8           cmp         rax,r9
  00000001400022FB: 75 E3              jne         00000001400022E0
  00000001400022FD: 31 C0              xor         eax,eax
  00000001400022FF: C3                 ret
  0000000140002300: 48 8B 05 59 20 00  mov         rax,qword ptr [0000000140004360h]
                    00
  0000000140002307: 31 C9              xor         ecx,ecx
  0000000140002309: 66 81 38 4D 5A     cmp         word ptr [rax],5A4Dh
  000000014000230E: 75 0F              jne         000000014000231F
  0000000140002310: 48 63 50 3C        movsxd      rdx,dword ptr [rax+3Ch]
  0000000140002314: 48 01 D0           add         rax,rdx
  0000000140002317: 81 38 50 45 00 00  cmp         dword ptr [rax],4550h
  000000014000231D: 74 09              je          0000000140002328
  000000014000231F: 89 C8              mov         eax,ecx
  0000000140002321: C3                 ret
  0000000140002322: 66 0F 1F 44 00 00  nop         word ptr [rax+rax]
  0000000140002328: 66 81 78 18 0B 02  cmp         word ptr [rax+18h],20Bh
  000000014000232E: 75 EF              jne         000000014000231F
  0000000140002330: 0F B7 48 06        movzx       ecx,word ptr [rax+6]
  0000000140002334: 89 C8              mov         eax,ecx
  0000000140002336: C3                 ret
  0000000140002337: 66 0F 1F 84 00 00  nop         word ptr [rax+rax+0000000000000000h]
                    00 00 00
  0000000140002340: 4C 8B 05 19 20 00  mov         r8,qword ptr [0000000140004360h]
                    00
  0000000140002347: 31 C0              xor         eax,eax
  0000000140002349: 66 41 81 38 4D 5A  cmp         word ptr [r8],5A4Dh
  000000014000234F: 75 0F              jne         0000000140002360
  0000000140002351: 49 63 50 3C        movsxd      rdx,dword ptr [r8+3Ch]
  0000000140002355: 4C 01 C2           add         rdx,r8
  0000000140002358: 81 3A 50 45 00 00  cmp         dword ptr [rdx],4550h
  000000014000235E: 74 08              je          0000000140002368
  0000000140002360: C3                 ret
  0000000140002361: 0F 1F 80 00 00 00  nop         dword ptr [rax+0000000000000000h]
                    00
  0000000140002368: 66 81 7A 18 0B 02  cmp         word ptr [rdx+18h],20Bh
  000000014000236E: 75 F0              jne         0000000140002360
  0000000140002370: 0F B7 42 14        movzx       eax,word ptr [rdx+14h]
  0000000140002374: 44 0F B7 42 06     movzx       r8d,word ptr [rdx+6]
  0000000140002379: 48 8D 44 02 18     lea         rax,[rdx+rax+18h]
  000000014000237E: 66 45 85 C0        test        r8w,r8w
  0000000140002382: 74 34              je          00000001400023B8
  0000000140002384: 41 8D 50 FF        lea         edx,[r8-1]
  0000000140002388: 48 8D 14 92        lea         rdx,[rdx+rdx*4]
  000000014000238C: 48 8D 54 D0 28     lea         rdx,[rax+rdx*8+28h]
  0000000140002391: 66 66 2E 0F 1F 84  nop         word ptr cs:[rax+rax+0000000000000000h]
                    00 00 00 00 00
  000000014000239C: 0F 1F 40 00        nop         dword ptr [rax]
  00000001400023A0: F6 40 27 20        test        byte ptr [rax+27h],20h
  00000001400023A4: 74 09              je          00000001400023AF
  00000001400023A6: 48 85 C9           test        rcx,rcx
  00000001400023A9: 74 B5              je          0000000140002360
  00000001400023AB: 48 83 E9 01        sub         rcx,1
  00000001400023AF: 48 83 C0 28        add         rax,28h
  00000001400023B3: 48 39 C2           cmp         rdx,rax
  00000001400023B6: 75 E8              jne         00000001400023A0
  00000001400023B8: 31 C0              xor         eax,eax
  00000001400023BA: C3                 ret
  00000001400023BB: 0F 1F 44 00 00     nop         dword ptr [rax+rax]
  00000001400023C0: 48 8B 05 99 1F 00  mov         rax,qword ptr [0000000140004360h]
                    00
  00000001400023C7: 31 D2              xor         edx,edx
  00000001400023C9: 66 81 38 4D 5A     cmp         word ptr [rax],5A4Dh
  00000001400023CE: 75 0F              jne         00000001400023DF
  00000001400023D0: 48 63 48 3C        movsxd      rcx,dword ptr [rax+3Ch]
  00000001400023D4: 48 01 C1           add         rcx,rax
  00000001400023D7: 81 39 50 45 00 00  cmp         dword ptr [rcx],4550h
  00000001400023DD: 74 09              je          00000001400023E8
  00000001400023DF: 48 89 D0           mov         rax,rdx
  00000001400023E2: C3                 ret
  00000001400023E3: 0F 1F 44 00 00     nop         dword ptr [rax+rax]
  00000001400023E8: 66 81 79 18 0B 02  cmp         word ptr [rcx+18h],20Bh
  00000001400023EE: 48 0F 44 D0        cmove       rdx,rax
  00000001400023F2: 48 89 D0           mov         rax,rdx
  00000001400023F5: C3                 ret
  00000001400023F6: 66 2E 0F 1F 84 00  nop         word ptr cs:[rax+rax+0000000000000000h]
                    00 00 00 00
  0000000140002400: 48 8B 15 59 1F 00  mov         rdx,qword ptr [0000000140004360h]
                    00
  0000000140002407: 31 C0              xor         eax,eax
  0000000140002409: 66 81 3A 4D 5A     cmp         word ptr [rdx],5A4Dh
  000000014000240E: 75 10              jne         0000000140002420
  0000000140002410: 4C 63 42 3C        movsxd      r8,dword ptr [rdx+3Ch]
  0000000140002414: 49 01 D0           add         r8,rdx
  0000000140002417: 41 81 38 50 45 00  cmp         dword ptr [r8],4550h
                    00
  000000014000241E: 74 08              je          0000000140002428
  0000000140002420: C3                 ret
  0000000140002421: 0F 1F 80 00 00 00  nop         dword ptr [rax+0000000000000000h]
                    00
  0000000140002428: 66 41 81 78 18 0B  cmp         word ptr [r8+18h],20Bh
                    02
  000000014000242F: 75 EF              jne         0000000140002420
  0000000140002431: 48 29 D1           sub         rcx,rdx
  0000000140002434: 45 0F B7 48 06     movzx       r9d,word ptr [r8+6]
  0000000140002439: 41 0F B7 50 14     movzx       edx,word ptr [r8+14h]
  000000014000243E: 49 8D 54 10 18     lea         rdx,[r8+rdx+18h]
  0000000140002443: 66 45 85 C9        test        r9w,r9w
  0000000140002447: 74 D7              je          0000000140002420
  0000000140002449: 41 8D 41 FF        lea         eax,[r9-1]
  000000014000244D: 48 8D 04 80        lea         rax,[rax+rax*4]
  0000000140002451: 4C 8D 4C C2 28     lea         r9,[rdx+rax*8+28h]
  0000000140002456: 66 2E 0F 1F 84 00  nop         word ptr cs:[rax+rax+0000000000000000h]
                    00 00 00 00
  0000000140002460: 44 8B 42 0C        mov         r8d,dword ptr [rdx+0Ch]
  0000000140002464: 4C 89 C0           mov         rax,r8
  0000000140002467: 4C 39 C1           cmp         rcx,r8
  000000014000246A: 72 08              jb          0000000140002474
  000000014000246C: 03 42 08           add         eax,dword ptr [rdx+8]
  000000014000246F: 48 39 C1           cmp         rcx,rax
  0000000140002472: 72 0C              jb          0000000140002480
  0000000140002474: 48 83 C2 28        add         rdx,28h
  0000000140002478: 49 39 D1           cmp         r9,rdx
  000000014000247B: 75 E3              jne         0000000140002460
  000000014000247D: 31 C0              xor         eax,eax
  000000014000247F: C3                 ret
  0000000140002480: 8B 42 24           mov         eax,dword ptr [rdx+24h]
  0000000140002483: F7 D0              not         eax
  0000000140002485: C1 E8 1F           shr         eax,1Fh
  0000000140002488: C3                 ret
  0000000140002489: 0F 1F 80 00 00 00  nop         dword ptr [rax+0000000000000000h]
                    00
  0000000140002490: 4C 8B 1D C9 1E 00  mov         r11,qword ptr [0000000140004360h]
                    00
  0000000140002497: 45 31 C9           xor         r9d,r9d
  000000014000249A: 66 41 81 3B 4D 5A  cmp         word ptr [r11],5A4Dh
  00000001400024A0: 75 10              jne         00000001400024B2
  00000001400024A2: 4D 63 43 3C        movsxd      r8,dword ptr [r11+3Ch]
  00000001400024A6: 4D 01 D8           add         r8,r11
  00000001400024A9: 41 81 38 50 45 00  cmp         dword ptr [r8],4550h
                    00
  00000001400024B0: 74 0E              je          00000001400024C0
  00000001400024B2: 4C 89 C8           mov         rax,r9
  00000001400024B5: C3                 ret
  00000001400024B6: 66 2E 0F 1F 84 00  nop         word ptr cs:[rax+rax+0000000000000000h]
                    00 00 00 00
  00000001400024C0: 66 41 81 78 18 0B  cmp         word ptr [r8+18h],20Bh
                    02
  00000001400024C7: 75 E9              jne         00000001400024B2
  00000001400024C9: 41 8B 80 90 00 00  mov         eax,dword ptr [r8+0000000000000090h]
                    00
  00000001400024D0: 85 C0              test        eax,eax
  00000001400024D2: 74 DE              je          00000001400024B2
  00000001400024D4: 41 0F B7 50 14     movzx       edx,word ptr [r8+14h]
  00000001400024D9: 45 0F B7 50 06     movzx       r10d,word ptr [r8+6]
  00000001400024DE: 49 8D 54 10 18     lea         rdx,[r8+rdx+18h]
  00000001400024E3: 66 45 85 D2        test        r10w,r10w
  00000001400024E7: 74 C9              je          00000001400024B2
  00000001400024E9: 45 8D 42 FF        lea         r8d,[r10-1]
  00000001400024ED: 4F 8D 04 80        lea         r8,[r8+r8*4]
  00000001400024F1: 4E 8D 54 C2 28     lea         r10,[rdx+r8*8+28h]
  00000001400024F6: 66 2E 0F 1F 84 00  nop         word ptr cs:[rax+rax+0000000000000000h]
                    00 00 00 00
  0000000140002500: 44 8B 4A 0C        mov         r9d,dword ptr [rdx+0Ch]
  0000000140002504: 4D 89 C8           mov         r8,r9
  0000000140002507: 4C 39 C8           cmp         rax,r9
  000000014000250A: 72 09              jb          0000000140002515
  000000014000250C: 44 03 42 08        add         r8d,dword ptr [rdx+8]
  0000000140002510: 4C 39 C0           cmp         rax,r8
  0000000140002513: 72 13              jb          0000000140002528
  0000000140002515: 48 83 C2 28        add         rdx,28h
  0000000140002519: 49 39 D2           cmp         r10,rdx
  000000014000251C: 75 E2              jne         0000000140002500
  000000014000251E: 45 31 C9           xor         r9d,r9d
  0000000140002521: 4C 89 C8           mov         rax,r9
  0000000140002524: C3                 ret
  0000000140002525: 0F 1F 00           nop         dword ptr [rax]
  0000000140002528: 4C 01 D8           add         rax,r11
  000000014000252B: EB 0A              jmp         0000000140002537
  000000014000252D: 0F 1F 00           nop         dword ptr [rax]
  0000000140002530: 83 E9 01           sub         ecx,1
  0000000140002533: 48 83 C0 14        add         rax,14h
  0000000140002537: 44 8B 40 04        mov         r8d,dword ptr [rax+4]
  000000014000253B: 45 85 C0           test        r8d,r8d
  000000014000253E: 75 07              jne         0000000140002547
  0000000140002540: 8B 50 0C           mov         edx,dword ptr [rax+0Ch]
  0000000140002543: 85 D2              test        edx,edx
  0000000140002545: 74 D7              je          000000014000251E
  0000000140002547: 85 C9              test        ecx,ecx
  0000000140002549: 7F E5              jg          0000000140002530
  000000014000254B: 44 8B 48 0C        mov         r9d,dword ptr [rax+0Ch]
  000000014000254F: 4D 01 D9           add         r9,r11
  0000000140002552: 4C 89 C8           mov         rax,r9
  0000000140002555: C3                 ret
  0000000140002556: 90                 nop
  0000000140002557: 90                 nop
  0000000140002558: 90                 nop
  0000000140002559: 90                 nop
  000000014000255A: 90                 nop
  000000014000255B: 90                 nop
  000000014000255C: 90                 nop
  000000014000255D: 90                 nop
  000000014000255E: 90                 nop
  000000014000255F: 90                 nop
  0000000140002560: 51                 push        rcx
  0000000140002561: 50                 push        rax
  0000000140002562: 48 3D 00 10 00 00  cmp         rax,1000h
  0000000140002568: 48 8D 4C 24 18     lea         rcx,[rsp+18h]
  000000014000256D: 72 19              jb          0000000140002588
  000000014000256F: 48 81 E9 00 10 00  sub         rcx,1000h
                    00
  0000000140002576: 48 83 09 00        or          qword ptr [rcx],0
  000000014000257A: 48 2D 00 10 00 00  sub         rax,1000h
  0000000140002580: 48 3D 00 10 00 00  cmp         rax,1000h
  0000000140002586: 77 E7              ja          000000014000256F
  0000000140002588: 48 29 C1           sub         rcx,rax
  000000014000258B: 48 83 09 00        or          qword ptr [rcx],0
  000000014000258F: 58                 pop         rax
  0000000140002590: 59                 pop         rcx
  0000000140002591: C3                 ret
  0000000140002592: 90                 nop
  0000000140002593: 90                 nop
  0000000140002594: 90                 nop
  0000000140002595: 90                 nop
  0000000140002596: 90                 nop
  0000000140002597: 90                 nop
  0000000140002598: 90                 nop
  0000000140002599: 90                 nop
  000000014000259A: 90                 nop
  000000014000259B: 90                 nop
  000000014000259C: 90                 nop
  000000014000259D: 90                 nop
  000000014000259E: 90                 nop
  000000014000259F: 90                 nop
  00000001400025A0: 56                 push        rsi
  00000001400025A1: 53                 push        rbx
  00000001400025A2: 48 83 EC 28        sub         rsp,28h
  00000001400025A6: 48 89 CB           mov         rbx,rcx
  00000001400025A9: 48 89 D6           mov         rsi,rdx
  00000001400025AC: 48 39 D1           cmp         rcx,rdx
  00000001400025AF: 73 26              jae         00000001400025D7
  00000001400025B1: 66 66 2E 0F 1F 84  nop         word ptr cs:[rax+rax+0000000000000000h]
                    00 00 00 00 00
  00000001400025BC: 0F 1F 40 00        nop         dword ptr [rax]
  00000001400025C0: 48 8B 03           mov         rax,qword ptr [rbx]
  00000001400025C3: 48 85 C0           test        rax,rax
  00000001400025C6: 74 06              je          00000001400025CE
  00000001400025C8: FF D0              call        rax
  00000001400025CA: 85 C0              test        eax,eax
  00000001400025CC: 75 0B              jne         00000001400025D9
  00000001400025CE: 48 83 C3 08        add         rbx,8
  00000001400025D2: 48 39 F3           cmp         rbx,rsi
  00000001400025D5: 72 E9              jb          00000001400025C0
  00000001400025D7: 31 C0              xor         eax,eax
  00000001400025D9: 48 83 C4 28        add         rsp,28h
  00000001400025DD: 5B                 pop         rbx
  00000001400025DE: 5E                 pop         rsi
  00000001400025DF: C3                 ret
  00000001400025E0: 48 8B 05 D9 1D 00  mov         rax,qword ptr [00000001400043C0h]
                    00
  00000001400025E7: 48 8B 00           mov         rax,qword ptr [rax]
  00000001400025EA: C3                 ret
  00000001400025EB: 90                 nop
  00000001400025EC: 90                 nop
  00000001400025ED: 90                 nop
  00000001400025EE: 90                 nop
  00000001400025EF: 90                 nop
  00000001400025F0: 48 8B 05 B9 1D 00  mov         rax,qword ptr [00000001400043B0h]
                    00
  00000001400025F7: 48 8B 00           mov         rax,qword ptr [rax]
  00000001400025FA: C3                 ret
  00000001400025FB: 90                 nop
  00000001400025FC: 90                 nop
  00000001400025FD: 90                 nop
  00000001400025FE: 90                 nop
  00000001400025FF: 90                 nop
  0000000140002600: 48 8B 05 99 1D 00  mov         rax,qword ptr [00000001400043A0h]
                    00
  0000000140002607: 48 8B 00           mov         rax,qword ptr [rax]
  000000014000260A: C3                 ret
  000000014000260B: 90                 nop
  000000014000260C: 90                 nop
  000000014000260D: 90                 nop
  000000014000260E: 90                 nop
  000000014000260F: 90                 nop
  0000000140002610: 48 8B 05 59 4B 00  mov         rax,qword ptr [0000000140007170h]
                    00
  0000000140002617: C3                 ret
  0000000140002618: 0F 1F 84 00 00 00  nop         dword ptr [rax+rax+0000000000000000h]
                    00 00
  0000000140002620: 48 89 C8           mov         rax,rcx
  0000000140002623: 48 87 05 46 4B 00  xchg        rax,qword ptr [0000000140007170h]
                    00
  000000014000262A: C3                 ret
  000000014000262B: 90                 nop
  000000014000262C: 90                 nop
  000000014000262D: 90                 nop
  000000014000262E: 90                 nop
  000000014000262F: 90                 nop
  0000000140002630: 53                 push        rbx
  0000000140002631: 48 83 EC 20        sub         rsp,20h
  0000000140002635: 89 CB              mov         ebx,ecx
  0000000140002637: E8 24 00 00 00     call        0000000140002660
  000000014000263C: 89 D9              mov         ecx,ebx
  000000014000263E: 48 8D 14 49        lea         rdx,[rcx+rcx*2]
  0000000140002642: 48 C1 E2 04        shl         rdx,4
  0000000140002646: 48 01 D0           add         rax,rdx
  0000000140002649: 48 83 C4 20        add         rsp,20h
  000000014000264D: 5B                 pop         rbx
  000000014000264E: C3                 ret
  000000014000264F: 90                 nop
  0000000140002650: FF 25 62 5B 00 00  jmp         qword ptr [00000001400081B8h]
  0000000140002656: 90                 nop
  0000000140002657: 90                 nop
  0000000140002658: FF 25 62 5B 00 00  jmp         qword ptr [00000001400081C0h]
  000000014000265E: 90                 nop
  000000014000265F: 90                 nop
  0000000140002660: FF 25 6A 5B 00 00  jmp         qword ptr [00000001400081D0h]
  0000000140002666: 90                 nop
  0000000140002667: 90                 nop
  0000000140002668: FF 25 6A 5B 00 00  jmp         qword ptr [00000001400081D8h]
  000000014000266E: 90                 nop
  000000014000266F: 90                 nop
  0000000140002670: FF 25 6A 5B 00 00  jmp         qword ptr [00000001400081E0h]
  0000000140002676: 90                 nop
  0000000140002677: 90                 nop
  0000000140002678: FF 25 6A 5B 00 00  jmp         qword ptr [00000001400081E8h]
  000000014000267E: 90                 nop
  000000014000267F: 90                 nop
  0000000140002680: FF 25 6A 5B 00 00  jmp         qword ptr [00000001400081F0h]
  0000000140002686: 90                 nop
  0000000140002687: 90                 nop
  0000000140002688: FF 25 7A 5B 00 00  jmp         qword ptr [0000000140008208h]
  000000014000268E: 90                 nop
  000000014000268F: 90                 nop
  0000000140002690: FF 25 7A 5B 00 00  jmp         qword ptr [0000000140008210h]
  0000000140002696: 90                 nop
  0000000140002697: 90                 nop
  0000000140002698: FF 25 7A 5B 00 00  jmp         qword ptr [0000000140008218h]
  000000014000269E: 90                 nop
  000000014000269F: 90                 nop
  00000001400026A0: FF 25 7A 5B 00 00  jmp         qword ptr [0000000140008220h]
  00000001400026A6: 90                 nop
  00000001400026A7: 90                 nop
  00000001400026A8: FF 25 7A 5B 00 00  jmp         qword ptr [0000000140008228h]
  00000001400026AE: 90                 nop
  00000001400026AF: 90                 nop
  00000001400026B0: FF 25 7A 5B 00 00  jmp         qword ptr [0000000140008230h]
  00000001400026B6: 90                 nop
  00000001400026B7: 90                 nop
  00000001400026B8: FF 25 7A 5B 00 00  jmp         qword ptr [0000000140008238h]
  00000001400026BE: 90                 nop
  00000001400026BF: 90                 nop
  00000001400026C0: FF 25 7A 5B 00 00  jmp         qword ptr [0000000140008240h]
  00000001400026C6: 90                 nop
  00000001400026C7: 90                 nop
  00000001400026C8: FF 25 7A 5B 00 00  jmp         qword ptr [0000000140008248h]
  00000001400026CE: 90                 nop
  00000001400026CF: 90                 nop
  00000001400026D0: FF 25 7A 5B 00 00  jmp         qword ptr [0000000140008250h]
  00000001400026D6: 90                 nop
  00000001400026D7: 90                 nop
  00000001400026D8: FF 25 7A 5B 00 00  jmp         qword ptr [0000000140008258h]
  00000001400026DE: 90                 nop
  00000001400026DF: 90                 nop
  00000001400026E0: FF 25 7A 5B 00 00  jmp         qword ptr [0000000140008260h]
  00000001400026E6: 90                 nop
  00000001400026E7: 90                 nop
  00000001400026E8: FF 25 7A 5B 00 00  jmp         qword ptr [0000000140008268h]
  00000001400026EE: 90                 nop
  00000001400026EF: 90                 nop
  00000001400026F0: FF 25 7A 5B 00 00  jmp         qword ptr [0000000140008270h]
  00000001400026F6: 90                 nop
  00000001400026F7: 90                 nop
  00000001400026F8: 0F 1F 84 00 00 00  nop         dword ptr [rax+rax+0000000000000000h]
                    00 00
  0000000140002700: FF 25 A2 5A 00 00  jmp         qword ptr [00000001400081A8h]
  0000000140002706: 90                 nop
  0000000140002707: 90                 nop
  0000000140002708: FF 25 92 5A 00 00  jmp         qword ptr [00000001400081A0h]
  000000014000270E: 90                 nop
  000000014000270F: 90                 nop
  0000000140002710: FF 25 82 5A 00 00  jmp         qword ptr [0000000140008198h]
  0000000140002716: 90                 nop
  0000000140002717: 90                 nop
  0000000140002718: FF 25 72 5A 00 00  jmp         qword ptr [0000000140008190h]
  000000014000271E: 90                 nop
  000000014000271F: 90                 nop
  0000000140002720: FF 25 62 5A 00 00  jmp         qword ptr [0000000140008188h]
  0000000140002726: 90                 nop
  0000000140002727: 90                 nop
  0000000140002728: FF 25 52 5A 00 00  jmp         qword ptr [0000000140008180h]
  000000014000272E: 90                 nop
  000000014000272F: 90                 nop
  0000000140002730: FF 25 42 5A 00 00  jmp         qword ptr [0000000140008178h]
  0000000140002736: 90                 nop
  0000000140002737: 90                 nop
  0000000140002738: FF 25 32 5A 00 00  jmp         qword ptr [0000000140008170h]
  000000014000273E: 90                 nop
  000000014000273F: 90                 nop
  0000000140002740: FF 25 22 5A 00 00  jmp         qword ptr [0000000140008168h]
  0000000140002746: 90                 nop
  0000000140002747: 90                 nop
  0000000140002748: FF 25 12 5A 00 00  jmp         qword ptr [0000000140008160h]
  000000014000274E: 90                 nop
  000000014000274F: 90                 nop
  0000000140002750: E9 EB EC FF FF     jmp         0000000140001440
  0000000140002755: 90                 nop
  0000000140002756: 90                 nop
  0000000140002757: 90                 nop
  0000000140002758: 90                 nop
  0000000140002759: 90                 nop
  000000014000275A: 90                 nop
  000000014000275B: 90                 nop
  000000014000275C: 90                 nop
  000000014000275D: 90                 nop
  000000014000275E: 90                 nop
  000000014000275F: 90                 nop
  0000000140002760: FF
  0000000140002761: FF
  0000000140002762: FF
  0000000140002763: FF
  0000000140002764: FF
  0000000140002765: FF
  0000000140002766: FF
  0000000140002767: FF 50 27           call        qword ptr [rax+27h]
  000000014000276A: 00 40 01           add         byte ptr [rax+1],al
  000000014000276D: 00 00              add         byte ptr [rax],al
  000000014000276F: 00 00              add         byte ptr [rax],al
  0000000140002771: 00 00              add         byte ptr [rax],al
  0000000140002773: 00 00              add         byte ptr [rax],al
  0000000140002775: 00 00              add         byte ptr [rax],al
  0000000140002777: 00 FF              add         bh,bh
  0000000140002779: FF
  000000014000277A: FF
  000000014000277B: FF
  000000014000277C: FF
  000000014000277D: FF
  000000014000277E: FF
  000000014000277F: FF 00              inc         dword ptr [rax]
  0000000140002781: 00 00              add         byte ptr [rax],al
  0000000140002783: 00 00              add         byte ptr [rax],al
  0000000140002785: 00 00              add         byte ptr [rax],al
  0000000140002787: 00

RAW DATA #1
  0000000140001000: C3 66 66 2E 0F 1F 84 00 00 00 00 00 0F 1F 40 00  ff...........@.
  0000000140001010: 48 83 EC 28 48 8B 05 C5 33 00 00 31 C9 C7 00 01  H.(H..3..1..
  0000000140001020: 00 00 00 48 8B 05 C6 33 00 00 C7 00 01 00 00 00  ...H..3.......
  0000000140001030: 48 8B 05 C9 33 00 00 C7 00 01 00 00 00 48 8B 05  H..3.......H..
  0000000140001040: 1C 33 00 00 66 81 38 4D 5A 75 0F 48 63 50 3C 48  .3..f.8MZu.HcP<H
  0000000140001050: 01 D0 81 38 50 45 00 00 74 76 48 8B 05 6F 33 00  ..8PE..tvH..o3.
  0000000140001060: 00 89 0D A1 5F 00 00 8B 00 85 C0 74 53 B9 02 00  ..._.....tS..
  0000000140001070: 00 00 E8 F1 15 00 00 E8 64 15 00 00 48 8B 15 1D  .....d...H...
  0000000140001080: 34 00 00 8B 12 89 10 E8 64 15 00 00 48 8B 15 ED  4......d...H..
  0000000140001090: 33 00 00 8B 12 89 10 E8 E4 04 00 00 85 C0 0F 88  3............
  00000001400010A0: 9A 00 00 00 48 8B 05 95 32 00 00 83 38 01 74 58  ....H...2...8.tX
  00000001400010B0: 31 C0 48 83 C4 28 C3 66 0F 1F 84 00 00 00 00 00  1H.(f........
  00000001400010C0: B9 01 00 00 00 E8 9E 15 00 00 EB AB 0F 1F 40 00  ..........@.
  00000001400010D0: 0F B7 50 18 66 81 FA 0B 01 74 45 66 81 FA 0B 02  .P.f...tEf...
  00000001400010E0: 0F 85 74 FF FF FF 83 B8 84 00 00 00 0E 0F 86 67  ..t........g
  00000001400010F0: FF FF FF 8B 90 F8 00 00 00 31 C9 85 D2 0F 95 C1  .....1...
  0000000140001100: E9 55 FF FF FF 0F 1F 00 48 8B 0D B1 33 00 00 E8  U...H..3..
  0000000140001110: CC 0B 00 00 31 C0 48 83 C4 28 C3 0F 1F 44 00 00  ...1H.(..D..
  0000000140001120: 83 78 74 0E 0F 86 30 FF FF FF 44 8B 80 E8 00 00  .xt...0D....
  0000000140001130: 00 31 C9 45 85 C0 0F 95 C1 E9 1C FF FF FF B9 08  .1E.....
  0000000140001140: 00 00 00 E8 30 15 00 00 90 0F 1F 80 00 00 00 00  ...0...........
  0000000140001150: 48 83 EC 48 48 8B 05 75 33 00 00 4C 8D 05 AE 5E  H.HH..u3..L..^
  0000000140001160: 00 00 48 8D 15 AF 5E 00 00 48 8D 0D B0 5E 00 00  ..H..^..H..^..
  0000000140001170: 8B 00 89 44 24 3C 48 8B 05 13 33 00 00 44 8B 08  ...D$<H...3..D..
  0000000140001180: 48 8D 44 24 3C 48 89 44 24 20 E8 C9 14 00 00 85  H.D$<H.D$ ....
  0000000140001190: C0 78 05 48 83 C4 48 C3 B9 08 00 00 00 E8 D6 14  x.H.H.....
  00000001400011A0: 00 00 90 66 66 2E 0F 1F 84 00 00 00 00 00 66 90  ...ff.........f.
  00000001400011B0: 41 54 55 57 56 53 48 83 EC 20 B8 30 00 00 00 65  ATUWVSH. 0...e
  00000001400011C0: 67 48 8B 00 48 8B 70 08 48 8B 1D 51 32 00 00 48  gH..H.p.H..Q2..H
  00000001400011D0: 8B 3D BA 6F 00 00 EB 18 0F 1F 84 00 00 00 00 00  .=o...........
  00000001400011E0: 48 39 C6 0F 84 5F 01 00 00 B9 E8 03 00 00 FF D7  H9.._......
  00000001400011F0: 31 C0 F0 48 0F B1 33 75 E7 31 FF 48 8B 35 2E 32  1H.3u1H.5.2
  0000000140001200: 00 00 8B 06 83 F8 01 0F 84 D2 01 00 00 8B 06 85  ..............
  0000000140001210: C0 0F 84 41 01 00 00 C7 05 E3 5D 00 00 01 00 00  ..A....].....
  0000000140001220: 00 8B 06 83 F8 01 0F 84 84 01 00 00 85 FF 0F 84  ..............
  0000000140001230: 4C 01 00 00 48 8B 05 55 31 00 00 48 8B 00 48 85  L...H..U1..H..H.
  0000000140001240: C0 74 0C 45 31 C0 BA 02 00 00 00 31 C9 FF D0 E8  t.E1....1
  0000000140001250: DC 06 00 00 48 8B 0D 55 32 00 00 FF 15 27 6F 00  ...H..U2...'o.
  0000000140001260: 00 48 8B 15 A8 31 00 00 48 8D 0D 91 FD FF FF 48  .H..1..H...H
  0000000140001270: 89 02 E8 A9 13 00 00 E8 C4 04 00 00 8B 1D 9E 5D  ...........]
  0000000140001280: 00 00 8D 7B 01 48 63 FF 48 C1 E7 03 48 89 F9 E8  ...{.HcH.H.
  0000000140001290: 34 14 00 00 4C 8B 25 7D 5D 00 00 48 89 C5 85 DB  4...L.%}]..H..
  00000001400012A0: 0F 8E 2A 01 00 00 48 83 EF 08 31 DB 0F 1F 40 00  ..*...H..1..@.
  00000001400012B0: 49 8B 0C 1C E8 27 14 00 00 48 8D 70 01 48 89 F1  I...'...H.p.H.
  00000001400012C0: E8 03 14 00 00 49 89 F0 48 89 44 1D 00 49 8B 14  ....I.H.D..I..
  00000001400012D0: 1C 48 89 C1 48 83 C3 08 E8 F3 13 00 00 48 39 DF  .H.H.....H9
  00000001400012E0: 75 CE 48 01 EF 48 C7 07 00 00 00 00 48 89 2D 25  uH.H.....H.-%
  00000001400012F0: 5D 00 00 E8 68 02 00 00 E8 03 13 00 00 4C 8B 05  ]..h.......L..
  0000000140001300: 0C 5D 00 00 8B 0D 16 5D 00 00 4C 89 00 48 8B 15  .].....]..L..H..
  0000000140001310: 04 5D 00 00 E8 47 01 00 00 8B 0D E9 5C 00 00 89  .]..G.....\...
  0000000140001320: 05 E7 5C 00 00 85 C9 0F 84 AB 00 00 00 8B 15 D1  .\..........
  0000000140001330: 5C 00 00 85 D2 74 59 48 83 C4 20 5B 5E 5F 5D 41  \...tYH. [^_]A
  0000000140001340: 5C C3 66 0F 1F 44 00 00 BF 01 00 00 00 E9 A9 FE  \f..D......
  0000000140001350: FF FF 66 0F 1F 44 00 00 48 8B 15 11 31 00 00 48  f..D..H...1..H
  0000000140001360: 8B 0D FA 30 00 00 C7 06 01 00 00 00 E8 2F 12 00  ..0......./..
  0000000140001370: 00 85 C0 0F 84 A8 FE FF FF B8 FF 00 00 00 EB B7  .......
  0000000140001380: 31 C0 48 87 03 E9 AA FE FF FF 66 0F 1F 44 00 00  1H..f..D..
  0000000140001390: E8 EB 12 00 00 8B 05 71 5C 00 00 48 83 C4 20 5B  .....q\..H. [
  00000001400013A0: 5E 5F 5D 41 5C C3 66 2E 0F 1F 84 00 00 00 00 00  ^_]A\f.........
  00000001400013B0: 48 8B 15 99 30 00 00 48 8B 0D 82 30 00 00 E8 C5  H...0..H...0..
  00000001400013C0: 12 00 00 C7 06 02 00 00 00 E9 5E FE FF FF 66 90  ........^f.
  00000001400013D0: 48 89 C7 E9 0D FF FF FF 89 C1 E8 C9 12 00 00 B9  H......
  00000001400013E0: 1F 00 00 00 E8 8F 12 00 00 90 66 0F 1F 44 00 00  .........f..D..
  00000001400013F0: 48 83 EC 28 48 8B 05 D5 2F 00 00 C7 00 01 00 00  H.(H../......
  0000000140001400: 00 E8 AA FD FF FF 90 90 48 83 C4 28 C3 0F 1F 00  ...H.(...
  0000000140001410: 48 83 EC 28 48 8B 05 B5 2F 00 00 C7 00 00 00 00  H.(H../......
  0000000140001420: 00 E8 8A FD FF FF 90 90 48 83 C4 28 C3 0F 1F 00  ....H.(...
  0000000140001430: E9 63 12 00 00 90 90 90 90 90 90 90 90 90 90 90  c..............
  0000000140001440: 48 8D 0D 09 00 00 00 E9 E4 FF FF FF 0F 1F 40 00  H........@.
  0000000140001450: C3 90 90 90 90 90 90 90 90 90 90 90 90 90 90 90  ...............
  0000000140001460: 55 48 89 E5 48 83 EC 30 E8 F3 00 00 00 C7 45 FC  UH.H.0...E
  0000000140001470: 00 00 00 00 C7 45 FC 88 44 00 00 8B 45 FC 48 83  ....E.D...EH.
  0000000140001480: C4 30 5D C3 90 90 90 90 90 90 90 90 90 90 90 90  0]............
  0000000140001490: 48 83 EC 28 48 8B 05 65 1B 00 00 48 8B 00 48 85  H.(H..e...H..H.
  00000001400014A0: C0 74 2A 66 66 2E 0F 1F 84 00 00 00 00 00 66 90  t*ff.........f.
  00000001400014B0: FF D0 48 8B 05 47 1B 00 00 48 8D 50 08 48 8B 40  H..G...H.P.H.@
  00000001400014C0: 08 48 89 15 38 1B 00 00 48 85 C0 75 E3 48 83 C4  .H..8...H.uH.
  00000001400014D0: 28 C3 66 66 2E 0F 1F 84 00 00 00 00 00 0F 1F 00  (ff............
  00000001400014E0: 56 53 48 83 EC 28 48 8B 15 63 2E 00 00 48 8B 02  VSH.(H..c...H..
  00000001400014F0: 89 C1 83 F8 FF 74 39 85 C9 74 20 89 C8 83 E9 01  ..t9.t ...
  0000000140001500: 48 8D 1C C2 48 29 C8 48 8D 74 C2 F8 0F 1F 40 00  H..H)H.t..@.
  0000000140001510: FF 13 48 83 EB 08 48 39 F3 75 F5 48 8D 0D 6E FF  .H..H9uH..n
  0000000140001520: FF FF 48 83 C4 28 5B 5E E9 03 FF FF FF 0F 1F 00  H.([^....
  0000000140001530: 31 C0 66 66 2E 0F 1F 84 00 00 00 00 00 0F 1F 00  1ff............
  0000000140001540: 44 8D 40 01 89 C1 4A 83 3C C2 00 4C 89 C0 75 F0  D.@..J.<.L.u
  0000000140001550: EB A5 66 66 2E 0F 1F 84 00 00 00 00 00 0F 1F 00  ff............
  0000000140001560: 8B 05 CA 5A 00 00 85 C0 74 06 C3 0F 1F 44 00 00  ..Z...t...D..
  0000000140001570: C7 05 B6 5A 00 00 01 00 00 00 E9 61 FF FF FF 90  .Z......a.
  0000000140001580: 31 C0 C3 90 90 90 90 90 90 90 90 90 90 90 90 90  1.............
  0000000140001590: 83 FA 03 74 0B 85 D2 74 07 C3 66 0F 1F 44 00 00  ..t..t.f..D..
  00000001400015A0: E9 AB 0A 00 00 66 66 2E 0F 1F 84 00 00 00 00 00  ...ff.........
  00000001400015B0: 56 53 48 83 EC 28 48 8B 05 73 2D 00 00 83 38 02  VSH.(H..s-...8.
  00000001400015C0: 74 06 C7 00 02 00 00 00 83 FA 02 74 13 83 FA 01  t........t...
  00000001400015D0: 74 4E 48 83 C4 28 5B 5E C3 0F 1F 80 00 00 00 00  tNH.([^.......
  00000001400015E0: 48 8D 1D 71 7A 00 00 48 8D 35 6A 7A 00 00 48 39  H..qz..H.5jz..H9
  00000001400015F0: F3 74 DF 66 66 2E 0F 1F 84 00 00 00 00 00 66 90  tff.........f.
  0000000140001600: 48 8B 03 48 85 C0 74 02 FF D0 48 83 C3 08 48 39  H..H.t.H..H9
  0000000140001610: F3 75 ED 48 83 C4 28 5B 5E C3 66 0F 1F 44 00 00  uH.([^f..D..
  0000000140001620: 48 83 C4 28 5B 5E E9 25 0A 00 00 0F 1F 44 00 00  H.([^%.....D..
  0000000140001630: 31 C0 C3 90 90 90 90 90 90 90 90 90 90 90 90 90  1.............
  0000000140001640: 56 53 48 83 EC 78 0F 11 74 24 40 0F 11 7C 24 50  VSH.x..t$@..|$P
  0000000140001650: 44 0F 11 44 24 60 83 39 06 0F 87 CD 00 00 00 8B  D..D$`.9.......
  0000000140001660: 01 48 8D 15 1C 2B 00 00 48 63 04 82 48 01 D0 FF  .H...+..Hc..H.
  0000000140001670: E0 0F 1F 80 00 00 00 00 48 8D 1D 00 2A 00 00 F2  .......H...*..
  0000000140001680: 44 0F 10 41 20 F2 0F 10 79 18 F2 0F 10 71 10 48  D..A ..y...q.H
  0000000140001690: 8B 71 08 B9 02 00 00 00 E8 93 0F 00 00 F2 44 0F  .q.........D.
  00000001400016A0: 11 44 24 30 49 89 D8 48 8D 15 AA 2A 00 00 F2 0F  .D$0I.H..*...
  00000001400016B0: 11 7C 24 28 48 89 C1 49 89 F1 F2 0F 11 74 24 20  .|$(H.I...t$ 
  00000001400016C0: E8 EB 0F 00 00 90 0F 10 74 24 40 0F 10 7C 24 50  ......t$@..|$P
  00000001400016D0: 31 C0 44 0F 10 44 24 60 48 83 C4 78 5B 5E C3 90  1D..D$`H.x[^.
  00000001400016E0: 48 8D 1D 79 29 00 00 EB 96 0F 1F 80 00 00 00 00  H..y)..........
  00000001400016F0: 48 8D 1D C9 29 00 00 EB 86 0F 1F 80 00 00 00 00  H..)..........
  0000000140001700: 48 8D 1D 99 29 00 00 E9 73 FF FF FF 0F 1F 40 00  H...)..s..@.
  0000000140001710: 48 8D 1D F9 29 00 00 E9 63 FF FF FF 0F 1F 40 00  H..)..c..@.
  0000000140001720: 48 8D 1D C1 29 00 00 E9 53 FF FF FF 48 8D 1D 13  H..)..SH...
  0000000140001730: 2A 00 00 E9 47 FF FF FF 90 90 90 90 90 90 90 90  *..G........
  0000000140001740: DB E3 C3 90 90 90 90 90 90 90 90 90 90 90 90 90  .............
  0000000140001750: 56 53 48 83 EC 38 48 89 CB 48 8D 44 24 58 B9 02  VSH.8H.H.D$X.
  0000000140001760: 00 00 00 48 89 54 24 58 4C 89 44 24 60 4C 89 4C  ...H.T$XL.D$`L.L
  0000000140001770: 24 68 48 89 44 24 28 E8 B4 0E 00 00 41 B8 1B 00  $hH.D$(...A..
  0000000140001780: 00 00 BA 01 00 00 00 48 8D 0D 12 2A 00 00 49 89  ......H...*..I.
  0000000140001790: C1 E8 2A 0F 00 00 48 8B 74 24 28 B9 02 00 00 00  *...H.t$(....
  00000001400017A0: E8 8B 0E 00 00 48 89 DA 48 89 C1 49 89 F0 E8 3D  ....H.H.I.=
  00000001400017B0: 0F 00 00 E8 D8 0E 00 00 90 0F 1F 80 00 00 00 00  ..............
  00000001400017C0: 57 56 53 48 83 EC 50 48 63 35 D6 58 00 00 48 89  WVSH.PHc5X..H.
  00000001400017D0: CB 85 F6 0F 8E 17 01 00 00 48 8B 05 C8 58 00 00  .......H..X..
  00000001400017E0: 45 31 C9 48 83 C0 18 66 0F 1F 84 00 00 00 00 00  E1H..f........
  00000001400017F0: 4C 8B 00 4C 39 C3 72 13 48 8B 50 08 8B 52 08 49  L..L9r.H.P..R.I
  0000000140001800: 01 D0 4C 39 C3 0F 82 8A 00 00 00 41 83 C1 01 48  .L9......A..H
  0000000140001810: 83 C0 28 41 39 F1 75 D8 48 89 D9 E8 60 0A 00 00  .(A9uH.`...
  0000000140001820: 48 89 C7 48 85 C0 0F 84 E6 00 00 00 48 8B 05 75  H.H......H..u
  0000000140001830: 58 00 00 48 8D 1C B6 48 C1 E3 03 48 01 D8 48 89  X..H..H.H.H.
  0000000140001840: 78 20 C7 00 00 00 00 00 E8 73 0B 00 00 8B 57 0C  x .....s....W.
  0000000140001850: 41 B8 30 00 00 00 48 8D 0C 10 48 8B 05 47 58 00  A0...H...H..GX.
  0000000140001860: 00 48 8D 54 24 20 48 89 4C 18 18 FF 15 37 69 00  .H.T$ H.L...7i.
  0000000140001870: 00 48 85 C0 0F 84 7D 00 00 00 8B 44 24 44 8D 50  .H...}....D$D.P
  0000000140001880: FC 83 E2 FB 74 08 8D 50 C0 83 E2 BF 75 12 83 05  .t..P.u...
  0000000140001890: 0F 58 00 00 01 48 83 C4 50 5B 5E 5F C3 0F 1F 00  .X...H.P[^_...
  00000001400018A0: 83 F8 02 48 8B 4C 24 20 48 8B 54 24 38 41 B8 40  ..H.L$ H.T$8A@
  00000001400018B0: 00 00 00 B8 04 00 00 00 44 0F 44 C0 48 03 1D E5  .......D.DH..
  00000001400018C0: 57 00 00 48 89 4B 08 49 89 D9 48 89 53 10 FF 15  W..H.K.I.H.S..
  00000001400018D0: CC 68 00 00 85 C0 75 B6 FF 15 92 68 00 00 48 8D  h...u..h..H.
  00000001400018E0: 0D 33 29 00 00 89 C2 E8 64 FE FF FF 0F 1F 40 00  .3)...d..@.
  00000001400018F0: 31 F6 E9 21 FF FF FF 48 8B 05 AA 57 00 00 8B 57  1!H..W...W
  0000000140001900: 08 48 8D 0D D8 28 00 00 4C 8B 44 18 18 E8 3E FE  .H..(..L.D..>
  0000000140001910: FF FF 48 89 DA 48 8D 0D A4 28 00 00 E8 2F FE FF  H.H..(../
  0000000140001920: FF 90 66 66 2E 0F 1F 84 00 00 00 00 00 0F 1F 00  .ff............
  0000000140001930: 55 41 57 41 56 41 55 41 54 57 56 53 48 83 EC 48  UAWAVAUATWVSH.H
  0000000140001940: 48 8D 6C 24 40 44 8B 25 54 57 00 00 45 85 E4 74  H.l$@D.%TW..E.t
  0000000140001950: 17 48 8D 65 08 5B 5E 5F 41 5C 41 5D 41 5E 41 5F  .H.e.[^_A\A]A^A_
  0000000140001960: 5D C3 66 0F 1F 44 00 00 C7 05 2E 57 00 00 01 00  ]f..D....W....
  0000000140001970: 00 00 E8 89 09 00 00 48 98 48 8D 04 80 48 8D 04  ......H.H...H..
  0000000140001980: C5 0F 00 00 00 48 83 E0 F0 E8 D2 0B 00 00 4C 8B  ....H....L.
  0000000140001990: 2D DB 29 00 00 48 8B 1D E4 29 00 00 48 29 C4 C7  -)..H..)..H)
  00000001400019A0: 05 FB 56 00 00 00 00 00 00 48 8D 44 24 30 48 89  .V......H.D$0H.
  00000001400019B0: 05 F3 56 00 00 4C 89 E8 48 29 D8 48 83 F8 07 7E  .V..L.H)H..~
  00000001400019C0: 90 48 83 F8 0B 0F 8F 5D 01 00 00 8B 03 85 C0 0F  .H....].......
  00000001400019D0: 85 5B 02 00 00 8B 43 04 85 C0 0F 85 50 02 00 00  .[....C....P...
  00000001400019E0: 8B 53 08 83 FA 01 0F 85 9A 02 00 00 48 83 C3 0C  .S.........H..
  00000001400019F0: 4C 39 EB 0F 83 58 FF FF FF 4C 8B 35 60 29 00 00  L9..XL.5`)..
  0000000140001A00: 41 BF FF FF FF FF EB 6B 0F 1F 84 00 00 00 00 00  Ak........
  0000000140001A10: 83 F9 08 0F 84 37 01 00 00 83 F9 10 0F 85 40 02  ....7.......@.
  0000000140001A20: 00 00 0F B7 37 81 E2 C0 00 00 00 66 85 F6 0F 89  ...7....f...
  0000000140001A30: E4 01 00 00 48 81 CE 00 00 FF FF 48 29 C6 4C 01  ...H...H)L.
  0000000140001A40: CE 85 D2 75 1A 48 81 FE FF FF 00 00 0F 8F 1E 02  .u.H.......
  0000000140001A50: 00 00 48 81 FE 00 80 FF FF 0F 8C 11 02 00 00 48  ..H.........H
  0000000140001A60: 89 F9 E8 59 FD FF FF 66 89 37 48 83 C3 0C 4C 39  .Yf.7H..L9
  0000000140001A70: EB 73 5D 8B 03 8B 53 08 8B 7B 04 4C 01 F0 0F B6  s]...S..{.L..
  0000000140001A80: CA 4C 8B 08 4C 01 F7 83 F9 20 0F 84 10 01 00 00  L..L.. ......
  0000000140001A90: 0F 86 7A FF FF FF 83 F9 40 0F 85 C3 01 00 00 48  ..z.@.....H
  0000000140001AA0: 8B 37 48 29 C6 4C 01 CE 81 E2 C0 00 00 00 75 09  .7H)L.....u.
  0000000140001AB0: 48 85 F6 0F 89 B7 01 00 00 48 89 F9 48 83 C3 0C  H......H.H..
  0000000140001AC0: E8 FB FC FF FF 48 89 37 4C 39 EB 72 A6 0F 1F 00  H.7L9r...
  0000000140001AD0: 8B 0D CE 55 00 00 85 C9 0F 8E 73 FE FF FF 48 8B  ..U.....sH.
  0000000140001AE0: 35 BB 66 00 00 31 DB 48 8D 7D FC 0F 1F 44 00 00  5f..1H.}..D..
  0000000140001AF0: 48 8B 05 B1 55 00 00 48 01 D8 44 8B 00 45 85 C0  H..U..H.D..E.
  0000000140001B00: 74 0D 48 8B 50 10 48 8B 48 08 49 89 F9 FF D6 41  t.H.P.H.H.I.A
  0000000140001B10: 83 C4 01 48 83 C3 28 44 3B 25 86 55 00 00 7C D0  ..H.(D;%.U..|
  0000000140001B20: E9 2C FE FF FF 0F 1F 00 8B 13 85 D2 0F 85 FE 00  ,.........
  0000000140001B30: 00 00 8B 43 04 89 C1 0B 4B 08 0F 85 98 FE FF FF  ...C...K....
  0000000140001B40: 48 83 C3 0C E9 82 FE FF FF 0F 1F 80 00 00 00 00  H..........
  0000000140001B50: 0F B6 37 81 E2 C0 00 00 00 40 84 F6 0F 89 9E 00  .7....@.....
  0000000140001B60: 00 00 48 81 CE 00 FF FF FF 48 29 C6 4C 01 CE 85  ..H..H)L..
  0000000140001B70: D2 75 17 48 81 FE FF 00 00 00 0F 8F F0 00 00 00  u.H.........
  0000000140001B80: 48 83 FE 80 0F 8C E6 00 00 00 48 89 F9 E8 2E FC  H.......H..
  0000000140001B90: FF FF 40 88 37 E9 D0 FE FF FF 66 0F 1F 44 00 00  @.7f..D..
  0000000140001BA0: 8B 37 81 E2 C0 00 00 00 85 F6 79 44 49 BB 00 00  .7.....yDI..
  0000000140001BB0: 00 00 FF FF FF FF 4C 09 DE 48 29 C6 4C 01 CE 85  ..L.H)L..
  0000000140001BC0: D2 75 1C 4C 39 FE 0F 8F A4 00 00 00 48 B8 FF FF  u.L9.....H
  0000000140001BD0: FF 7F FF FF FF FF 48 39 C6 0F 8E 91 00 00 00 48  .H9......H
  0000000140001BE0: 89 F9 E8 D9 FB FF FF 89 37 E9 7C FE FF FF 66 90  ..7|f.
  0000000140001BF0: 48 29 C6 4C 01 CE 85 D2 74 C9 EB E3 0F 1F 40 00  H)L..t..@.
  0000000140001C00: 48 29 C6 4C 01 CE 85 D2 0F 84 65 FF FF FF E9 77  H)L....ew
  0000000140001C10: FF FF FF 0F 1F 44 00 00 48 29 C6 4C 01 CE 85 D2  ..D..H)L..
  0000000140001C20: 0F 84 1F FE FF FF E9 34 FE FF FF 0F 1F 44 00 00  ...4..D..
  0000000140001C30: 4C 39 EB 0F 83 18 FD FF FF 4C 8B 35 20 27 00 00  L9...L.5 '..
  0000000140001C40: 8B 73 04 8B 3B 48 83 C3 08 4C 01 F6 03 3E 48 89  .s..;H..L..>H.
  0000000140001C50: F1 E8 6A FB FF FF 89 3E 4C 39 EB 72 E3 E9 6E FE  j.>L9rn
  0000000140001C60: FF FF 89 CA 48 8D 0D 0D 26 00 00 E8 E0 FA FF FF  .H...&..
  0000000140001C70: 48 89 74 24 20 89 CA 49 89 F8 48 8D 0D 27 26 00  H.t$ .I.H..'&.
  0000000140001C80: 00 E8 CA FA FF FF 48 8D 0D B3 25 00 00 E8 BE FA  .H..%..
  0000000140001C90: FF FF 90 90 90 90 90 90 90 90 90 90 90 90 90 90  ..............
  0000000140001CA0: 48 83 EC 58 48 8B 05 05 54 00 00 66 0F 14 D3 48  H.XH...T..f..H
  0000000140001CB0: 85 C0 74 25 F2 0F 10 84 24 80 00 00 00 89 4C 24  .t%...$.....L$
  0000000140001CC0: 20 48 8D 4C 24 20 48 89 54 24 28 0F 11 54 24 30   H.L$ H.T$(..T$0
  0000000140001CD0: F2 0F 11 44 24 40 FF D0 90 48 83 C4 58 C3 66 90  ..D$@.H.Xf.
  0000000140001CE0: 48 89 0D C9 53 00 00 E9 84 09 00 00 90 90 90 90  H..S..........
  0000000140001CF0: 53 48 83 EC 20 48 8B 11 8B 02 48 89 CB 89 C1 81  SH. H....H...
  0000000140001D00: E1 FF FF FF 20 81 F9 43 43 47 20 0F 84 8F 00 00   .CCG .....
  0000000140001D10: 00 3D 96 00 00 C0 77 47 3D 8B 00 00 C0 76 61 05  .=...wG=...va.
  0000000140001D20: 73 FF FF 3F 83 F8 09 77 6B 48 8D 15 D0 25 00 00  s?..wkH..%..
  0000000140001D30: 48 63 04 82 48 01 D0 FF E0 0F 1F 80 00 00 00 00  Hc..H........
  0000000140001D40: 31 D2 B9 08 00 00 00 E8 8C 09 00 00 48 83 F8 01  1........H..
  0000000140001D50: 0F 84 3E 01 00 00 48 85 C0 0F 85 01 01 00 00 48  ..>...H.......H
  0000000140001D60: 8B 05 6A 53 00 00 48 85 C0 74 45 48 89 D9 48 83  ..jS..H.tEH.H.
  0000000140001D70: C4 20 5B 48 FF E0 66 2E 0F 1F 84 00 00 00 00 00   [Hf.........
  0000000140001D80: 3D 05 00 00 C0 0F 84 A5 00 00 00 77 33 3D 02 00  =........w3=..
  0000000140001D90: 00 80 75 CB B8 FF FF FF FF 48 83 C4 20 5B C3 90  ..uH. [.
  0000000140001DA0: F6 42 04 01 0F 85 67 FF FF FF EB E8 0F 1F 40 00  B....g..@.
  0000000140001DB0: 31 C0 48 83 C4 20 5B C3 0F 1F 84 00 00 00 00 00  1H. [........
  0000000140001DC0: 3D 08 00 00 C0 74 CD 3D 1D 00 00 C0 75 91 31 D2  =...t=...u.1
  0000000140001DD0: B9 04 00 00 00 E8 FE 08 00 00 48 83 F8 01 0F 84  .......H....
  0000000140001DE0: 9C 00 00 00 48 85 C0 0F 84 72 FF FF FF B9 04 00  ....H...r..
  0000000140001DF0: 00 00 FF D0 EB 9E 66 2E 0F 1F 84 00 00 00 00 00  ...f.........
  0000000140001E00: 31 D2 B9 08 00 00 00 E8 CC 08 00 00 48 83 F8 01  1.......H..
  0000000140001E10: 0F 85 40 FF FF FF BA 01 00 00 00 B9 08 00 00 00  ..@........
  0000000140001E20: E8 B3 08 00 00 E9 6A FF FF FF 66 0F 1F 44 00 00  ...jf..D..
  0000000140001E30: 31 D2 B9 0B 00 00 00 E8 9C 08 00 00 48 83 F8 01  1........H..
  0000000140001E40: 74 2A 48 85 C0 0F 84 14 FF FF FF B9 0B 00 00 00  t*H........
  0000000140001E50: FF D0 E9 3D FF FF FF 66 0F 1F 84 00 00 00 00 00  =f........
  0000000140001E60: B9 08 00 00 00 FF D0 E9 28 FF FF FF BA 01 00 00  ....(...
  0000000140001E70: 00 B9 0B 00 00 00 E8 5D 08 00 00 E9 14 FF FF FF  .....]....
  0000000140001E80: BA 01 00 00 00 B9 04 00 00 00 E8 49 08 00 00 E9  ........I...
  0000000140001E90: 00 FF FF FF BA 01 00 00 00 B9 08 00 00 00 E8 35  .........5
  0000000140001EA0: 08 00 00 E8 98 F8 FF FF E9 E7 FE FF FF 90 90 90  .......
  0000000140001EB0: 66 2E 0F 1F 84 00 00 00 00 00 66 0F 1F 44 00 00  f.........f..D..
  0000000140001EC0: 41 54 55 57 56 53 48 83 EC 20 4C 8D 25 2F 52 00  ATUWVSH. L.%/R.
  0000000140001ED0: 00 4C 89 E1 FF 15 8E 62 00 00 48 8B 1D FF 51 00  .L...b..H..Q.
  0000000140001EE0: 00 48 85 DB 74 3E 48 8B 2D AB 62 00 00 48 8B 3D  .H.t>H.-b..H.=
  0000000140001EF0: 7C 62 00 00 66 66 2E 0F 1F 84 00 00 00 00 00 90  |b..ff..........
  0000000140001F00: 8B 0B FF D5 48 89 C6 FF D7 48 85 F6 74 0D 85 C0  ..H.H.t..
  0000000140001F10: 75 09 48 8B 43 08 48 89 F1 FF D0 48 8B 5B 10 48  u.H.C.H.H.[.H
  0000000140001F20: 85 DB 75 DC 4C 89 E1 48 83 C4 20 5B 5E 5F 5D 41  .uL.H. [^_]A
  0000000140001F30: 5C 48 FF 25 48 62 00 00 0F 1F 84 00 00 00 00 00  \H%Hb..........
  0000000140001F40: 57 56 53 48 83 EC 20 8B 05 9B 51 00 00 89 CF 48  WVSH. ...Q...H
  0000000140001F50: 89 D6 85 C0 75 0A 31 C0 48 83 C4 20 5B 5E 5F C3  ..u.1H. [^_
  0000000140001F60: BA 18 00 00 00 B9 01 00 00 00 E8 31 07 00 00 48  ........1...H
  0000000140001F70: 89 C3 48 85 C0 74 33 48 89 70 08 48 8D 35 7E 51  .H.t3H.p.H.5~Q
  0000000140001F80: 00 00 89 38 48 89 F1 FF 15 DB 61 00 00 48 8B 05  ...8H..a..H..
  0000000140001F90: 4C 51 00 00 48 89 F1 48 89 1D 42 51 00 00 48 89  LQ..H.H..BQ..H.
  0000000140001FA0: 43 10 FF 15 D8 61 00 00 EB AC 83 C8 FF EB A9 90  C..a....
  0000000140001FB0: 56 53 48 83 EC 28 8B 05 2C 51 00 00 89 CB 85 C0  VSH.(..,Q....
  0000000140001FC0: 75 0E 31 C0 48 83 C4 28 5B 5E C3 0F 1F 44 00 00  u.1H.([^..D..
  0000000140001FD0: 48 8D 35 29 51 00 00 48 89 F1 FF 15 88 61 00 00  H.5)Q..H...a..
  0000000140001FE0: 48 8B 0D F9 50 00 00 48 85 C9 74 37 31 D2 EB 1B  H..P..H.t71.
  0000000140001FF0: 66 66 2E 0F 1F 84 00 00 00 00 00 0F 1F 44 00 00  ff...........D..
  0000000140002000: 48 89 CA 48 85 C0 74 1B 48 89 C1 8B 01 39 D8 48  H.H.t.H...9H
  0000000140002010: 8B 41 10 75 EB 48 85 D2 74 1E 48 89 42 10 E8 95  .A.uH.t.H.B..
  0000000140002020: 06 00 00 48 89 F1 FF 15 54 61 00 00 31 C0 48 83  ...H..Ta..1H.
  0000000140002030: C4 28 5B 5E C3 0F 1F 00 48 89 05 A1 50 00 00 EB  ([^...H..P..
  0000000140002040: DD 66 66 2E 0F 1F 84 00 00 00 00 00 0F 1F 40 00  ff...........@.
  0000000140002050: 53 48 83 EC 20 83 FA 02 0F 84 C2 00 00 00 77 30  SH. .......w0
  0000000140002060: 85 D2 74 4C 8B 05 7E 50 00 00 85 C0 0F 84 CE 00  .tL..~P......
  0000000140002070: 00 00 C7 05 6C 50 00 00 01 00 00 00 B8 01 00 00  ...lP.........
  0000000140002080: 00 48 83 C4 20 5B C3 66 0F 1F 84 00 00 00 00 00  .H. [f........
  0000000140002090: 83 FA 03 75 E7 8B 05 4D 50 00 00 85 C0 74 DD E8  ..u..MP...t
  00000001400020A0: 1C FE FF FF EB D6 66 2E 0F 1F 84 00 00 00 00 00  .f.........
  00000001400020B0: 8B 05 32 50 00 00 85 C0 75 76 8B 05 28 50 00 00  ..2P...uv..(P..
  00000001400020C0: 83 F8 01 75 B7 48 8B 1D 14 50 00 00 48 85 DB 74  ..uH...P..H.t
  00000001400020D0: 20 66 66 2E 0F 1F 84 00 00 00 00 00 0F 1F 40 00   ff...........@.
  00000001400020E0: 48 89 D9 48 8B 5B 10 E8 CC 05 00 00 48 85 DB 75  H.H.[....H.u
  00000001400020F0: EF 48 8D 0D 08 50 00 00 48 C7 05 DD 4F 00 00 00  H...P..H.O...
  0000000140002100: 00 00 00 C7 05 DB 4F 00 00 00 00 00 00 FF 15 4D  ....O.......M
  0000000140002110: 60 00 00 E9 64 FF FF FF 0F 1F 84 00 00 00 00 00  `..d........
  0000000140002120: E8 1B F6 FF FF B8 01 00 00 00 48 83 C4 20 5B C3  .....H. [
  0000000140002130: E8 8B FD FF FF EB 83 66 0F 1F 84 00 00 00 00 00  ..f........
  0000000140002140: 48 8D 0D B9 4F 00 00 FF 15 2B 60 00 00 E9 20 FF  H..O...+`.. 
  0000000140002150: FF FF 90 90 90 90 90 90 90 90 90 90 90 90 90 90  ..............
  0000000140002160: 31 C0 66 81 39 4D 5A 75 0F 48 63 51 3C 48 01 D1  1f.9MZu.HcQ<H.
  0000000140002170: 81 39 50 45 00 00 74 08 C3 0F 1F 80 00 00 00 00  .9PE..t........
  0000000140002180: 31 C0 66 81 79 18 0B 02 0F 94 C0 C3 0F 1F 40 00  1f.y.......@.
  0000000140002190: 48 63 41 3C 48 01 C1 0F B7 41 14 44 0F B7 41 06  HcA<H..A.D.A.
  00000001400021A0: 48 8D 44 01 18 66 45 85 C0 74 32 41 8D 48 FF 48  H.D..fE.t2A.HH
  00000001400021B0: 8D 0C 89 4C 8D 4C C8 28 0F 1F 84 00 00 00 00 00  ...L.L(........
  00000001400021C0: 44 8B 40 0C 4C 89 C1 4C 39 C2 72 08 03 48 08 48  D.@.L.L9r..H.H
  00000001400021D0: 39 CA 72 0B 48 83 C0 28 4C 39 C8 75 E3 31 C0 C3  9r.H.(L9u1
  00000001400021E0: 57 56 53 48 83 EC 20 48 89 CE E8 F1 04 00 00 48  WVSH. H....H
  00000001400021F0: 83 F8 08 77 7B 48 8B 15 64 21 00 00 31 DB 66 81  ..w{H..d!..1f.
  0000000140002200: 3A 4D 5A 75 59 48 63 42 3C 48 01 D0 81 38 50 45  :MZuYHcB<H..8PE
  0000000140002210: 00 00 75 4A 66 81 78 18 0B 02 75 42 0F B7 50 14  ..uJf.x...uB.P.
  0000000140002220: 48 8D 5C 10 18 0F B7 50 06 66 85 D2 74 42 8D 42  H.\...P.f.tB.B
  0000000140002230: FF 48 8D 04 80 48 8D 7C C3 28 EB 0D 0F 1F 40 00  H...H.|(...@.
  0000000140002240: 48 83 C3 28 48 39 FB 74 27 41 B8 08 00 00 00 48  H.(H9t'A....H
  0000000140002250: 89 F2 48 89 D9 E8 8E 04 00 00 85 C0 75 E2 48 89  .H......uH.
  0000000140002260: D8 48 83 C4 20 5B 5E 5F C3 0F 1F 80 00 00 00 00  H. [^_.......
  0000000140002270: 31 DB 48 89 D8 48 83 C4 20 5B 5E 5F C3 0F 1F 00  1H.H. [^_...
  0000000140002280: 48 8B 15 D9 20 00 00 31 C0 66 81 3A 4D 5A 75 10  H.. ..1f.:MZu.
  0000000140002290: 4C 63 42 3C 49 01 D0 41 81 38 50 45 00 00 74 08  LcB<I.A.8PE..t.
  00000001400022A0: C3 0F 1F 80 00 00 00 00 66 41 81 78 18 0B 02 75  .......fA.x...u
  00000001400022B0: EF 41 0F B7 40 14 48 29 D1 49 8D 44 00 18 45 0F  A.@.H)I.D..E.
  00000001400022C0: B7 40 06 66 45 85 C0 74 34 41 8D 50 FF 48 8D 14  @.fE.t4A.PH..
  00000001400022D0: 92 4C 8D 4C D0 28 66 2E 0F 1F 84 00 00 00 00 00  .L.L(f.........
  00000001400022E0: 44 8B 40 0C 4C 89 C2 4C 39 C1 72 08 03 50 08 48  D.@.L.L9r..P.H
  00000001400022F0: 39 D1 72 AC 48 83 C0 28 4C 39 C8 75 E3 31 C0 C3  9rH.(L9u1
  0000000140002300: 48 8B 05 59 20 00 00 31 C9 66 81 38 4D 5A 75 0F  H..Y ..1f.8MZu.
  0000000140002310: 48 63 50 3C 48 01 D0 81 38 50 45 00 00 74 09 89  HcP<H..8PE..t..
  0000000140002320: C8 C3 66 0F 1F 44 00 00 66 81 78 18 0B 02 75 EF  f..D..f.x...u
  0000000140002330: 0F B7 48 06 89 C8 C3 66 0F 1F 84 00 00 00 00 00  .H..f........
  0000000140002340: 4C 8B 05 19 20 00 00 31 C0 66 41 81 38 4D 5A 75  L... ..1fA.8MZu
  0000000140002350: 0F 49 63 50 3C 4C 01 C2 81 3A 50 45 00 00 74 08  .IcP<L..:PE..t.
  0000000140002360: C3 0F 1F 80 00 00 00 00 66 81 7A 18 0B 02 75 F0  .......f.z...u
  0000000140002370: 0F B7 42 14 44 0F B7 42 06 48 8D 44 02 18 66 45  .B.D.B.H.D..fE
  0000000140002380: 85 C0 74 34 41 8D 50 FF 48 8D 14 92 48 8D 54 D0  .t4A.PH...H.T
  0000000140002390: 28 66 66 2E 0F 1F 84 00 00 00 00 00 0F 1F 40 00  (ff...........@.
  00000001400023A0: F6 40 27 20 74 09 48 85 C9 74 B5 48 83 E9 01 48  @' t.H.tH..H
  00000001400023B0: 83 C0 28 48 39 C2 75 E8 31 C0 C3 0F 1F 44 00 00  .(H9u1..D..
  00000001400023C0: 48 8B 05 99 1F 00 00 31 D2 66 81 38 4D 5A 75 0F  H......1f.8MZu.
  00000001400023D0: 48 63 48 3C 48 01 C1 81 39 50 45 00 00 74 09 48  HcH<H..9PE..t.H
  00000001400023E0: 89 D0 C3 0F 1F 44 00 00 66 81 79 18 0B 02 48 0F  ...D..f.y...H.
  00000001400023F0: 44 D0 48 89 D0 C3 66 2E 0F 1F 84 00 00 00 00 00  DH.f.........
  0000000140002400: 48 8B 15 59 1F 00 00 31 C0 66 81 3A 4D 5A 75 10  H..Y...1f.:MZu.
  0000000140002410: 4C 63 42 3C 49 01 D0 41 81 38 50 45 00 00 74 08  LcB<I.A.8PE..t.
  0000000140002420: C3 0F 1F 80 00 00 00 00 66 41 81 78 18 0B 02 75  .......fA.x...u
  0000000140002430: EF 48 29 D1 45 0F B7 48 06 41 0F B7 50 14 49 8D  H)E.H.A.P.I.
  0000000140002440: 54 10 18 66 45 85 C9 74 D7 41 8D 41 FF 48 8D 04  T..fE.tA.AH..
  0000000140002450: 80 4C 8D 4C C2 28 66 2E 0F 1F 84 00 00 00 00 00  .L.L(f.........
  0000000140002460: 44 8B 42 0C 4C 89 C0 4C 39 C1 72 08 03 42 08 48  D.B.L.L9r..B.H
  0000000140002470: 39 C1 72 0C 48 83 C2 28 49 39 D1 75 E3 31 C0 C3  9r.H.(I9u1
  0000000140002480: 8B 42 24 F7 D0 C1 E8 1F C3 0F 1F 80 00 00 00 00  .B$........
  0000000140002490: 4C 8B 1D C9 1E 00 00 45 31 C9 66 41 81 3B 4D 5A  L.....E1fA.;MZ
  00000001400024A0: 75 10 4D 63 43 3C 4D 01 D8 41 81 38 50 45 00 00  u.McC<M.A.8PE..
  00000001400024B0: 74 0E 4C 89 C8 C3 66 2E 0F 1F 84 00 00 00 00 00  t.L.f.........
  00000001400024C0: 66 41 81 78 18 0B 02 75 E9 41 8B 80 90 00 00 00  fA.x...uA......
  00000001400024D0: 85 C0 74 DE 41 0F B7 50 14 45 0F B7 50 06 49 8D  .tA.P.E.P.I.
  00000001400024E0: 54 10 18 66 45 85 D2 74 C9 45 8D 42 FF 4F 8D 04  T..fE.tE.BO..
  00000001400024F0: 80 4E 8D 54 C2 28 66 2E 0F 1F 84 00 00 00 00 00  .N.T(f.........
  0000000140002500: 44 8B 4A 0C 4D 89 C8 4C 39 C8 72 09 44 03 42 08  D.J.M.L9r.D.B.
  0000000140002510: 4C 39 C0 72 13 48 83 C2 28 49 39 D2 75 E2 45 31  L9r.H.(I9uE1
  0000000140002520: C9 4C 89 C8 C3 0F 1F 00 4C 01 D8 EB 0A 0F 1F 00  L....L.....
  0000000140002530: 83 E9 01 48 83 C0 14 44 8B 40 04 45 85 C0 75 07  ..H..D.@.E.u.
  0000000140002540: 8B 50 0C 85 D2 74 D7 85 C9 7F E5 44 8B 48 0C 4D  .P..t..D.H.M
  0000000140002550: 01 D9 4C 89 C8 C3 90 90 90 90 90 90 90 90 90 90  .L...........
  0000000140002560: 51 50 48 3D 00 10 00 00 48 8D 4C 24 18 72 19 48  QPH=....H.L$.r.H
  0000000140002570: 81 E9 00 10 00 00 48 83 09 00 48 2D 00 10 00 00  .....H...H-....
  0000000140002580: 48 3D 00 10 00 00 77 E7 48 29 C1 48 83 09 00 58  H=....wH)H...X
  0000000140002590: 59 C3 90 90 90 90 90 90 90 90 90 90 90 90 90 90  Y..............
  00000001400025A0: 56 53 48 83 EC 28 48 89 CB 48 89 D6 48 39 D1 73  VSH.(H.H.H9s
  00000001400025B0: 26 66 66 2E 0F 1F 84 00 00 00 00 00 0F 1F 40 00  &ff...........@.
  00000001400025C0: 48 8B 03 48 85 C0 74 06 FF D0 85 C0 75 0B 48 83  H..H.t..u.H.
  00000001400025D0: C3 08 48 39 F3 72 E9 31 C0 48 83 C4 28 5B 5E C3  .H9r1H.([^
  00000001400025E0: 48 8B 05 D9 1D 00 00 48 8B 00 C3 90 90 90 90 90  H.....H.......
  00000001400025F0: 48 8B 05 B9 1D 00 00 48 8B 00 C3 90 90 90 90 90  H.....H.......
  0000000140002600: 48 8B 05 99 1D 00 00 48 8B 00 C3 90 90 90 90 90  H......H.......
  0000000140002610: 48 8B 05 59 4B 00 00 C3 0F 1F 84 00 00 00 00 00  H..YK..........
  0000000140002620: 48 89 C8 48 87 05 46 4B 00 00 C3 90 90 90 90 90  H.H..FK.......
  0000000140002630: 53 48 83 EC 20 89 CB E8 24 00 00 00 89 D9 48 8D  SH. .$....H.
  0000000140002640: 14 49 48 C1 E2 04 48 01 D0 48 83 C4 20 5B C3 90  .IH.H.H. [.
  0000000140002650: FF 25 62 5B 00 00 90 90 FF 25 62 5B 00 00 90 90  %b[....%b[....
  0000000140002660: FF 25 6A 5B 00 00 90 90 FF 25 6A 5B 00 00 90 90  %j[....%j[....
  0000000140002670: FF 25 6A 5B 00 00 90 90 FF 25 6A 5B 00 00 90 90  %j[....%j[....
  0000000140002680: FF 25 6A 5B 00 00 90 90 FF 25 7A 5B 00 00 90 90  %j[....%z[....
  0000000140002690: FF 25 7A 5B 00 00 90 90 FF 25 7A 5B 00 00 90 90  %z[....%z[....
  00000001400026A0: FF 25 7A 5B 00 00 90 90 FF 25 7A 5B 00 00 90 90  %z[....%z[....
  00000001400026B0: FF 25 7A 5B 00 00 90 90 FF 25 7A 5B 00 00 90 90  %z[....%z[....
  00000001400026C0: FF 25 7A 5B 00 00 90 90 FF 25 7A 5B 00 00 90 90  %z[....%z[....
  00000001400026D0: FF 25 7A 5B 00 00 90 90 FF 25 7A 5B 00 00 90 90  %z[....%z[....
  00000001400026E0: FF 25 7A 5B 00 00 90 90 FF 25 7A 5B 00 00 90 90  %z[....%z[....
  00000001400026F0: FF 25 7A 5B 00 00 90 90 0F 1F 84 00 00 00 00 00  %z[............
  0000000140002700: FF 25 A2 5A 00 00 90 90 FF 25 92 5A 00 00 90 90  %Z....%.Z....
  0000000140002710: FF 25 82 5A 00 00 90 90 FF 25 72 5A 00 00 90 90  %.Z....%rZ....
  0000000140002720: FF 25 62 5A 00 00 90 90 FF 25 52 5A 00 00 90 90  %bZ....%RZ....
  0000000140002730: FF 25 42 5A 00 00 90 90 FF 25 32 5A 00 00 90 90  %BZ....%2Z....
  0000000140002740: FF 25 22 5A 00 00 90 90 FF 25 12 5A 00 00 90 90  %"Z....%.Z....
  0000000140002750: E9 EB EC FF FF 90 90 90 90 90 90 90 90 90 90 90  ...........
  0000000140002760: FF FF FF FF FF FF FF FF 50 27 00 40 01 00 00 00  P'.@....
  0000000140002770: 00 00 00 00 00 00 00 00 FF FF FF FF FF FF FF FF  ........
  0000000140002780: 00 00 00 00 00 00 00 00                          ........

RAW DATA #2
  0000000140003000: 80 27 00 40 01 00 00 00 00 00 00 00 00 00 00 00  .'.@............
  0000000140003010: FF FF FF FF FF FF FF FF 00 00 00 00 00 00 00 00  ........
  0000000140003020: 02 00 00 00 00 00 00 00 00 00 00 00 00 00 00 00  ................
  0000000140003030: FF FF FF FF 00 00 00 00 00 00 00 00 00 00 00 00  ............
  0000000140003040: A0 25 00 40 01 00 00 00 00 00 00 00 00 00 00 00  .%.@............
  0000000140003050: E0 25 00 40 01 00 00 00 00 00 00 00 00 00 00 00  %.@............
  0000000140003060: F0 25 00 40 01 00 00 00 00 00 00 00 00 00 00 00  %.@............
  0000000140003070: 00 26 00 40 01 00 00 00 00 00 00 00 00 00 00 00  .&.@............
  0000000140003080: 10 26 00 40 01 00 00 00 20 26 00 40 01 00 00 00  .&.@.... &.@....
  0000000140003090: 30 26 00 40 01 00 00 00 00 00 00 00 00 00 00 00  0&.@............

RAW DATA #3
  0000000140004000: B0 15 00 40 01 00 00 00 00 00 00 00 00 00 00 00  ..@............
  0000000140004010: 00 00 00 00 00 00 00 00 00 00 00 00 00 00 00 00  ................
  0000000140004020: 00 A0 00 40 01 00 00 00 08 A0 00 40 01 00 00 00  ...@.......@....
  0000000140004030: 7C 70 00 40 01 00 00 00 38 90 00 40 01 00 00 00  |p.@....8..@....
  0000000140004040: 00 00 00 00 00 00 00 00 00 00 00 00 00 00 00 00  ................
  0000000140004050: 00 00 00 00 00 00 00 00 00 00 00 00 00 00 00 00  ................
  0000000140004060: 41 72 67 75 6D 65 6E 74 20 64 6F 6D 61 69 6E 20  Argument domain 
  0000000140004070: 65 72 72 6F 72 20 28 44 4F 4D 41 49 4E 29 00 41  error (DOMAIN).A
  0000000140004080: 72 67 75 6D 65 6E 74 20 73 69 6E 67 75 6C 61 72  rgument singular
  0000000140004090: 69 74 79 20 28 53 49 47 4E 29 00 00 00 00 00 00  ity (SIGN)......
  00000001400040A0: 4F 76 65 72 66 6C 6F 77 20 72 61 6E 67 65 20 65  Overflow range e
  00000001400040B0: 72 72 6F 72 20 28 4F 56 45 52 46 4C 4F 57 29 00  rror (OVERFLOW).
  00000001400040C0: 50 61 72 74 69 61 6C 20 6C 6F 73 73 20 6F 66 20  Partial loss of 
  00000001400040D0: 73 69 67 6E 69 66 69 63 61 6E 63 65 20 28 50 4C  significance (PL
  00000001400040E0: 4F 53 53 29 00 00 00 00 54 6F 74 61 6C 20 6C 6F  OSS)....Total lo
  00000001400040F0: 73 73 20 6F 66 20 73 69 67 6E 69 66 69 63 61 6E  ss of significan
  0000000140004100: 63 65 20 28 54 4C 4F 53 53 29 00 00 00 00 00 00  ce (TLOSS)......
  0000000140004110: 54 68 65 20 72 65 73 75 6C 74 20 69 73 20 74 6F  The result is to
  0000000140004120: 6F 20 73 6D 61 6C 6C 20 74 6F 20 62 65 20 72 65  o small to be re
  0000000140004130: 70 72 65 73 65 6E 74 65 64 20 28 55 4E 44 45 52  presented (UNDER
  0000000140004140: 46 4C 4F 57 29 00 55 6E 6B 6E 6F 77 6E 20 65 72  FLOW).Unknown er
  0000000140004150: 72 6F 72 00 00 00 00 00 5F 6D 61 74 68 65 72 72  ror....._matherr
  0000000140004160: 28 29 3A 20 25 73 20 69 6E 20 25 73 28 25 67 2C  (): %s in %s(%g,
  0000000140004170: 20 25 67 29 20 20 28 72 65 74 76 61 6C 3D 25 67   %g)  (retval=%g
  0000000140004180: 29 0A 00 00 A8 D5 FF FF 5C D5 FF FF F4 D4 FF FF  )...\
  0000000140004190: 7C D5 FF FF 8C D5 FF FF 9C D5 FF FF 6C D5 FF FF  |..l
  00000001400041A0: 4D 69 6E 67 77 2D 77 36 34 20 72 75 6E 74 69 6D  Mingw-w64 runtim
  00000001400041B0: 65 20 66 61 69 6C 75 72 65 3A 0A 00 00 00 00 00  e failure:......
  00000001400041C0: 41 64 64 72 65 73 73 20 25 70 20 68 61 73 20 6E  Address %p has n
  00000001400041D0: 6F 20 69 6D 61 67 65 2D 73 65 63 74 69 6F 6E 00  o image-section.
  00000001400041E0: 20 20 56 69 72 74 75 61 6C 51 75 65 72 79 20 66    VirtualQuery f
  00000001400041F0: 61 69 6C 65 64 20 66 6F 72 20 25 64 20 62 79 74  ailed for %d byt
  0000000140004200: 65 73 20 61 74 20 61 64 64 72 65 73 73 20 25 70  es at address %p
  0000000140004210: 00 00 00 00 00 00 00 00 20 20 56 69 72 74 75 61  ........  Virtua
  0000000140004220: 6C 50 72 6F 74 65 63 74 20 66 61 69 6C 65 64 20  lProtect failed 
  0000000140004230: 77 69 74 68 20 63 6F 64 65 20 30 78 25 78 00 00  with code 0x%x..
  0000000140004240: 20 20 55 6E 6B 6E 6F 77 6E 20 70 73 65 75 64 6F    Unknown pseudo
  0000000140004250: 20 72 65 6C 6F 63 61 74 69 6F 6E 20 70 72 6F 74   relocation prot
  0000000140004260: 6F 63 6F 6C 20 76 65 72 73 69 6F 6E 20 25 64 2E  ocol version %d.
  0000000140004270: 0A 00 00 00 00 00 00 00 20 20 55 6E 6B 6E 6F 77  ........  Unknow
  0000000140004280: 6E 20 70 73 65 75 64 6F 20 72 65 6C 6F 63 61 74  n pseudo relocat
  0000000140004290: 69 6F 6E 20 62 69 74 20 73 69 7A 65 20 25 64 2E  ion bit size %d.
  00000001400042A0: 0A 00 00 00 00 00 00 00 25 64 20 62 69 74 20 70  ........%d bit p
  00000001400042B0: 73 65 75 64 6F 20 72 65 6C 6F 63 61 74 69 6F 6E  seudo relocation
  00000001400042C0: 20 61 74 20 25 70 20 6F 75 74 20 6F 66 20 72 61   at %p out of ra
  00000001400042D0: 6E 67 65 2C 20 74 61 72 67 65 74 69 6E 67 20 25  nge, targeting %
  00000001400042E0: 70 2C 20 79 69 65 6C 64 69 6E 67 20 74 68 65 20  p, yielding the 
  00000001400042F0: 76 61 6C 75 65 20 25 70 2E 0A 00 00 00 00 00 00  value %p........
  0000000140004300: 40 DA FF FF 40 DA FF FF 40 DA FF FF 40 DA FF FF  @@@@
  0000000140004310: 40 DA FF FF 94 DA FF FF 40 DA FF FF 00 DB FF FF  @.@.
  0000000140004320: 94 DA FF FF CE DA FF FF 00 00 00 00 00 00 00 00  .........
  0000000140004330: 20 30 00 40 01 00 00 00 00 00 00 00 00 00 00 00   0.@............
  0000000140004340: 30 30 00 40 01 00 00 00 00 00 00 00 00 00 00 00  00.@............
  0000000140004350: 60 27 00 40 01 00 00 00 00 00 00 00 00 00 00 00  `'.@............
  0000000140004360: 00 00 00 40 01 00 00 00 00 00 00 00 00 00 00 00  ...@............
  0000000140004370: B0 4A 00 40 01 00 00 00 00 00 00 00 00 00 00 00  J.@............
  0000000140004380: B0 4A 00 40 01 00 00 00 00 00 00 00 00 00 00 00  J.@............
  0000000140004390: 00 40 00 40 01 00 00 00 00 00 00 00 00 00 00 00  .@.@............
  00000001400043A0: C8 81 00 40 01 00 00 00 00 00 00 00 00 00 00 00  ..@............
  00000001400043B0: F8 81 00 40 01 00 00 00 00 00 00 00 00 00 00 00  ..@............
  00000001400043C0: 00 82 00 40 01 00 00 00 00 00 00 00 00 00 00 00  ...@............
  00000001400043D0: 90 70 00 40 01 00 00 00 00 00 00 00 00 00 00 00  .p.@............
  00000001400043E0: 78 70 00 40 01 00 00 00 00 00 00 00 00 00 00 00  xp.@............
  00000001400043F0: 74 70 00 40 01 00 00 00 00 00 00 00 00 00 00 00  tp.@............
  0000000140004400: 70 70 00 40 01 00 00 00 00 00 00 00 00 00 00 00  pp.@............
  0000000140004410: D0 70 00 40 01 00 00 00 00 00 00 00 00 00 00 00  p.@............
  0000000140004420: 40 70 00 40 01 00 00 00 00 00 00 00 00 00 00 00  @p.@............
  0000000140004430: 48 70 00 40 01 00 00 00 00 00 00 00 00 00 00 00  Hp.@............
  0000000140004440: 00 90 00 40 01 00 00 00 00 00 00 00 00 00 00 00  ...@............
  0000000140004450: 10 90 00 40 01 00 00 00 00 00 00 00 00 00 00 00  ...@............
  0000000140004460: 18 90 00 40 01 00 00 00 00 00 00 00 00 00 00 00  ...@............
  0000000140004470: 28 90 00 40 01 00 00 00 00 00 00 00 00 00 00 00  (..@............
  0000000140004480: 80 70 00 40 01 00 00 00 00 00 00 00 00 00 00 00  .p.@............
  0000000140004490: 50 70 00 40 01 00 00 00 00 00 00 00 00 00 00 00  Pp.@............
  00000001400044A0: C0 70 00 40 01 00 00 00 00 00 00 00 00 00 00 00  p.@............
  00000001400044B0: F0 1C 00 40 01 00 00 00 00 00 00 00 00 00 00 00  ..@............
  00000001400044C0: 40 16 00 40 01 00 00 00 00 00 00 00 00 00 00 00  @..@............
  00000001400044D0: 60 70 00 40 01 00 00 00 00 00 00 00 00 00 00 00  `p.@............
  00000001400044E0: 47 43 43 3A 20 28 52 65 76 32 2C 20 42 75 69 6C  GCC: (Rev2, Buil
  00000001400044F0: 74 20 62 79 20 4D 53 59 53 32 20 70 72 6F 6A 65  t by MSYS2 proje
  0000000140004500: 63 74 29 20 31 34 2E 32 2E 30 00 00 00 00 00 00  ct) 14.2.0......
  0000000140004510: 47 43 43 3A 20 28 52 65 76 32 2C 20 42 75 69 6C  GCC: (Rev2, Buil
  0000000140004520: 74 20 62 79 20 4D 53 59 53 32 20 70 72 6F 6A 65  t by MSYS2 proje
  0000000140004530: 63 74 29 20 31 34 2E 32 2E 30 00 00 00 00 00 00  ct) 14.2.0......
  0000000140004540: 47 43 43 3A 20 28 52 65 76 32 2C 20 42 75 69 6C  GCC: (Rev2, Buil
  0000000140004550: 74 20 62 79 20 4D 53 59 53 32 20 70 72 6F 6A 65  t by MSYS2 proje
  0000000140004560: 63 74 29 20 31 34 2E 32 2E 30 00 00 00 00 00 00  ct) 14.2.0......
  0000000140004570: 47 43 43 3A 20 28 52 65 76 32 2C 20 42 75 69 6C  GCC: (Rev2, Buil
  0000000140004580: 74 20 62 79 20 4D 53 59 53 32 20 70 72 6F 6A 65  t by MSYS2 proje
  0000000140004590: 63 74 29 20 31 34 2E 32 2E 30 00 00 00 00 00 00  ct) 14.2.0......
  00000001400045A0: 47 43 43 3A 20 28 52 65 76 32 2C 20 42 75 69 6C  GCC: (Rev2, Buil
  00000001400045B0: 74 20 62 79 20 4D 53 59 53 32 20 70 72 6F 6A 65  t by MSYS2 proje
  00000001400045C0: 63 74 29 20 31 34 2E 32 2E 30 00 00 00 00 00 00  ct) 14.2.0......
  00000001400045D0: 47 43 43 3A 20 28 52 65 76 32 2C 20 42 75 69 6C  GCC: (Rev2, Buil
  00000001400045E0: 74 20 62 79 20 4D 53 59 53 32 20 70 72 6F 6A 65  t by MSYS2 proje
  00000001400045F0: 63 74 29 20 31 34 2E 32 2E 30 00 00 00 00 00 00  ct) 14.2.0......
  0000000140004600: 47 43 43 3A 20 28 52 65 76 32 2C 20 42 75 69 6C  GCC: (Rev2, Buil
  0000000140004610: 74 20 62 79 20 4D 53 59 53 32 20 70 72 6F 6A 65  t by MSYS2 proje
  0000000140004620: 63 74 29 20 31 34 2E 32 2E 30 00 00 00 00 00 00  ct) 14.2.0......
  0000000140004630: 47 43 43 3A 20 28 52 65 76 32 2C 20 42 75 69 6C  GCC: (Rev2, Buil
  0000000140004640: 74 20 62 79 20 4D 53 59 53 32 20 70 72 6F 6A 65  t by MSYS2 proje
  0000000140004650: 63 74 29 20 31 34 2E 32 2E 30 00 00 00 00 00 00  ct) 14.2.0......
  0000000140004660: 47 43 43 3A 20 28 52 65 76 32 2C 20 42 75 69 6C  GCC: (Rev2, Buil
  0000000140004670: 74 20 62 79 20 4D 53 59 53 32 20 70 72 6F 6A 65  t by MSYS2 proje
  0000000140004680: 63 74 29 20 31 34 2E 32 2E 30 00 00 00 00 00 00  ct) 14.2.0......
  0000000140004690: 47 43 43 3A 20 28 52 65 76 32 2C 20 42 75 69 6C  GCC: (Rev2, Buil
  00000001400046A0: 74 20 62 79 20 4D 53 59 53 32 20 70 72 6F 6A 65  t by MSYS2 proje
  00000001400046B0: 63 74 29 20 31 34 2E 32 2E 30 00 00 00 00 00 00  ct) 14.2.0......
  00000001400046C0: 47 43 43 3A 20 28 52 65 76 32 2C 20 42 75 69 6C  GCC: (Rev2, Buil
  00000001400046D0: 74 20 62 79 20 4D 53 59 53 32 20 70 72 6F 6A 65  t by MSYS2 proje
  00000001400046E0: 63 74 29 20 31 34 2E 32 2E 30 00 00 00 00 00 00  ct) 14.2.0......
  00000001400046F0: 47 43 43 3A 20 28 52 65 76 32 2C 20 42 75 69 6C  GCC: (Rev2, Buil
  0000000140004700: 74 20 62 79 20 4D 53 59 53 32 20 70 72 6F 6A 65  t by MSYS2 proje
  0000000140004710: 63 74 29 20 31 34 2E 32 2E 30 00 00 00 00 00 00  ct) 14.2.0......
  0000000140004720: 47 43 43 3A 20 28 52 65 76 32 2C 20 42 75 69 6C  GCC: (Rev2, Buil
  0000000140004730: 74 20 62 79 20 4D 53 59 53 32 20 70 72 6F 6A 65  t by MSYS2 proje
  0000000140004740: 63 74 29 20 31 34 2E 32 2E 30 00 00 00 00 00 00  ct) 14.2.0......
  0000000140004750: 47 43 43 3A 20 28 52 65 76 32 2C 20 42 75 69 6C  GCC: (Rev2, Buil
  0000000140004760: 74 20 62 79 20 4D 53 59 53 32 20 70 72 6F 6A 65  t by MSYS2 proje
  0000000140004770: 63 74 29 20 31 34 2E 32 2E 30 00 00 00 00 00 00  ct) 14.2.0......
  0000000140004780: 47 43 43 3A 20 28 52 65 76 32 2C 20 42 75 69 6C  GCC: (Rev2, Buil
  0000000140004790: 74 20 62 79 20 4D 53 59 53 32 20 70 72 6F 6A 65  t by MSYS2 proje
  00000001400047A0: 63 74 29 20 31 34 2E 32 2E 30 00 00 00 00 00 00  ct) 14.2.0......
  00000001400047B0: 47 43 43 3A 20 28 52 65 76 32 2C 20 42 75 69 6C  GCC: (Rev2, Buil
  00000001400047C0: 74 20 62 79 20 4D 53 59 53 32 20 70 72 6F 6A 65  t by MSYS2 proje
  00000001400047D0: 63 74 29 20 31 34 2E 32 2E 30 00 00 00 00 00 00  ct) 14.2.0......
  00000001400047E0: 47 43 43 3A 20 28 52 65 76 32 2C 20 42 75 69 6C  GCC: (Rev2, Buil
  00000001400047F0: 74 20 62 79 20 4D 53 59 53 32 20 70 72 6F 6A 65  t by MSYS2 proje
  0000000140004800: 63 74 29 20 31 34 2E 32 2E 30 00 00 00 00 00 00  ct) 14.2.0......
  0000000140004810: 47 43 43 3A 20 28 52 65 76 32 2C 20 42 75 69 6C  GCC: (Rev2, Buil
  0000000140004820: 74 20 62 79 20 4D 53 59 53 32 20 70 72 6F 6A 65  t by MSYS2 proje
  0000000140004830: 63 74 29 20 31 34 2E 32 2E 30 00 00 00 00 00 00  ct) 14.2.0......
  0000000140004840: 47 43 43 3A 20 28 52 65 76 32 2C 20 42 75 69 6C  GCC: (Rev2, Buil
  0000000140004850: 74 20 62 79 20 4D 53 59 53 32 20 70 72 6F 6A 65  t by MSYS2 proje
  0000000140004860: 63 74 29 20 31 34 2E 32 2E 30 00 00 00 00 00 00  ct) 14.2.0......
  0000000140004870: 47 43 43 3A 20 28 52 65 76 32 2C 20 42 75 69 6C  GCC: (Rev2, Buil
  0000000140004880: 74 20 62 79 20 4D 53 59 53 32 20 70 72 6F 6A 65  t by MSYS2 proje
  0000000140004890: 63 74 29 20 31 34 2E 32 2E 30 00 00 00 00 00 00  ct) 14.2.0......
  00000001400048A0: 47 43 43 3A 20 28 52 65 76 32 2C 20 42 75 69 6C  GCC: (Rev2, Buil
  00000001400048B0: 74 20 62 79 20 4D 53 59 53 32 20 70 72 6F 6A 65  t by MSYS2 proje
  00000001400048C0: 63 74 29 20 31 34 2E 32 2E 30 00 00 00 00 00 00  ct) 14.2.0......
  00000001400048D0: 47 43 43 3A 20 28 52 65 76 32 2C 20 42 75 69 6C  GCC: (Rev2, Buil
  00000001400048E0: 74 20 62 79 20 4D 53 59 53 32 20 70 72 6F 6A 65  t by MSYS2 proje
  00000001400048F0: 63 74 29 20 31 34 2E 32 2E 30 00 00 00 00 00 00  ct) 14.2.0......
  0000000140004900: 47 43 43 3A 20 28 52 65 76 32 2C 20 42 75 69 6C  GCC: (Rev2, Buil
  0000000140004910: 74 20 62 79 20 4D 53 59 53 32 20 70 72 6F 6A 65  t by MSYS2 proje
  0000000140004920: 63 74 29 20 31 34 2E 32 2E 30 00 00 00 00 00 00  ct) 14.2.0......
  0000000140004930: 47 43 43 3A 20 28 52 65 76 32 2C 20 42 75 69 6C  GCC: (Rev2, Buil
  0000000140004940: 74 20 62 79 20 4D 53 59 53 32 20 70 72 6F 6A 65  t by MSYS2 proje
  0000000140004950: 63 74 29 20 31 34 2E 32 2E 30 00 00 00 00 00 00  ct) 14.2.0......
  0000000140004960: 47 43 43 3A 20 28 52 65 76 32 2C 20 42 75 69 6C  GCC: (Rev2, Buil
  0000000140004970: 74 20 62 79 20 4D 53 59 53 32 20 70 72 6F 6A 65  t by MSYS2 proje
  0000000140004980: 63 74 29 20 31 34 2E 32 2E 30 00 00 00 00 00 00  ct) 14.2.0......
  0000000140004990: 47 43 43 3A 20 28 52 65 76 32 2C 20 42 75 69 6C  GCC: (Rev2, Buil
  00000001400049A0: 74 20 62 79 20 4D 53 59 53 32 20 70 72 6F 6A 65  t by MSYS2 proje
  00000001400049B0: 63 74 29 20 31 34 2E 32 2E 30 00 00 00 00 00 00  ct) 14.2.0......
  00000001400049C0: 47 43 43 3A 20 28 52 65 76 32 2C 20 42 75 69 6C  GCC: (Rev2, Buil
  00000001400049D0: 74 20 62 79 20 4D 53 59 53 32 20 70 72 6F 6A 65  t by MSYS2 proje
  00000001400049E0: 63 74 29 20 31 34 2E 32 2E 30 00 00 00 00 00 00  ct) 14.2.0......
  00000001400049F0: 47 43 43 3A 20 28 52 65 76 32 2C 20 42 75 69 6C  GCC: (Rev2, Buil
  0000000140004A00: 74 20 62 79 20 4D 53 59 53 32 20 70 72 6F 6A 65  t by MSYS2 proje
  0000000140004A10: 63 74 29 20 31 34 2E 32 2E 30 00 00 00 00 00 00  ct) 14.2.0......
  0000000140004A20: 47 43 43 3A 20 28 52 65 76 32 2C 20 42 75 69 6C  GCC: (Rev2, Buil
  0000000140004A30: 74 20 62 79 20 4D 53 59 53 32 20 70 72 6F 6A 65  t by MSYS2 proje
  0000000140004A40: 63 74 29 20 31 34 2E 32 2E 30 00 00 00 00 00 00  ct) 14.2.0......
  0000000140004A50: 47 43 43 3A 20 28 52 65 76 32 2C 20 42 75 69 6C  GCC: (Rev2, Buil
  0000000140004A60: 74 20 62 79 20 4D 53 59 53 32 20 70 72 6F 6A 65  t by MSYS2 proje
  0000000140004A70: 63 74 29 20 31 34 2E 32 2E 30 00 00 00 00 00 00  ct) 14.2.0......
  0000000140004A80: 47 43 43 3A 20 28 52 65 76 32 2C 20 42 75 69 6C  GCC: (Rev2, Buil
  0000000140004A90: 74 20 62 79 20 4D 53 59 53 32 20 70 72 6F 6A 65  t by MSYS2 proje
  0000000140004AA0: 63 74 29 20 31 34 2E 32 2E 30 00 00 00 00 00 00  ct) 14.2.0......

RAW DATA #4
  0000000140005000: 00 10 00 00 01 10 00 00 00 60 00 00 10 10 00 00  .........`......
  0000000140005010: 49 11 00 00 04 60 00 00 50 11 00 00 A3 11 00 00  I....`..P......
  0000000140005020: 0C 60 00 00 B0 11 00 00 EA 13 00 00 14 60 00 00  .`.........`..
  0000000140005030: F0 13 00 00 0D 14 00 00 24 60 00 00 10 14 00 00  .......$`......
  0000000140005040: 2D 14 00 00 44 60 00 00 30 14 00 00 35 14 00 00  -...D`..0...5...
  0000000140005050: 64 60 00 00 40 14 00 00 4C 14 00 00 68 60 00 00  d`..@...L...h`..
  0000000140005060: 50 14 00 00 51 14 00 00 6C 60 00 00 60 14 00 00  P...Q...l`..`...
  0000000140005070: 84 14 00 00 70 60 00 00 90 14 00 00 D2 14 00 00  ....p`.........
  0000000140005080: 7C 60 00 00 E0 14 00 00 52 15 00 00 84 60 00 00  |`.....R....`..
  0000000140005090: 60 15 00 00 7F 15 00 00 90 60 00 00 80 15 00 00  `........`......
  00000001400050A0: 83 15 00 00 94 60 00 00 90 15 00 00 A5 15 00 00  .....`.........
  00000001400050B0: 98 60 00 00 B0 15 00 00 2B 16 00 00 9C 60 00 00  .`.....+....`..
  00000001400050C0: 30 16 00 00 33 16 00 00 A8 60 00 00 40 16 00 00  0...3...`..@...
  00000001400050D0: 38 17 00 00 AC 60 00 00 40 17 00 00 43 17 00 00  8...`..@...C...
  00000001400050E0: C4 60 00 00 50 17 00 00 B9 17 00 00 C8 60 00 00  `..P......`..
  00000001400050F0: C0 17 00 00 22 19 00 00 D4 60 00 00 30 19 00 00  ..."...`..0...
  0000000140005100: 93 1C 00 00 E0 60 00 00 A0 1C 00 00 DE 1C 00 00  ....`.........
  0000000140005110: F8 60 00 00 E0 1C 00 00 EC 1C 00 00 00 61 00 00  `.........a..
  0000000140005120: F0 1C 00 00 AD 1E 00 00 04 61 00 00 C0 1E 00 00  .......a.....
  0000000140005130: 38 1F 00 00 0C 61 00 00 40 1F 00 00 AF 1F 00 00  8....a..@......
  0000000140005140: 1C 61 00 00 B0 1F 00 00 41 20 00 00 28 61 00 00  .a.....A ..(a..
  0000000140005150: 50 20 00 00 52 21 00 00 34 61 00 00 60 21 00 00  P ..R!..4a..`!..
  0000000140005160: 8C 21 00 00 3C 61 00 00 90 21 00 00 E0 21 00 00  .!..<a...!..!..
  0000000140005170: 40 61 00 00 E0 21 00 00 7D 22 00 00 44 61 00 00  @a..!..}"..Da..
  0000000140005180: 80 22 00 00 00 23 00 00 50 61 00 00 00 23 00 00  ."...#..Pa...#..
  0000000140005190: 37 23 00 00 54 61 00 00 40 23 00 00 BB 23 00 00  7#..Ta..@#..#..
  00000001400051A0: 58 61 00 00 C0 23 00 00 F6 23 00 00 5C 61 00 00  Xa..#..#..\a..
  00000001400051B0: 00 24 00 00 89 24 00 00 60 61 00 00 90 24 00 00  .$...$..`a...$..
  00000001400051C0: 56 25 00 00 64 61 00 00 A0 25 00 00 E0 25 00 00  V%..da...%..%..
  00000001400051D0: 68 61 00 00 E0 25 00 00 EB 25 00 00 74 61 00 00  ha..%..%..ta..
  00000001400051E0: F0 25 00 00 FB 25 00 00 78 61 00 00 00 26 00 00  %..%..xa...&..
  00000001400051F0: 0B 26 00 00 7C 61 00 00 10 26 00 00 18 26 00 00  .&..|a...&...&..
  0000000140005200: 80 61 00 00 20 26 00 00 2B 26 00 00 84 61 00 00  .a.. &..+&...a..
  0000000140005210: 30 26 00 00 4F 26 00 00 88 61 00 00 50 27 00 00  0&..O&...a..P'..
  0000000140005220: 55 27 00 00 90 61 00 00                          U'...a..

RAW DATA #5
  0000000140006000: 01 00 00 00 01 04 01 00 04 42 00 00 01 04 01 00  .........B......
  0000000140006010: 04 82 00 00 01 0A 06 00 0A 32 06 30 05 60 04 70  .........2.0.`.p
  0000000140006020: 03 50 02 C0 09 04 01 00 04 42 00 00 50 26 00 00  .P......B..P&..
  0000000140006030: 01 00 00 00 F4 13 00 00 07 14 00 00 F0 1C 00 00  ..............
  0000000140006040: 07 14 00 00 09 04 01 00 04 42 00 00 50 26 00 00  .........B..P&..
  0000000140006050: 01 00 00 00 14 14 00 00 27 14 00 00 F0 1C 00 00  ........'......
  0000000140006060: 27 14 00 00 01 00 00 00 01 00 00 00 01 00 00 00  '...............
  0000000140006070: 01 08 03 05 08 52 04 03 01 50 00 00 01 04 01 00  .....R...P......
  0000000140006080: 04 42 00 00 01 06 03 00 06 42 02 30 01 60 00 00  .B.......B.0.`..
  0000000140006090: 01 00 00 00 01 00 00 00 01 00 00 00 01 06 03 00  ................
  00000001400060A0: 06 42 02 30 01 60 00 00 01 00 00 00 01 16 09 00  .B.0.`..........
  00000001400060B0: 16 88 06 00 10 78 05 00 0B 68 04 00 06 E2 02 30  .....x...h....0
  00000001400060C0: 01 60 00 00 01 00 00 00 01 06 03 00 06 62 02 30  .`...........b.0
  00000001400060D0: 01 60 00 00 01 07 04 00 07 92 03 30 02 60 01 70  .`.........0.`.p
  00000001400060E0: 01 15 0A 45 15 03 10 82 0C 30 0B 60 0A 70 09 C0  ...E.....0.`.p.
  00000001400060F0: 07 D0 05 E0 03 F0 01 50 01 04 01 00 04 A2 00 00  ....P.......
  0000000140006100: 01 00 00 00 01 05 02 00 05 32 01 30 01 0A 06 00  .........2.0....
  0000000140006110: 0A 32 06 30 05 60 04 70 03 50 02 C0 01 07 04 00  .2.0.`.p.P.....
  0000000140006120: 07 32 03 30 02 60 01 70 01 06 03 00 06 42 02 30  .2.0.`.p.....B.0
  0000000140006130: 01 60 00 00 01 05 02 00 05 32 01 30 01 00 00 00  .`.......2.0....
  0000000140006140: 01 00 00 00 01 07 04 00 07 32 03 30 02 60 01 70  .........2.0.`.p
  0000000140006150: 01 00 00 00 01 00 00 00 01 00 00 00 01 00 00 00  ................
  0000000140006160: 01 00 00 00 01 00 00 00 01 06 03 00 06 42 02 30  .............B.0
  0000000140006170: 01 60 00 00 01 00 00 00 01 00 00 00 01 00 00 00  .`..............
  0000000140006180: 01 00 00 00 01 00 00 00 01 05 02 00 05 32 01 30  .............2.0
  0000000140006190: 01 00 00 00                                      ....

RAW DATA #7
  0000000140008000: 40 80 00 00 00 00 00 00 00 00 00 00 94 84 00 00  @...............
  0000000140008010: 60 81 00 00 98 80 00 00 00 00 00 00 00 00 00 00  `...............
  0000000140008020: 04 85 00 00 B8 81 00 00 00 00 00 00 00 00 00 00  ...............
  0000000140008030: 00 00 00 00 00 00 00 00 00 00 00 00 00 00 00 00  ................
  0000000140008040: 80 82 00 00 00 00 00 00 98 82 00 00 00 00 00 00  ................
  0000000140008050: B0 82 00 00 00 00 00 00 C0 82 00 00 00 00 00 00  ..............
  0000000140008060: DC 82 00 00 00 00 00 00 F4 82 00 00 00 00 00 00  ..............
  0000000140008070: 12 83 00 00 00 00 00 00 1A 83 00 00 00 00 00 00  ................
  0000000140008080: 28 83 00 00 00 00 00 00 3A 83 00 00 00 00 00 00  (.......:.......
  0000000140008090: 00 00 00 00 00 00 00 00 4A 83 00 00 00 00 00 00  ........J.......
  00000001400080A0: 62 83 00 00 00 00 00 00 72 83 00 00 00 00 00 00  b.......r.......
  00000001400080B0: 7E 83 00 00 00 00 00 00 8C 83 00 00 00 00 00 00  ~...............
  00000001400080C0: 9E 83 00 00 00 00 00 00 B2 83 00 00 00 00 00 00  ...............
  00000001400080D0: C0 83 00 00 00 00 00 00 CA 83 00 00 00 00 00 00  ..............
  00000001400080E0: D6 83 00 00 00 00 00 00 E0 83 00 00 00 00 00 00  ..............
  00000001400080F0: EC 83 00 00 00 00 00 00 F4 83 00 00 00 00 00 00  ..............
  0000000140008100: FE 83 00 00 00 00 00 00 08 84 00 00 00 00 00 00  ...............
  0000000140008110: 10 84 00 00 00 00 00 00 1A 84 00 00 00 00 00 00  ................
  0000000140008120: 22 84 00 00 00 00 00 00 2C 84 00 00 00 00 00 00  ".......,.......
  0000000140008130: 36 84 00 00 00 00 00 00 40 84 00 00 00 00 00 00  6.......@.......
  0000000140008140: 4A 84 00 00 00 00 00 00 54 84 00 00 00 00 00 00  J.......T.......
  0000000140008150: 5E 84 00 00 00 00 00 00 00 00 00 00 00 00 00 00  ^...............
  0000000140008160: 80 82 00 00 00 00 00 00 98 82 00 00 00 00 00 00  ................
  0000000140008170: B0 82 00 00 00 00 00 00 C0 82 00 00 00 00 00 00  ..............
  0000000140008180: DC 82 00 00 00 00 00 00 F4 82 00 00 00 00 00 00  ..............
  0000000140008190: 12 83 00 00 00 00 00 00 1A 83 00 00 00 00 00 00  ................
  00000001400081A0: 28 83 00 00 00 00 00 00 3A 83 00 00 00 00 00 00  (.......:.......
  00000001400081B0: 00 00 00 00 00 00 00 00 4A 83 00 00 00 00 00 00  ........J.......
  00000001400081C0: 62 83 00 00 00 00 00 00 72 83 00 00 00 00 00 00  b.......r.......
  00000001400081D0: 7E 83 00 00 00 00 00 00 8C 83 00 00 00 00 00 00  ~...............
  00000001400081E0: 9E 83 00 00 00 00 00 00 B2 83 00 00 00 00 00 00  ...............
  00000001400081F0: C0 83 00 00 00 00 00 00 CA 83 00 00 00 00 00 00  ..............
  0000000140008200: D6 83 00 00 00 00 00 00 E0 83 00 00 00 00 00 00  ..............
  0000000140008210: EC 83 00 00 00 00 00 00 F4 83 00 00 00 00 00 00  ..............
  0000000140008220: FE 83 00 00 00 00 00 00 08 84 00 00 00 00 00 00  ...............
  0000000140008230: 10 84 00 00 00 00 00 00 1A 84 00 00 00 00 00 00  ................
  0000000140008240: 22 84 00 00 00 00 00 00 2C 84 00 00 00 00 00 00  ".......,.......
  0000000140008250: 36 84 00 00 00 00 00 00 40 84 00 00 00 00 00 00  6.......@.......
  0000000140008260: 4A 84 00 00 00 00 00 00 54 84 00 00 00 00 00 00  J.......T.......
  0000000140008270: 5E 84 00 00 00 00 00 00 00 00 00 00 00 00 00 00  ^...............
  0000000140008280: 27 01 44 65 6C 65 74 65 43 72 69 74 69 63 61 6C  '.DeleteCritical
  0000000140008290: 53 65 63 74 69 6F 6E 00 4D 01 45 6E 74 65 72 43  Section.M.EnterC
  00000001400082A0: 72 69 74 69 63 61 6C 53 65 63 74 69 6F 6E 00 00  riticalSection..
  00000001400082B0: 88 02 47 65 74 4C 61 73 74 45 72 72 6F 72 00 00  ..GetLastError..
  00000001400082C0: 96 03 49 6E 69 74 69 61 6C 69 7A 65 43 72 69 74  ..InitializeCrit
  00000001400082D0: 69 63 61 6C 53 65 63 74 69 6F 6E 00 F4 03 4C 65  icalSection..Le
  00000001400082E0: 61 76 65 43 72 69 74 69 63 61 6C 53 65 63 74 69  aveCriticalSecti
  00000001400082F0: 6F 6E 00 00 99 05 53 65 74 55 6E 68 61 6E 64 6C  on....SetUnhandl
  0000000140008300: 65 64 45 78 63 65 70 74 69 6F 6E 46 69 6C 74 65  edExceptionFilte
  0000000140008310: 72 00 A9 05 53 6C 65 65 70 00 CD 05 54 6C 73 47  r..Sleep..TlsG
  0000000140008320: 65 74 56 61 6C 75 65 00 FD 05 56 69 72 74 75 61  etValue..Virtua
  0000000140008330: 6C 50 72 6F 74 65 63 74 00 00 FF 05 56 69 72 74  lProtect...Virt
  0000000140008340: 75 61 6C 51 75 65 72 79 00 00 59 00 5F 5F 43 5F  ualQuery..Y.__C_
  0000000140008350: 73 70 65 63 69 66 69 63 5F 68 61 6E 64 6C 65 72  specific_handler
  0000000140008360: 00 00 7F 00 5F 5F 67 65 74 6D 61 69 6E 61 72 67  ....__getmainarg
  0000000140008370: 73 00 80 00 5F 5F 69 6E 69 74 65 6E 76 00 82 00  s...__initenv...
  0000000140008380: 5F 5F 69 6F 62 5F 66 75 6E 63 00 00 92 00 5F 5F  __iob_func....__
  0000000140008390: 73 65 74 5F 61 70 70 5F 74 79 70 65 00 00 94 00  set_app_type....
  00000001400083A0: 5F 5F 73 65 74 75 73 65 72 6D 61 74 68 65 72 72  __setusermatherr
  00000001400083B0: 00 00 B5 00 5F 61 6D 73 67 5F 65 78 69 74 00 00  ..._amsg_exit..
  00000001400083C0: CA 00 5F 63 65 78 69 74 00 00 DD 00 5F 63 6F 6D  ._cexit..._com
  00000001400083D0: 6D 6F 64 65 00 00 42 01 5F 66 6D 6F 64 65 00 00  mode..B._fmode..
  00000001400083E0: 9D 01 5F 69 6E 69 74 74 65 72 6D 00 77 04 61 62  .._initterm.w.ab
  00000001400083F0: 6F 72 74 00 83 04 61 74 65 78 69 74 00 00 8B 04  ort...atexit....
  0000000140008400: 63 61 6C 6C 6F 63 00 00 9A 04 65 78 69 74 00 00  calloc....exit..
  0000000140008410: AF 04 66 70 72 69 6E 74 66 00 B6 04 66 72 65 65  .fprintf..free
  0000000140008420: 00 00 C4 04 66 77 72 69 74 65 00 00 F4 04 6D 61  ...fwrite...ma
  0000000140008430: 6C 6C 6F 63 00 00 FD 04 6D 65 6D 63 70 79 00 00  lloc...memcpy..
  0000000140008440: 1D 05 73 69 67 6E 61 6C 00 00 34 05 73 74 72 6C  ..signal..4.strl
  0000000140008450: 65 6E 00 00 37 05 73 74 72 6E 63 6D 70 00 57 05  en..7.strncmp.W.
  0000000140008460: 76 66 70 72 69 6E 74 66 00 00 00 00 00 80 00 00  vfprintf........
  0000000140008470: 00 80 00 00 00 80 00 00 00 80 00 00 00 80 00 00  ................
  0000000140008480: 00 80 00 00 00 80 00 00 00 80 00 00 00 80 00 00  ................
  0000000140008490: 00 80 00 00 4B 45 52 4E 45 4C 33 32 2E 64 6C 6C  ....KERNEL32.dll
  00000001400084A0: 00 00 00 00 14 80 00 00 14 80 00 00 14 80 00 00  ................
  00000001400084B0: 14 80 00 00 14 80 00 00 14 80 00 00 14 80 00 00  ................
  00000001400084C0: 14 80 00 00 14 80 00 00 14 80 00 00 14 80 00 00  ................
  00000001400084D0: 14 80 00 00 14 80 00 00 14 80 00 00 14 80 00 00  ................
  00000001400084E0: 14 80 00 00 14 80 00 00 14 80 00 00 14 80 00 00  ................
  00000001400084F0: 14 80 00 00 14 80 00 00 14 80 00 00 14 80 00 00  ................
  0000000140008500: 14 80 00 00 6D 73 76 63 72 74 2E 64 6C 6C 00 00  ....msvcrt.dll..

RAW DATA #8
  0000000140009000: 00 00 00 00 00 00 00 00 50 11 00 40 01 00 00 00  ........P..@....
  0000000140009010: 00 00 00 00 00 00 00 00 00 00 00 00 00 00 00 00  ................
  0000000140009020: 10 10 00 40 01 00 00 00 00 00 00 00 00 00 00 00  ...@............
  0000000140009030: 00 00 00 00 00 00 00 00 B0 15 00 40 01 00 00 00  ..........@....
  0000000140009040: 90 15 00 40 01 00 00 00 00 00 00 00 00 00 00 00  ...@............
  0000000140009050: 00 00 00 00 00 00 00 00 00 00 00 00 00 00 00 00  ................

RAW DATA #9
  000000014000A000: 00 00 00 00 00 00 00 00 00 00 00 00 00 00 00 00  ................

RAW DATA #A
  000000014000B000: 00 00 00 00 00 00 00 00 00 00 00 00 00 00 01 00  ................
  000000014000B010: 18 00 00 00 18 00 00 80 00 00 00 00 00 00 00 00  ................
  000000014000B020: 00 00 00 00 00 00 01 00 01 00 00 00 30 00 00 80  ............0...
  000000014000B030: 00 00 00 00 00 00 00 00 00 00 00 00 00 00 01 00  ................
  000000014000B040: 00 00 00 00 48 00 00 00 58 B0 00 00 8F 04 00 00  ....H...X......
  000000014000B050: 00 00 00 00 00 00 00 00 3C 3F 78 6D 6C 20 76 65  ........<?xml ve
  000000014000B060: 72 73 69 6F 6E 3D 22 31 2E 30 22 20 65 6E 63 6F  rsion="1.0" enco
  000000014000B070: 64 69 6E 67 3D 22 55 54 46 2D 38 22 20 73 74 61  ding="UTF-8" sta
  000000014000B080: 6E 64 61 6C 6F 6E 65 3D 22 79 65 73 22 3F 3E 0A  ndalone="yes"?>.
  000000014000B090: 3C 61 73 73 65 6D 62 6C 79 20 78 6D 6C 6E 73 3D  <assembly xmlns=
  000000014000B0A0: 22 75 72 6E 3A 73 63 68 65 6D 61 73 2D 6D 69 63  "urn:schemas-mic
  000000014000B0B0: 72 6F 73 6F 66 74 2D 63 6F 6D 3A 61 73 6D 2E 76  rosoft-com:asm.v
  000000014000B0C0: 31 22 20 6D 61 6E 69 66 65 73 74 56 65 72 73 69  1" manifestVersi
  000000014000B0D0: 6F 6E 3D 22 31 2E 30 22 3E 0A 20 20 3C 74 72 75  on="1.0">.  <tru
  000000014000B0E0: 73 74 49 6E 66 6F 20 78 6D 6C 6E 73 3D 22 75 72  stInfo xmlns="ur
  000000014000B0F0: 6E 3A 73 63 68 65 6D 61 73 2D 6D 69 63 72 6F 73  n:schemas-micros
  000000014000B100: 6F 66 74 2D 63 6F 6D 3A 61 73 6D 2E 76 33 22 3E  oft-com:asm.v3">
  000000014000B110: 0A 20 20 20 20 3C 73 65 63 75 72 69 74 79 3E 0A  .    <security>.
  000000014000B120: 20 20 20 20 20 20 3C 72 65 71 75 65 73 74 65 64        <requested
  000000014000B130: 50 72 69 76 69 6C 65 67 65 73 3E 0A 20 20 20 20  Privileges>.    
  000000014000B140: 20 20 20 20 3C 72 65 71 75 65 73 74 65 64 45 78      <requestedEx
  000000014000B150: 65 63 75 74 69 6F 6E 4C 65 76 65 6C 20 6C 65 76  ecutionLevel lev
  000000014000B160: 65 6C 3D 22 61 73 49 6E 76 6F 6B 65 72 22 2F 3E  el="asInvoker"/>
  000000014000B170: 0A 20 20 20 20 20 20 3C 2F 72 65 71 75 65 73 74  .      </request
  000000014000B180: 65 64 50 72 69 76 69 6C 65 67 65 73 3E 0A 20 20  edPrivileges>.  
  000000014000B190: 20 20 3C 2F 73 65 63 75 72 69 74 79 3E 0A 20 20    </security>.  
  000000014000B1A0: 3C 2F 74 72 75 73 74 49 6E 66 6F 3E 0A 20 20 3C  </trustInfo>.  <
  000000014000B1B0: 63 6F 6D 70 61 74 69 62 69 6C 69 74 79 20 78 6D  compatibility xm
  000000014000B1C0: 6C 6E 73 3D 22 75 72 6E 3A 73 63 68 65 6D 61 73  lns="urn:schemas
  000000014000B1D0: 2D 6D 69 63 72 6F 73 6F 66 74 2D 63 6F 6D 3A 63  -microsoft-com:c
  000000014000B1E0: 6F 6D 70 61 74 69 62 69 6C 69 74 79 2E 76 31 22  ompatibility.v1"
  000000014000B1F0: 3E 0A 20 20 20 20 3C 61 70 70 6C 69 63 61 74 69  >.    <applicati
  000000014000B200: 6F 6E 3E 0A 20 20 20 20 20 20 3C 21 2D 2D 54 68  on>.      <!--Th
  000000014000B210: 65 20 49 44 20 62 65 6C 6F 77 20 69 6E 64 69 63  e ID below indic
  000000014000B220: 61 74 65 73 20 61 70 70 6C 69 63 61 74 69 6F 6E  ates application
  000000014000B230: 20 73 75 70 70 6F 72 74 20 66 6F 72 20 57 69 6E   support for Win
  000000014000B240: 64 6F 77 73 20 56 69 73 74 61 20 2D 2D 3E 0A 20  dows Vista -->. 
  000000014000B250: 20 20 20 20 20 3C 73 75 70 70 6F 72 74 65 64 4F       <supportedO
  000000014000B260: 53 20 49 64 3D 22 7B 65 32 30 31 31 34 35 37 2D  S Id="{e2011457-
  000000014000B270: 31 35 34 36 2D 34 33 63 35 2D 61 35 66 65 2D 30  1546-43c5-a5fe-0
  000000014000B280: 30 38 64 65 65 65 33 64 33 66 30 7D 22 2F 3E 0A  08deee3d3f0}"/>.
  000000014000B290: 20 20 20 20 20 20 3C 21 2D 2D 54 68 65 20 49 44        <!--The ID
  000000014000B2A0: 20 62 65 6C 6F 77 20 69 6E 64 69 63 61 74 65 73   below indicates
  000000014000B2B0: 20 61 70 70 6C 69 63 61 74 69 6F 6E 20 73 75 70   application sup
  000000014000B2C0: 70 6F 72 74 20 66 6F 72 20 57 69 6E 64 6F 77 73  port for Windows
  000000014000B2D0: 20 37 20 2D 2D 3E 0A 20 20 20 20 20 20 3C 73 75   7 -->.      <su
  000000014000B2E0: 70 70 6F 72 74 65 64 4F 53 20 49 64 3D 22 7B 33  pportedOS Id="{3
  000000014000B2F0: 35 31 33 38 62 39 61 2D 35 64 39 36 2D 34 66 62  5138b9a-5d96-4fb
  000000014000B300: 64 2D 38 65 32 64 2D 61 32 34 34 30 32 32 35 66  d-8e2d-a2440225f
  000000014000B310: 39 33 61 7D 22 2F 3E 0A 20 20 20 20 20 20 3C 21  93a}"/>.      <!
  000000014000B320: 2D 2D 54 68 65 20 49 44 20 62 65 6C 6F 77 20 69  --The ID below i
  000000014000B330: 6E 64 69 63 61 74 65 73 20 61 70 70 6C 69 63 61  ndicates applica
  000000014000B340: 74 69 6F 6E 20 73 75 70 70 6F 72 74 20 66 6F 72  tion support for
  000000014000B350: 20 57 69 6E 64 6F 77 73 20 38 20 2D 2D 3E 0A 20   Windows 8 -->. 
  000000014000B360: 20 20 20 20 20 3C 73 75 70 70 6F 72 74 65 64 4F       <supportedO
  000000014000B370: 53 20 49 64 3D 22 7B 34 61 32 66 32 38 65 33 2D  S Id="{4a2f28e3-
  000000014000B380: 35 33 62 39 2D 34 34 34 31 2D 62 61 39 63 2D 64  53b9-4441-ba9c-d
  000000014000B390: 36 39 64 34 61 34 61 36 65 33 38 7D 22 2F 3E 0A  69d4a4a6e38}"/>.
  000000014000B3A0: 20 20 20 20 20 20 3C 21 2D 2D 54 68 65 20 49 44        <!--The ID
  000000014000B3B0: 20 62 65 6C 6F 77 20 69 6E 64 69 63 61 74 65 73   below indicates
  000000014000B3C0: 20 61 70 70 6C 69 63 61 74 69 6F 6E 20 73 75 70   application sup
  000000014000B3D0: 70 6F 72 74 20 66 6F 72 20 57 69 6E 64 6F 77 73  port for Windows
  000000014000B3E0: 20 38 2E 31 20 2D 2D 3E 0A 20 20 20 20 20 20 3C   8.1 -->.      <
  000000014000B3F0: 73 75 70 70 6F 72 74 65 64 4F 53 20 49 64 3D 22  supportedOS Id="
  000000014000B400: 7B 31 66 36 37 36 63 37 36 2D 38 30 65 31 2D 34  {1f676c76-80e1-4
  000000014000B410: 32 33 39 2D 39 35 62 62 2D 38 33 64 30 66 36 64  239-95bb-83d0f6d
  000000014000B420: 30 64 61 37 38 7D 22 2F 3E 20 0A 20 20 20 20 20  0da78}"/> .     
  000000014000B430: 20 3C 21 2D 2D 54 68 65 20 49 44 20 62 65 6C 6F   <!--The ID belo
  000000014000B440: 77 20 69 6E 64 69 63 61 74 65 73 20 61 70 70 6C  w indicates appl
  000000014000B450: 69 63 61 74 69 6F 6E 20 73 75 70 70 6F 72 74 20  ication support 
  000000014000B460: 66 6F 72 20 57 69 6E 64 6F 77 73 20 31 30 20 2D  for Windows 10 -
  000000014000B470: 2D 3E 0A 20 20 20 20 20 20 3C 73 75 70 70 6F 72  ->.      <suppor
  000000014000B480: 74 65 64 4F 53 20 49 64 3D 22 7B 38 65 30 66 37  tedOS Id="{8e0f7
  000000014000B490: 61 31 32 2D 62 66 62 33 2D 34 66 65 38 2D 62 39  a12-bfb3-4fe8-b9
  000000014000B4A0: 61 35 2D 34 38 66 64 35 30 61 31 35 61 39 61 7D  a5-48fd50a15a9a}
  000000014000B4B0: 22 2F 3E 20 0A 20 20 20 20 3C 2F 61 70 70 6C 69  "/> .    </appli
  000000014000B4C0: 63 61 74 69 6F 6E 3E 0A 20 20 3C 2F 63 6F 6D 70  cation>.  </comp
  000000014000B4D0: 61 74 69 62 69 6C 69 74 79 3E 0A 3C 2F 61 73 73  atibility>.</ass
  000000014000B4E0: 65 6D 62 6C 79 3E 0A 00                          embly>..

RAW DATA #B
  000000014000C000: 00 20 00 00 0C 00 00 00 68 A7 00 00 00 30 00 00  . ......h...0..
  000000014000C010: 18 00 00 00 00 A0 40 A0 50 A0 60 A0 70 A0 80 A0  ......@.P.`.p...
  000000014000C020: 88 A0 90 A0 00 40 00 00 48 00 00 00 00 A0 20 A0  .....@..H..... .
  000000014000C030: 28 A0 30 A0 38 A0 30 A3 40 A3 50 A3 60 A3 70 A3  (.0.8.0@P`p
  000000014000C040: 80 A3 90 A3 A0 A3 B0 A3 C0 A3 D0 A3 E0 A3 F0 A3  ...
  000000014000C050: 00 A4 10 A4 20 A4 30 A4 40 A4 50 A4 60 A4 70 A4  .. 0@P`p
  000000014000C060: 80 A4 90 A4 A0 A4 B0 A4 C0 A4 D0 A4 00 90 00 00  .......
  000000014000C070: 10 00 00 00 08 A0 20 A0 38 A0 40 A0              ...... .8.@.

RAW DATA #C
  000000014000D000: 2C 00 00 00 02 00 00 00 00 00 08 00 00 00 00 00  ,...............
  000000014000D010: 00 10 00 40 01 00 00 00 35 04 00 00 00 00 00 00  ...@....5.......
  000000014000D020: 00 00 00 00 00 00 00 00 00 00 00 00 00 00 00 00  ................
  000000014000D030: 2C 00 00 00 02 00 4D 27 00 00 08 00 00 00 00 00  ,.....M'........
  000000014000D040: 90 14 00 40 01 00 00 00 EF 00 00 00 00 00 00 00  ...@...........
  000000014000D050: 00 00 00 00 00 00 00 00 00 00 00 00 00 00 00 00  ................
  000000014000D060: 1C 00 00 00 02 00 AE 2D 00 00 08 00 00 00 00 00  ......-........
  000000014000D070: 00 00 00 00 00 00 00 00 00 00 00 00 00 00 00 00  ................
  000000014000D080: 1C 00 00 00 02 00 B0 33 00 00 08 00 00 00 00 00  ......3........
  000000014000D090: 00 00 00 00 00 00 00 00 00 00 00 00 00 00 00 00  ................
  000000014000D0A0: 2C 00 00 00 02 00 3D 34 00 00 08 00 00 00 00 00  ,.....=4........
  000000014000D0B0: 80 15 00 40 01 00 00 00 03 00 00 00 00 00 00 00  ...@............
  000000014000D0C0: 00 00 00 00 00 00 00 00 00 00 00 00 00 00 00 00  ................
  000000014000D0D0: 1C 00 00 00 02 00 BE 35 00 00 08 00 00 00 00 00  ......5........
  000000014000D0E0: 00 00 00 00 00 00 00 00 00 00 00 00 00 00 00 00  ................
  000000014000D0F0: 2C 00 00 00 02 00 48 36 00 00 08 00 00 00 00 00  ,.....H6........
  000000014000D100: 90 15 00 40 01 00 00 00 A3 00 00 00 00 00 00 00  ...@...........
  000000014000D110: 00 00 00 00 00 00 00 00 00 00 00 00 00 00 00 00  ................
  000000014000D120: 1C 00 00 00 02 00 FA 3D 00 00 08 00 00 00 00 00  ......=........
  000000014000D130: 00 00 00 00 00 00 00 00 00 00 00 00 00 00 00 00  ................
  000000014000D140: 1C 00 00 00 02 00 84 3E 00 00 08 00 00 00 00 00  .......>........
  000000014000D150: 00 00 00 00 00 00 00 00 00 00 00 00 00 00 00 00  ................
  000000014000D160: 2C 00 00 00 02 00 22 40 00 00 08 00 00 00 00 00  ,....."@........
  000000014000D170: 40 16 00 40 01 00 00 00 F8 00 00 00 00 00 00 00  @..@...........
  000000014000D180: 00 00 00 00 00 00 00 00 00 00 00 00 00 00 00 00  ................
  000000014000D190: 2C 00 00 00 02 00 4E 43 00 00 08 00 00 00 00 00  ,.....NC........
  000000014000D1A0: 40 17 00 40 01 00 00 00 03 00 00 00 00 00 00 00  @..@............
  000000014000D1B0: 00 00 00 00 00 00 00 00 00 00 00 00 00 00 00 00  ................
  000000014000D1C0: 1C 00 00 00 02 00 E5 43 00 00 08 00 00 00 00 00  ......C........
  000000014000D1D0: 00 00 00 00 00 00 00 00 00 00 00 00 00 00 00 00  ................
  000000014000D1E0: 2C 00 00 00 02 00 77 44 00 00 08 00 00 00 00 00  ,.....wD........
  000000014000D1F0: 50 17 00 40 01 00 00 00 43 05 00 00 00 00 00 00  P..@....C.......
  000000014000D200: 00 00 00 00 00 00 00 00 00 00 00 00 00 00 00 00  ................
  000000014000D210: 2C 00 00 00 02 00 D1 5B 00 00 08 00 00 00 00 00  ,.....[........
  000000014000D220: A0 1C 00 40 01 00 00 00 4C 00 00 00 00 00 00 00  ...@....L.......
  000000014000D230: 00 00 00 00 00 00 00 00 00 00 00 00 00 00 00 00  ................
  000000014000D240: 1C 00 00 00 02 00 C6 5E 00 00 08 00 00 00 00 00  ......^........
  000000014000D250: 00 00 00 00 00 00 00 00 00 00 00 00 00 00 00 00  ................
  000000014000D260: 2C 00 00 00 02 00 4E 5F 00 00 08 00 00 00 00 00  ,.....N_........
  000000014000D270: F0 1C 00 40 01 00 00 00 BD 01 00 00 00 00 00 00  ..@...........
  000000014000D280: 00 00 00 00 00 00 00 00 00 00 00 00 00 00 00 00  ................
  000000014000D290: 2C 00 00 00 02 00 2F 6F 00 00 08 00 00 00 00 00  ,...../o........
  000000014000D2A0: C0 1E 00 40 01 00 00 00 92 02 00 00 00 00 00 00  ..@............
  000000014000D2B0: 00 00 00 00 00 00 00 00 00 00 00 00 00 00 00 00  ................
  000000014000D2C0: 1C 00 00 00 02 00 F3 79 00 00 08 00 00 00 00 00  ......y........
  000000014000D2D0: 00 00 00 00 00 00 00 00 00 00 00 00 00 00 00 00  ................
  000000014000D2E0: 1C 00 00 00 02 00 7C 7A 00 00 08 00 00 00 00 00  ......|z........
  000000014000D2F0: 00 00 00 00 00 00 00 00 00 00 00 00 00 00 00 00  ................
  000000014000D300: 2C 00 00 00 02 00 4C 7B 00 00 08 00 00 00 00 00  ,.....L{........
  000000014000D310: 60 21 00 40 01 00 00 00 F6 03 00 00 00 00 00 00  `!.@...........
  000000014000D320: 00 00 00 00 00 00 00 00 00 00 00 00 00 00 00 00  ................
  000000014000D330: 1C 00 00 00 02 00 22 90 00 00 08 00 00 00 00 00  ......".........
  000000014000D340: 00 00 00 00 00 00 00 00 00 00 00 00 00 00 00 00  ................
  000000014000D350: 2C 00 00 00 02 00 C0 90 00 00 08 00 00 00 00 00  ,..............
  000000014000D360: A0 25 00 40 01 00 00 00 40 00 00 00 00 00 00 00  .%.@....@.......
  000000014000D370: 00 00 00 00 00 00 00 00 00 00 00 00 00 00 00 00  ................
  000000014000D380: 2C 00 00 00 02 00 A3 92 00 00 08 00 00 00 00 00  ,..............
  000000014000D390: E0 25 00 40 01 00 00 00 0B 00 00 00 00 00 00 00  %.@............
  000000014000D3A0: 00 00 00 00 00 00 00 00 00 00 00 00 00 00 00 00  ................
  000000014000D3B0: 2C 00 00 00 02 00 96 93 00 00 08 00 00 00 00 00  ,...............
  000000014000D3C0: F0 25 00 40 01 00 00 00 0B 00 00 00 00 00 00 00  %.@............
  000000014000D3D0: 00 00 00 00 00 00 00 00 00 00 00 00 00 00 00 00  ................
  000000014000D3E0: 2C 00 00 00 02 00 8F 94 00 00 08 00 00 00 00 00  ,...............
  000000014000D3F0: 00 26 00 40 01 00 00 00 0B 00 00 00 00 00 00 00  .&.@............
  000000014000D400: 00 00 00 00 00 00 00 00 00 00 00 00 00 00 00 00  ................
  000000014000D410: 2C 00 00 00 02 00 8E 95 00 00 08 00 00 00 00 00  ,...............
  000000014000D420: 10 26 00 40 01 00 00 00 1B 00 00 00 00 00 00 00  .&.@............
  000000014000D430: 00 00 00 00 00 00 00 00 00 00 00 00 00 00 00 00  ................
  000000014000D440: 2C 00 00 00 02 00 B8 9C 00 00 08 00 00 00 00 00  ,..............
  000000014000D450: 30 26 00 40 01 00 00 00 1F 00 00 00 00 00 00 00  0&.@............
  000000014000D460: 00 00 00 00 00 00 00 00 00 00 00 00 00 00 00 00  ................

RAW DATA #D
  000000014000E000: 49 27 00 00 05 00 01 08 00 00 00 00 3A 47 4E 55  I'..........:GNU
  000000014000E010: 20 43 39 39 20 31 34 2E 32 2E 30 20 2D 6D 36 34   C99 14.2.0 -m64
  000000014000E020: 20 2D 6D 61 73 6D 3D 61 74 74 20 2D 6D 74 75 6E   -masm=att -mtun
  000000014000E030: 65 3D 67 65 6E 65 72 69 63 20 2D 6D 61 72 63 68  e=generic -march
  000000014000E040: 3D 6E 6F 63 6F 6E 61 20 2D 67 20 2D 4F 32 20 2D  =nocona -g -O2 -
  000000014000E050: 73 74 64 3D 67 6E 75 39 39 00 0C 00 00 00 00 30  std=gnu99......0
  000000014000E060: 00 00 00 00 10 00 40 01 00 00 00 35 04 00 00 00  ......@....5....
  000000014000E070: 00 00 00 00 00 00 00 08 01 06 63 68 61 72 00 25  ..........char.%
  000000014000E080: 77 00 00 00 0A 73 69 7A 65 5F 74 00 04 23 2C 93  w....size_t..#,.
  000000014000E090: 00 00 00 08 08 07 6C 6F 6E 67 20 6C 6F 6E 67 20  ......long long 
  000000014000E0A0: 75 6E 73 69 67 6E 65 64 20 69 6E 74 00 08 08 05  unsigned int....
  000000014000E0B0: 6C 6F 6E 67 20 6C 6F 6E 67 20 69 6E 74 00 0A 75  long long int..u
  000000014000E0C0: 69 6E 74 70 74 72 5F 74 00 04 4B 2C 93 00 00 00  intptr_t..K,....
  000000014000E0D0: 0A 77 63 68 61 72 5F 74 00 04 62 18 E5 00 00 00  .wchar_t..b....
  000000014000E0E0: 25 D0 00 00 00 08 02 07 73 68 6F 72 74 20 75 6E  %......short un
  000000014000E0F0: 73 69 67 6E 65 64 20 69 6E 74 00 08 04 05 69 6E  signed int....in
  000000014000E100: 74 00 08 04 05 6C 6F 6E 67 20 69 6E 74 00 05 77  t....long int..w
  000000014000E110: 00 00 00 05 FB 00 00 00 08 04 07 75 6E 73 69 67  ..........unsig
  000000014000E120: 6E 65 64 20 69 6E 74 00 08 04 07 6C 6F 6E 67 20  ned int....long 
  000000014000E130: 75 6E 73 69 67 6E 65 64 20 69 6E 74 00 08 01 08  unsigned int....
  000000014000E140: 75 6E 73 69 67 6E 65 64 20 63 68 61 72 00 05 53  unsigned char..S
  000000014000E150: 01 00 00 0E 5F 45 58 43 45 50 54 49 4F 4E 5F 52  ...._EXCEPTION_R
  000000014000E160: 45 43 4F 52 44 00 98 81 0B 14 FD 01 00 00 01 45  ECORD.........E
  000000014000E170: 78 63 65 70 74 69 6F 6E 43 6F 64 65 00 82 0B 0D  xceptionCode....
  000000014000E180: 11 05 00 00 00 01 45 78 63 65 70 74 69 6F 6E 46  ......ExceptionF
  000000014000E190: 6C 61 67 73 00 83 0B 0D 11 05 00 00 04 02 9E 01  lags............
  000000014000E1A0: 00 00 84 0B 21 4E 01 00 00 08 01 45 78 63 65 70  ....!N.....Excep
  000000014000E1B0: 74 69 6F 6E 41 64 64 72 65 73 73 00 85 0B 0D 89  tionAddress.....
  000000014000E1C0: 05 00 00 10 01 4E 75 6D 62 65 72 50 61 72 61 6D  .....NumberParam
  000000014000E1D0: 65 74 65 72 73 00 86 0B 0D 11 05 00 00 18 01 45  eters..........E
  000000014000E1E0: 78 63 65 70 74 69 6F 6E 49 6E 66 6F 72 6D 61 74  xceptionInformat
  000000014000E1F0: 69 6F 6E 00 87 0B 11 15 0A 00 00 20 00 3B 08 2C  ion........ .;.,
  000000014000E200: FD 01 00 00 05 09 02 00 00 2D 5F 43 4F 4E 54 45  ........-_CONTE
  000000014000E210: 58 54 00 D0 04 36 07 25 F7 04 00 00 01 50 31 48  XT..6.%....P1H
  000000014000E220: 6F 6D 65 00 37 07 0D 79 05 00 00 00 01 50 32 48  ome.7..y.....P2H
  000000014000E230: 6F 6D 65 00 38 07 0D 79 05 00 00 08 01 50 33 48  ome.8..y.....P3H
  000000014000E240: 6F 6D 65 00 39 07 0D 79 05 00 00 10 01 50 34 48  ome.9..y.....P4H
  000000014000E250: 6F 6D 65 00 3A 07 0D 79 05 00 00 18 01 50 35 48  ome.:..y.....P5H
  000000014000E260: 6F 6D 65 00 3B 07 0D 79 05 00 00 20 01 50 36 48  ome.;..y... .P6H
  000000014000E270: 6F 6D 65 00 3C 07 0D 79 05 00 00 28 01 43 6F 6E  ome.<..y...(.Con
  000000014000E280: 74 65 78 74 46 6C 61 67 73 00 3D 07 0B 11 05 00  textFlags.=.....
  000000014000E290: 00 30 01 4D 78 43 73 72 00 3E 07 0B 11 05 00 00  .0.MxCsr.>......
  000000014000E2A0: 34 01 53 65 67 43 73 00 3F 07 0A 04 05 00 00 38  4.SegCs.?......8
  000000014000E2B0: 01 53 65 67 44 73 00 40 07 0A 04 05 00 00 3A 01  .SegDs.@......:.
  000000014000E2C0: 53 65 67 45 73 00 41 07 0A 04 05 00 00 3C 01 53  SegEs.A......<.S
  000000014000E2D0: 65 67 46 73 00 42 07 0A 04 05 00 00 3E 01 53 65  egFs.B......>.Se
  000000014000E2E0: 67 47 73 00 43 07 0A 04 05 00 00 40 01 53 65 67  gGs.C......@.Seg
  000000014000E2F0: 53 73 00 44 07 0A 04 05 00 00 42 01 45 46 6C 61  Ss.D......B.EFla
  000000014000E300: 67 73 00 45 07 0B 11 05 00 00 44 01 44 72 30 00  gs.E......D.Dr0.
  000000014000E310: 46 07 0D 79 05 00 00 48 01 44 72 31 00 47 07 0D  F..y...H.Dr1.G..
  000000014000E320: 79 05 00 00 50 01 44 72 32 00 48 07 0D 79 05 00  y...P.Dr2.H..y..
  000000014000E330: 00 58 01 44 72 33 00 49 07 0D 79 05 00 00 60 01  .X.Dr3.I..y...`.
  000000014000E340: 44 72 36 00 4A 07 0D 79 05 00 00 68 01 44 72 37  Dr6.J..y...h.Dr7
  000000014000E350: 00 4B 07 0D 79 05 00 00 70 01 52 61 78 00 4C 07  .K..y...p.Rax.L.
  000000014000E360: 0D 79 05 00 00 78 01 52 63 78 00 4D 07 0D 79 05  .y...x.Rcx.M..y.
  000000014000E370: 00 00 80 01 52 64 78 00 4E 07 0D 79 05 00 00 88  ....Rdx.N..y....
  000000014000E380: 01 52 62 78 00 4F 07 0D 79 05 00 00 90 01 52 73  .Rbx.O..y.....Rs
  000000014000E390: 70 00 50 07 0D 79 05 00 00 98 01 52 62 70 00 51  p.P..y.....Rbp.Q
  000000014000E3A0: 07 0D 79 05 00 00 A0 01 52 73 69 00 52 07 0D 79  ..y.....Rsi.R..y
  000000014000E3B0: 05 00 00 A8 01 52 64 69 00 53 07 0D 79 05 00 00  ....Rdi.S..y...
  000000014000E3C0: B0 01 52 38 00 54 07 0D 79 05 00 00 B8 01 52 39  .R8.T..y....R9
  000000014000E3D0: 00 55 07 0D 79 05 00 00 C0 01 52 31 30 00 56 07  .U..y....R10.V.
  000000014000E3E0: 0D 79 05 00 00 C8 01 52 31 31 00 57 07 0D 79 05  .y....R11.W..y.
  000000014000E3F0: 00 00 D0 01 52 31 32 00 58 07 0D 79 05 00 00 D8  ...R12.X..y...
  000000014000E400: 01 52 31 33 00 59 07 0D 79 05 00 00 E0 01 52 31  .R13.Y..y....R1
  000000014000E410: 34 00 5A 07 0D 79 05 00 00 E8 01 52 31 35 00 5B  4.Z..y....R15.[
  000000014000E420: 07 0D 79 05 00 00 F0 01 52 69 70 00 5C 07 0D 79  ..y....Rip.\..y
  000000014000E430: 05 00 00 F8 3C C0 09 00 00 10 00 01 0C 56 65 63  ...<.......Vec
  000000014000E440: 74 6F 72 52 65 67 69 73 74 65 72 00 75 07 0B F3  torRegister.u..
  000000014000E450: 09 00 00 00 03 16 56 65 63 74 6F 72 43 6F 6E 74  ......VectorCont
  000000014000E460: 72 6F 6C 00 76 07 0D 79 05 00 00 A0 04 16 44 65  rol.v..y......De
  000000014000E470: 62 75 67 43 6F 6E 74 72 6F 6C 00 77 07 0D 79 05  bugControl.w..y.
  000000014000E480: 00 00 A8 04 16 4C 61 73 74 42 72 61 6E 63 68 54  ....LastBranchT
  000000014000E490: 6F 52 69 70 00 78 07 0D 79 05 00 00 B0 04 16 4C  oRip.x..y.....L
  000000014000E4A0: 61 73 74 42 72 61 6E 63 68 46 72 6F 6D 52 69 70  astBranchFromRip
  000000014000E4B0: 00 79 07 0D 79 05 00 00 B8 04 16 4C 61 73 74 45  .y..y.....LastE
  000000014000E4C0: 78 63 65 70 74 69 6F 6E 54 6F 52 69 70 00 7A 07  xceptionToRip.z.
  000000014000E4D0: 0D 79 05 00 00 C0 04 16 4C 61 73 74 45 78 63 65  .y.....LastExce
  000000014000E4E0: 70 74 69 6F 6E 46 72 6F 6D 52 69 70 00 7B 07 0D  ptionFromRip.{..
  000000014000E4F0: 79 05 00 00 C8 04 00 0A 42 59 54 45 00 05 8B 19  y......BYTE....
  000000014000E500: 3D 01 00 00 0A 57 4F 52 44 00 05 8C 1A E5 00 00  =....WORD......
  000000014000E510: 00 0A 44 57 4F 52 44 00 05 8D 1D 28 01 00 00 08  ..DWORD....(....
  000000014000E520: 04 04 66 6C 6F 61 74 00 05 2D 05 00 00 3D 09 5F  ..float..-...=._
  000000014000E530: 5F 67 6C 6F 62 61 6C 6C 6F 63 61 6C 65 73 74 61  _globallocalesta
  000000014000E540: 74 75 73 00 0B 38 0E FB 00 00 00 08 01 06 73 69  tus..8.......si
  000000014000E550: 67 6E 65 64 20 63 68 61 72 00 08 02 05 73 68 6F  gned char....sho
  000000014000E560: 72 74 20 69 6E 74 00 0A 55 4C 4F 4E 47 5F 50 54  rt int..ULONG_PT
  000000014000E570: 52 00 06 31 2E 93 00 00 00 0A 44 57 4F 52 44 36  R..1......DWORD6
  000000014000E580: 34 00 06 C2 2E 93 00 00 00 06 50 56 4F 49 44 00  4........PVOID.
  000000014000E590: 02 12 01 11 FD 01 00 00 06 4C 4F 4E 47 00 02 30  ........LONG..0
  000000014000E5A0: 01 14 02 01 00 00 06 4C 4F 4E 47 4C 4F 4E 47 00  .......LONGLONG.
  000000014000E5B0: 02 07 02 25 AD 00 00 00 06 55 4C 4F 4E 47 4C 4F  ...%....ULONGLO
  000000014000E5C0: 4E 47 00 02 08 02 2E 93 00 00 00 06 45 58 43 45  NG..........EXCE
  000000014000E5D0: 50 54 49 4F 4E 5F 52 4F 55 54 49 4E 45 00 02 E2  PTION_ROUTINE..
  000000014000E5E0: 02 29 E6 05 00 00 26 FB 00 00 00 04 06 00 00 04  .)...&........
  000000014000E5F0: 4E 01 00 00 04 89 05 00 00 04 04 02 00 00 04 89  N...............
  000000014000E600: 05 00 00 00 06 50 45 58 43 45 50 54 49 4F 4E 5F  .....PEXCEPTION_
  000000014000E610: 52 4F 55 54 49 4E 45 00 02 E5 02 20 20 06 00 00  ROUTINE...  ...
  000000014000E620: 05 CB 05 00 00 3E 5F 4D 31 32 38 41 00 10 10 02  ....>_M128A....
  000000014000E630: D8 05 28 53 06 00 00 01 4C 6F 77 00 D9 05 11 B8  .(S....Low...
  000000014000E640: 05 00 00 00 01 48 69 67 68 00 DA 05 10 A6 05 00  .....High.....
  000000014000E650: 00 08 00 2E 4D 31 32 38 41 00 DB 05 07 25 06 00  ....M128A...%..
  000000014000E660: 00 20 53 06 00 00 71 06 00 00 0F 93 00 00 00 07  . S...q.........
  000000014000E670: 00 20 53 06 00 00 81 06 00 00 0F 93 00 00 00 0F  . S.............
  000000014000E680: 00 17 F7 04 00 00 91 06 00 00 0F 93 00 00 00 5F  .............._
  000000014000E690: 00 05 96 06 00 00 3F FB 00 00 00 08 08 04 64 6F  ......?......do
  000000014000E6A0: 75 62 6C 65 00 08 10 04 6C 6F 6E 67 20 64 6F 75  uble....long dou
  000000014000E6B0: 62 6C 65 00 05 B9 06 00 00 40 0A 5F 69 6E 76 61  ble.....@._inva
  000000014000E6C0: 6C 69 64 5F 70 61 72 61 6D 65 74 65 72 5F 68 61  lid_parameter_ha
  000000014000E6D0: 6E 64 6C 65 72 00 07 8C 1A DD 06 00 00 05 E2 06  ndler.........
  000000014000E6E0: 00 00 2F 01 07 00 00 04 01 07 00 00 04 01 07 00  ../.............
  000000014000E6F0: 00 04 01 07 00 00 04 18 01 00 00 04 BE 00 00 00  ...............
  000000014000E700: 00 05 E0 00 00 00 08 02 04 5F 46 6C 6F 61 74 31  ........_Float1
  000000014000E710: 36 00 08 02 04 5F 5F 62 66 31 36 00 2D 5F 58 4D  6....__bf16.-_XM
  000000014000E720: 4D 5F 53 41 56 45 5F 41 52 45 41 33 32 00 00 02  M_SAVE_AREA32...
  000000014000E730: 21 07 12 7B 08 00 00 01 43 6F 6E 74 72 6F 6C 57  !..{....ControlW
  000000014000E740: 6F 72 64 00 22 07 0A 04 05 00 00 00 01 53 74 61  ord."........Sta
  000000014000E750: 74 75 73 57 6F 72 64 00 23 07 0A 04 05 00 00 02  tusWord.#.......
  000000014000E760: 01 54 61 67 57 6F 72 64 00 24 07 0A F7 04 00 00  .TagWord.$.....
  000000014000E770: 04 01 52 65 73 65 72 76 65 64 31 00 25 07 0A F7  ..Reserved1.%..
  000000014000E780: 04 00 00 05 01 45 72 72 6F 72 4F 70 63 6F 64 65  .....ErrorOpcode
  000000014000E790: 00 26 07 0A 04 05 00 00 06 01 45 72 72 6F 72 4F  .&........ErrorO
  000000014000E7A0: 66 66 73 65 74 00 27 07 0B 11 05 00 00 08 01 45  ffset.'........E
  000000014000E7B0: 72 72 6F 72 53 65 6C 65 63 74 6F 72 00 28 07 0A  rrorSelector.(..
  000000014000E7C0: 04 05 00 00 0C 01 52 65 73 65 72 76 65 64 32 00  ......Reserved2.
  000000014000E7D0: 29 07 0A 04 05 00 00 0E 01 44 61 74 61 4F 66 66  )........DataOff
  000000014000E7E0: 73 65 74 00 2A 07 0B 11 05 00 00 10 01 44 61 74  set.*........Dat
  000000014000E7F0: 61 53 65 6C 65 63 74 6F 72 00 2B 07 0A 04 05 00  aSelector.+.....
  000000014000E800: 00 14 01 52 65 73 65 72 76 65 64 33 00 2C 07 0A  ...Reserved3.,..
  000000014000E810: 04 05 00 00 16 01 4D 78 43 73 72 00 2D 07 0B 11  ......MxCsr.-...
  000000014000E820: 05 00 00 18 01 4D 78 43 73 72 5F 4D 61 73 6B 00  .....MxCsr_Mask.
  000000014000E830: 2E 07 0B 11 05 00 00 1C 0D 46 6C 6F 61 74 52 65  .........FloatRe
  000000014000E840: 67 69 73 74 65 72 73 00 2F 07 0B 61 06 00 00 20  gisters./..a... 
  000000014000E850: 0D 58 6D 6D 52 65 67 69 73 74 65 72 73 00 30 07  .XmmRegisters.0.
  000000014000E860: 0B 71 06 00 00 A0 16 52 65 73 65 72 76 65 64 34  .q.....Reserved4
  000000014000E870: 00 31 07 0A 81 06 00 00 A0 01 00 2E 58 4D 4D 5F  .1..........XMM_
  000000014000E880: 53 41 56 45 5F 41 52 45 41 33 32 00 32 07 05 1C  SAVE_AREA32.2...
  000000014000E890: 07 00 00 41 A0 01 10 02 60 07 16 B0 09 00 00 0D  ...A....`......
  000000014000E8A0: 48 65 61 64 65 72 00 61 07 08 B0 09 00 00 00 0D  Header.a.......
  000000014000E8B0: 4C 65 67 61 63 79 00 62 07 08 61 06 00 00 20 0D  Legacy.b..a... .
  000000014000E8C0: 58 6D 6D 30 00 63 07 08 53 06 00 00 A0 0D 58 6D  Xmm0.c..S.....Xm
  000000014000E8D0: 6D 31 00 64 07 08 53 06 00 00 B0 0D 58 6D 6D 32  m1.d..S....Xmm2
  000000014000E8E0: 00 65 07 08 53 06 00 00 C0 0D 58 6D 6D 33 00 66  .e..S....Xmm3.f
  000000014000E8F0: 07 08 53 06 00 00 D0 0D 58 6D 6D 34 00 67 07 08  ..S....Xmm4.g..
  000000014000E900: 53 06 00 00 E0 0D 58 6D 6D 35 00 68 07 08 53 06  S....Xmm5.h..S.
  000000014000E910: 00 00 F0 0C 58 6D 6D 36 00 69 07 08 53 06 00 00  ...Xmm6.i..S...
  000000014000E920: 00 01 0C 58 6D 6D 37 00 6A 07 08 53 06 00 00 10  ...Xmm7.j..S....
  000000014000E930: 01 0C 58 6D 6D 38 00 6B 07 08 53 06 00 00 20 01  ..Xmm8.k..S... .
  000000014000E940: 0C 58 6D 6D 39 00 6C 07 08 53 06 00 00 30 01 0C  .Xmm9.l..S...0..
  000000014000E950: 58 6D 6D 31 30 00 6D 07 08 53 06 00 00 40 01 0C  Xmm10.m..S...@..
  000000014000E960: 58 6D 6D 31 31 00 6E 07 08 53 06 00 00 50 01 0C  Xmm11.n..S...P..
  000000014000E970: 58 6D 6D 31 32 00 6F 07 08 53 06 00 00 60 01 0C  Xmm12.o..S...`..
  000000014000E980: 58 6D 6D 31 33 00 70 07 08 53 06 00 00 70 01 0C  Xmm13.p..S...p..
  000000014000E990: 58 6D 6D 31 34 00 71 07 08 53 06 00 00 80 01 0C  Xmm14.q..S......
  000000014000E9A0: 58 6D 6D 31 35 00 72 07 08 53 06 00 00 90 01 00  Xmm15.r..S......
  000000014000E9B0: 20 53 06 00 00 C0 09 00 00 0F 93 00 00 00 01 00   S.............
  000000014000E9C0: 42 00 02 10 02 5D 07 14 F3 09 00 00 30 46 6C 74  B....].....0Flt
  000000014000E9D0: 53 61 76 65 00 5E 07 7B 08 00 00 30 46 6C 6F 61  Save.^.{...0Floa
  000000014000E9E0: 74 53 61 76 65 00 5F 07 7B 08 00 00 43 93 08 00  tSave._.{...C...
  000000014000E9F0: 00 10 00 20 53 06 00 00 03 0A 00 00 0F 93 00 00  ... S...........
  000000014000EA00: 00 19 00 06 50 43 4F 4E 54 45 58 54 00 02 7C 07  ....PCONTEXT..|.
  000000014000EA10: 0E 04 02 00 00 17 67 05 00 00 25 0A 00 00 0F 93  ......g...%.....
  000000014000EA20: 00 00 00 0E 00 06 45 58 43 45 50 54 49 4F 4E 5F  ......EXCEPTION_
  000000014000EA30: 52 45 43 4F 52 44 00 02 88 0B 07 53 01 00 00 06  RECORD.....S....
  000000014000EA40: 50 45 58 43 45 50 54 49 4F 4E 5F 52 45 43 4F 52  PEXCEPTION_RECOR
  000000014000EA50: 44 00 02 8A 0B 1F 5A 0A 00 00 05 25 0A 00 00 0E  D.....Z....%....
  000000014000EA60: 5F 45 58 43 45 50 54 49 4F 4E 5F 50 4F 49 4E 54  _EXCEPTION_POINT
  000000014000EA70: 45 52 53 00 10 9F 0B 14 A1 0A 00 00 02 9E 01 00  ERS............
  000000014000EA80: 00 A0 0B 19 3F 0A 00 00 00 01 43 6F 6E 74 65 78  ....?.....Contex
  000000014000EA90: 74 52 65 63 6F 72 64 00 A1 0B 10 03 0A 00 00 08  tRecord........
  000000014000EAA0: 00 06 45 58 43 45 50 54 49 4F 4E 5F 50 4F 49 4E  ..EXCEPTION_POIN
  000000014000EAB0: 54 45 52 53 00 02 A2 0B 07 5F 0A 00 00 05 5F 0A  TERS...._...._.
  000000014000EAC0: 00 00 27 80 11 E4 0A 00 00 18 4E 65 78 74 00 81  ..'......Next..
  000000014000EAD0: 11 30 19 0B 00 00 18 70 72 65 76 00 82 11 30 19  .0.....prev...0.
  000000014000EAE0: 0B 00 00 00 0E 5F 45 58 43 45 50 54 49 4F 4E 5F  ....._EXCEPTION_
  000000014000EAF0: 52 45 47 49 53 54 52 41 54 49 4F 4E 5F 52 45 43  REGISTRATION_REC
  000000014000EB00: 4F 52 44 00 10 7F 11 14 19 0B 00 00 28 C2 0A 00  ORD.........(..
  000000014000EB10: 00 00 28 1E 0B 00 00 08 00 05 E4 0A 00 00 27 84  ..(..........'.
  000000014000EB20: 11 46 0B 00 00 18 48 61 6E 64 6C 65 72 00 85 11  .F....Handler...
  000000014000EB30: 1C 04 06 00 00 18 68 61 6E 64 6C 65 72 00 86 11  ......handler...
  000000014000EB40: 1C 04 06 00 00 00 27 97 11 70 0B 00 00 18 46 69  ......'..p....Fi
  000000014000EB50: 62 65 72 44 61 74 61 00 98 11 08 89 05 00 00 18  berData.........
  000000014000EB60: 56 65 72 73 69 6F 6E 00 99 11 08 11 05 00 00 00  Version.........
  000000014000EB70: 0E 5F 4E 54 5F 54 49 42 00 38 92 11 23 08 0C 00  ._NT_TIB.8..#...
  000000014000EB80: 00 01 45 78 63 65 70 74 69 6F 6E 4C 69 73 74 00  ..ExceptionList.
  000000014000EB90: 93 11 2E 19 0B 00 00 00 01 53 74 61 63 6B 42 61  .........StackBa
  000000014000EBA0: 73 65 00 94 11 0D 89 05 00 00 08 01 53 74 61 63  se..........Stac
  000000014000EBB0: 6B 4C 69 6D 69 74 00 95 11 0D 89 05 00 00 10 01  kLimit..........
  000000014000EBC0: 53 75 62 53 79 73 74 65 6D 54 69 62 00 96 11 0D  SubSystemTib....
  000000014000EBD0: 89 05 00 00 18 28 46 0B 00 00 20 01 41 72 62 69  .....(F... .Arbi
  000000014000EBE0: 74 72 61 72 79 55 73 65 72 50 6F 69 6E 74 65 72  traryUserPointer
  000000014000EBF0: 00 9B 11 0D 89 05 00 00 28 01 53 65 6C 66 00 9C  ........(.Self..
  000000014000EC00: 11 17 08 0C 00 00 30 00 05 70 0B 00 00 06 4E 54  ......0..p....NT
  000000014000EC10: 5F 54 49 42 00 02 9D 11 07 70 0B 00 00 06 50 4E  _TIB.....p....PN
  000000014000EC20: 54 5F 54 49 42 00 02 9E 11 15 2E 0C 00 00 05 0D  T_TIB...........
  000000014000EC30: 0C 00 00 31 4A 4F 42 5F 4F 42 4A 45 43 54 5F 4E  ...1JOB_OBJECT_N
  000000014000EC40: 45 54 5F 52 41 54 45 5F 43 4F 4E 54 52 4F 4C 5F  ET_RATE_CONTROL_
  000000014000EC50: 46 4C 41 47 53 00 18 01 00 00 02 C5 13 12 05 0D  FLAGS..........
  000000014000EC60: 00 00 03 4A 4F 42 5F 4F 42 4A 45 43 54 5F 4E 45  ...JOB_OBJECT_NE
  000000014000EC70: 54 5F 52 41 54 45 5F 43 4F 4E 54 52 4F 4C 5F 45  T_RATE_CONTROL_E
  000000014000EC80: 4E 41 42 4C 45 00 01 03 4A 4F 42 5F 4F 42 4A 45  NABLE...JOB_OBJE
  000000014000EC90: 43 54 5F 4E 45 54 5F 52 41 54 45 5F 43 4F 4E 54  CT_NET_RATE_CONT
  000000014000ECA0: 52 4F 4C 5F 4D 41 58 5F 42 41 4E 44 57 49 44 54  ROL_MAX_BANDWIDT
  000000014000ECB0: 48 00 02 03 4A 4F 42 5F 4F 42 4A 45 43 54 5F 4E  H...JOB_OBJECT_N
  000000014000ECC0: 45 54 5F 52 41 54 45 5F 43 4F 4E 54 52 4F 4C 5F  ET_RATE_CONTROL_
  000000014000ECD0: 44 53 43 50 5F 54 41 47 00 04 03 4A 4F 42 5F 4F  DSCP_TAG...JOB_O
  000000014000ECE0: 42 4A 45 43 54 5F 4E 45 54 5F 52 41 54 45 5F 43  BJECT_NET_RATE_C
  000000014000ECF0: 4F 4E 54 52 4F 4C 5F 56 41 4C 49 44 5F 46 4C 41  ONTROL_VALID_FLA
  000000014000ED00: 47 53 00 07 00 0E 5F 49 4D 41 47 45 5F 44 4F 53  GS...._IMAGE_DOS
  000000014000ED10: 5F 48 45 41 44 45 52 00 40 7F 1C 14 5A 0E 00 00  _HEADER.@...Z...
  000000014000ED20: 01 65 5F 6D 61 67 69 63 00 80 1C 0C 04 05 00 00  .e_magic........
  000000014000ED30: 00 01 65 5F 63 62 6C 70 00 81 1C 0C 04 05 00 00  ..e_cblp........
  000000014000ED40: 02 01 65 5F 63 70 00 82 1C 0C 04 05 00 00 04 01  ..e_cp..........
  000000014000ED50: 65 5F 63 72 6C 63 00 83 1C 0C 04 05 00 00 06 01  e_crlc..........
  000000014000ED60: 65 5F 63 70 61 72 68 64 72 00 84 1C 0C 04 05 00  e_cparhdr.......
  000000014000ED70: 00 08 01 65 5F 6D 69 6E 61 6C 6C 6F 63 00 85 1C  ...e_minalloc...
  000000014000ED80: 0C 04 05 00 00 0A 01 65 5F 6D 61 78 61 6C 6C 6F  .......e_maxallo
  000000014000ED90: 63 00 86 1C 0C 04 05 00 00 0C 01 65 5F 73 73 00  c..........e_ss.
  000000014000EDA0: 87 1C 0C 04 05 00 00 0E 01 65 5F 73 70 00 88 1C  .........e_sp...
  000000014000EDB0: 0C 04 05 00 00 10 01 65 5F 63 73 75 6D 00 89 1C  .......e_csum...
  000000014000EDC0: 0C 04 05 00 00 12 01 65 5F 69 70 00 8A 1C 0C 04  .......e_ip.....
  000000014000EDD0: 05 00 00 14 01 65 5F 63 73 00 8B 1C 0C 04 05 00  .....e_cs.......
  000000014000EDE0: 00 16 01 65 5F 6C 66 61 72 6C 63 00 8C 1C 0C 04  ...e_lfarlc.....
  000000014000EDF0: 05 00 00 18 01 65 5F 6F 76 6E 6F 00 8D 1C 0C 04  .....e_ovno.....
  000000014000EE00: 05 00 00 1A 01 65 5F 72 65 73 00 8E 1C 0C 5A 0E  .....e_res....Z.
  000000014000EE10: 00 00 1C 01 65 5F 6F 65 6D 69 64 00 8F 1C 0C 04  ....e_oemid.....
  000000014000EE20: 05 00 00 24 01 65 5F 6F 65 6D 69 6E 66 6F 00 90  ...$.e_oeminfo..
  000000014000EE30: 1C 0C 04 05 00 00 26 01 65 5F 72 65 73 32 00 91  ......&.e_res2..
  000000014000EE40: 1C 0C 6A 0E 00 00 28 01 65 5F 6C 66 61 6E 65 77  ..j...(.e_lfanew
  000000014000EE50: 00 92 1C 0C 98 05 00 00 3C 00 17 04 05 00 00 6A  ........<......j
  000000014000EE60: 0E 00 00 0F 93 00 00 00 03 00 17 04 05 00 00 7A  ...............z
  000000014000EE70: 0E 00 00 0F 93 00 00 00 09 00 06 49 4D 41 47 45  ...........IMAGE
  000000014000EE80: 5F 44 4F 53 5F 48 45 41 44 45 52 00 02 93 1C 07  _DOS_HEADER.....
  000000014000EE90: 05 0D 00 00 06 50 49 4D 41 47 45 5F 44 4F 53 5F  .....PIMAGE_DOS_
  000000014000EEA0: 48 45 41 44 45 52 00 02 93 1C 19 AF 0E 00 00 05  HEADER.........
  000000014000EEB0: 05 0D 00 00 0E 5F 49 4D 41 47 45 5F 46 49 4C 45  ....._IMAGE_FILE
  000000014000EEC0: 5F 48 45 41 44 45 52 00 14 EE 1C 14 81 0F 00 00  _HEADER........
  000000014000EED0: 01 4D 61 63 68 69 6E 65 00 EF 1C 0C 04 05 00 00  .Machine.......
  000000014000EEE0: 00 01 4E 75 6D 62 65 72 4F 66 53 65 63 74 69 6F  ..NumberOfSectio
  000000014000EEF0: 6E 73 00 F0 1C 0C 04 05 00 00 02 01 54 69 6D 65  ns.........Time
  000000014000EF00: 44 61 74 65 53 74 61 6D 70 00 F1 1C 0D 11 05 00  DateStamp......
  000000014000EF10: 00 04 01 50 6F 69 6E 74 65 72 54 6F 53 79 6D 62  ...PointerToSymb
  000000014000EF20: 6F 6C 54 61 62 6C 65 00 F2 1C 0D 11 05 00 00 08  olTable........
  000000014000EF30: 01 4E 75 6D 62 65 72 4F 66 53 79 6D 62 6F 6C 73  .NumberOfSymbols
  000000014000EF40: 00 F3 1C 0D 11 05 00 00 0C 01 53 69 7A 65 4F 66  .........SizeOf
  000000014000EF50: 4F 70 74 69 6F 6E 61 6C 48 65 61 64 65 72 00 F4  OptionalHeader.
  000000014000EF60: 1C 0C 04 05 00 00 10 01 43 68 61 72 61 63 74 65  ........Characte
  000000014000EF70: 72 69 73 74 69 63 73 00 F5 1C 0C 04 05 00 00 12  ristics........
  000000014000EF80: 00 06 49 4D 41 47 45 5F 46 49 4C 45 5F 48 45 41  ..IMAGE_FILE_HEA
  000000014000EF90: 44 45 52 00 02 F6 1C 07 B4 0E 00 00 0E 5F 49 4D  DER........_IM
  000000014000EFA0: 41 47 45 5F 44 41 54 41 5F 44 49 52 45 43 54 4F  AGE_DATA_DIRECTO
  000000014000EFB0: 52 59 00 08 2B 1D 14 E2 0F 00 00 01 56 69 72 74  RY..+......Virt
  000000014000EFC0: 75 61 6C 41 64 64 72 65 73 73 00 2C 1D 0D 11 05  ualAddress.,....
  000000014000EFD0: 00 00 00 01 53 69 7A 65 00 2D 1D 0D 11 05 00 00  ....Size.-......
  000000014000EFE0: 04 00 06 49 4D 41 47 45 5F 44 41 54 41 5F 44 49  ...IMAGE_DATA_DI
  000000014000EFF0: 52 45 43 54 4F 52 59 00 02 2E 1D 07 9C 0F 00 00  RECTORY.........
  000000014000F000: 0E 5F 49 4D 41 47 45 5F 4F 50 54 49 4F 4E 41 4C  ._IMAGE_OPTIONAL
  000000014000F010: 5F 48 45 41 44 45 52 00 E0 32 1D 14 BD 11 00 00  _HEADER.2.....
  000000014000F020: 01 4D 61 67 69 63 00 34 1D 0C 04 05 00 00 00 02  .Magic.4........
  000000014000F030: 86 00 00 00 35 1D 0C F7 04 00 00 02 02 E5 00 00  ....5.........
  000000014000F040: 00 36 1D 0C F7 04 00 00 03 02 7B 00 00 00 37 1D  .6.......{...7.
  000000014000F050: 0D 11 05 00 00 04 02 AB 00 00 00 38 1D 0D 11 05  ..........8....
  000000014000F060: 00 00 08 02 10 01 00 00 39 1D 0D 11 05 00 00 0C  ........9.......
  000000014000F070: 02 28 01 00 00 3A 1D 0D 11 05 00 00 10 02 1F 00  .(...:..........
  000000014000F080: 00 00 3B 1D 0D 11 05 00 00 14 01 42 61 73 65 4F  ..;........BaseO
  000000014000F090: 66 44 61 74 61 00 3C 1D 0D 11 05 00 00 18 02 71  fData.<........q
  000000014000F0A0: 00 00 00 3D 1D 0D 11 05 00 00 1C 02 2A 00 00 00  ...=........*...
  000000014000F0B0: 3E 1D 0D 11 05 00 00 20 02 7C 01 00 00 3F 1D 0D  >...... .|...?..
  000000014000F0C0: 11 05 00 00 24 02 60 01 00 00 40 1D 0C 04 05 00  ....$.`...@.....
  000000014000F0D0: 00 28 02 D3 01 00 00 41 1D 0C 04 05 00 00 2A 02  .(....A......*.
  000000014000F0E0: 0D 02 00 00 42 1D 0C 04 05 00 00 2C 02 C1 01 00  ....B......,...
  000000014000F0F0: 00 43 1D 0C 04 05 00 00 2E 02 3C 01 00 00 44 1D  .C........<...D.
  000000014000F100: 0C 04 05 00 00 30 02 3B 00 00 00 45 1D 0C 04 05  .....0.;...E....
  000000014000F110: 00 00 32 02 FB 01 00 00 46 1D 0D 11 05 00 00 34  ..2....F......4
  000000014000F120: 02 13 00 00 00 47 1D 0D 11 05 00 00 38 02 52 01  .....G......8.R.
  000000014000F130: 00 00 48 1D 0D 11 05 00 00 3C 02 0A 00 00 00 49  ..H......<.....I
  000000014000F140: 1D 0D 11 05 00 00 40 02 00 00 00 00 4A 1D 0C 04  ......@.....J...
  000000014000F150: 05 00 00 44 02 AE 01 00 00 4B 1D 0C 04 05 00 00  ...D....K......
  000000014000F160: 46 02 C1 00 00 00 4C 1D 0D 11 05 00 00 48 02 5F  F....L......H._
  000000014000F170: 00 00 00 4D 1D 0D 11 05 00 00 4C 02 99 00 00 00  ...M......L.....
  000000014000F180: 4E 1D 0D 11 05 00 00 50 02 D4 00 00 00 4F 1D 0D  N......P....O..
  000000014000F190: 11 05 00 00 54 02 EF 01 00 00 50 1D 0D 11 05 00  ....T....P.....
  000000014000F1A0: 00 58 02 8A 01 00 00 51 1D 0D 11 05 00 00 5C 02  .X.....Q......\.
  000000014000F1B0: 51 00 00 00 52 1D 1C BD 11 00 00 60 00 17 E2 0F  Q...R.....`...
  000000014000F1C0: 00 00 CD 11 00 00 0F 93 00 00 00 0F 00 06 50 49  .............PI
  000000014000F1D0: 4D 41 47 45 5F 4F 50 54 49 4F 4E 41 4C 5F 48 45  MAGE_OPTIONAL_HE
  000000014000F1E0: 41 44 45 52 33 32 00 02 53 1D 20 EF 11 00 00 05  ADER32..S. ....
  000000014000F1F0: 00 10 00 00 0E 5F 49 4D 41 47 45 5F 4F 50 54 49  ....._IMAGE_OPTI
  000000014000F200: 4F 4E 41 4C 5F 48 45 41 44 45 52 36 34 00 F0 65  ONAL_HEADER64.e
  000000014000F210: 1D 14 9F 13 00 00 01 4D 61 67 69 63 00 66 1D 0C  .......Magic.f..
  000000014000F220: 04 05 00 00 00 02 86 00 00 00 67 1D 0C F7 04 00  ..........g....
  000000014000F230: 00 02 02 E5 00 00 00 68 1D 0C F7 04 00 00 03 02  ......h.......
  000000014000F240: 7B 00 00 00 69 1D 0D 11 05 00 00 04 02 AB 00 00  {...i..........
  000000014000F250: 00 6A 1D 0D 11 05 00 00 08 02 10 01 00 00 6B 1D  .j............k.
  000000014000F260: 0D 11 05 00 00 0C 02 28 01 00 00 6C 1D 0D 11 05  .......(...l....
  000000014000F270: 00 00 10 02 1F 00 00 00 6D 1D 0D 11 05 00 00 14  ........m.......
  000000014000F280: 02 71 00 00 00 6E 1D 11 B8 05 00 00 18 02 2A 00  .q...n.......*.
  000000014000F290: 00 00 6F 1D 0D 11 05 00 00 20 02 7C 01 00 00 70  ..o...... .|...p
  000000014000F2A0: 1D 0D 11 05 00 00 24 02 60 01 00 00 71 1D 0C 04  ......$.`...q...
  000000014000F2B0: 05 00 00 28 02 D3 01 00 00 72 1D 0C 04 05 00 00  ...(....r......
  000000014000F2C0: 2A 02 0D 02 00 00 73 1D 0C 04 05 00 00 2C 02 C1  *.....s......,.
  000000014000F2D0: 01 00 00 74 1D 0C 04 05 00 00 2E 02 3C 01 00 00  ...t........<...
  000000014000F2E0: 75 1D 0C 04 05 00 00 30 02 3B 00 00 00 76 1D 0C  u......0.;...v..
  000000014000F2F0: 04 05 00 00 32 02 FB 01 00 00 77 1D 0D 11 05 00  ....2....w.....
  000000014000F300: 00 34 02 13 00 00 00 78 1D 0D 11 05 00 00 38 02  .4.....x......8.
  000000014000F310: 52 01 00 00 79 1D 0D 11 05 00 00 3C 02 0A 00 00  R...y......<....
  000000014000F320: 00 7A 1D 0D 11 05 00 00 40 02 00 00 00 00 7B 1D  .z......@.....{.
  000000014000F330: 0C 04 05 00 00 44 02 AE 01 00 00 7C 1D 0C 04 05  .....D....|....
  000000014000F340: 00 00 46 02 C1 00 00 00 7D 1D 11 B8 05 00 00 48  ..F....}.....H
  000000014000F350: 02 5F 00 00 00 7E 1D 11 B8 05 00 00 50 02 99 00  ._...~.....P...
  000000014000F360: 00 00 7F 1D 11 B8 05 00 00 58 02 D4 00 00 00 80  ........X.....
  000000014000F370: 1D 11 B8 05 00 00 60 02 EF 01 00 00 81 1D 0D 11  .....`........
  000000014000F380: 05 00 00 68 02 8A 01 00 00 82 1D 0D 11 05 00 00  ...h............
  000000014000F390: 6C 02 51 00 00 00 83 1D 1C BD 11 00 00 70 00 06  l.Q.........p..
  000000014000F3A0: 49 4D 41 47 45 5F 4F 50 54 49 4F 4E 41 4C 5F 48  IMAGE_OPTIONAL_H
  000000014000F3B0: 45 41 44 45 52 36 34 00 02 84 1D 07 F4 11 00 00  EADER64........
  000000014000F3C0: 06 50 49 4D 41 47 45 5F 4F 50 54 49 4F 4E 41 4C  .PIMAGE_OPTIONAL
  000000014000F3D0: 5F 48 45 41 44 45 52 36 34 00 02 84 1D 20 E2 13  _HEADER64.... .
  000000014000F3E0: 00 00 05 F4 11 00 00 44 5F 49 4D 41 47 45 5F 4E  ......D_IMAGE_N
  000000014000F3F0: 54 5F 48 45 41 44 45 52 53 36 34 00 08 01 02 9B  T_HEADERS64.....
  000000014000F400: 1D 14 46 14 00 00 01 53 69 67 6E 61 74 75 72 65  ..F....Signature
  000000014000F410: 00 9C 1D 0D 11 05 00 00 00 01 46 69 6C 65 48 65  ..........FileHe
  000000014000F420: 61 64 65 72 00 9D 1D 19 81 0F 00 00 04 01 4F 70  ader..........Op
  000000014000F430: 74 69 6F 6E 61 6C 48 65 61 64 65 72 00 9E 1D 1F  tionalHeader....
  000000014000F440: 9F 13 00 00 18 00 06 50 49 4D 41 47 45 5F 4E 54  .......PIMAGE_NT
  000000014000F450: 5F 48 45 41 44 45 52 53 36 34 00 02 9F 1D 1B 63  _HEADERS64.....c
  000000014000F460: 14 00 00 05 E7 13 00 00 06 50 49 4D 41 47 45 5F  ........PIMAGE_
  000000014000F470: 4E 54 5F 48 45 41 44 45 52 53 00 02 AE 1D 21 46  NT_HEADERS...!F
  000000014000F480: 14 00 00 06 50 49 4D 41 47 45 5F 54 4C 53 5F 43  ....PIMAGE_TLS_C
  000000014000F490: 41 4C 4C 42 41 43 4B 00 02 DF 20 1A A5 14 00 00  ALLBACK.. ....
  000000014000F4A0: 25 83 14 00 00 05 AA 14 00 00 2F BF 14 00 00 04  %......../....
  000000014000F4B0: 89 05 00 00 04 11 05 00 00 04 89 05 00 00 00 05  ................
  000000014000F4C0: C4 14 00 00 26 98 05 00 00 D3 14 00 00 04 BD 0A  ...&.........
  000000014000F4D0: 00 00 00 0A 50 54 4F 50 5F 4C 45 56 45 4C 5F 45  ....PTOP_LEVEL_E
  000000014000F4E0: 58 43 45 50 54 49 4F 4E 5F 46 49 4C 54 45 52 00  XCEPTION_FILTER.
  000000014000F4F0: 08 11 17 BF 14 00 00 0A 4C 50 54 4F 50 5F 4C 45  .......LPTOP_LE
  000000014000F500: 56 45 4C 5F 45 58 43 45 50 54 49 4F 4E 5F 46 49  VEL_EXCEPTION_FI
  000000014000F510: 4C 54 45 52 00 08 12 25 D3 14 00 00 05 0E 01 00  LTER...%.......
  000000014000F520: 00 45 74 61 67 43 4F 49 4E 49 54 42 41 53 45 00  .EtagCOINITBASE.
  000000014000F530: 07 04 18 01 00 00 09 95 0E 59 15 00 00 03 43 4F  .........Y....CO
  000000014000F540: 49 4E 49 54 42 41 53 45 5F 4D 55 4C 54 49 54 48  INITBASE_MULTITH
  000000014000F550: 52 45 41 44 45 44 00 00 00 31 56 41 52 45 4E 55  READED...1VARENU
  000000014000F560: 4D 00 18 01 00 00 0A 01 02 06 E3 17 00 00 03 56  M.............V
  000000014000F570: 54 5F 45 4D 50 54 59 00 00 03 56 54 5F 4E 55 4C  T_EMPTY...VT_NUL
  000000014000F580: 4C 00 01 03 56 54 5F 49 32 00 02 03 56 54 5F 49  L...VT_I2...VT_I
  000000014000F590: 34 00 03 03 56 54 5F 52 34 00 04 03 56 54 5F 52  4...VT_R4...VT_R
  000000014000F5A0: 38 00 05 03 56 54 5F 43 59 00 06 03 56 54 5F 44  8...VT_CY...VT_D
  000000014000F5B0: 41 54 45 00 07 03 56 54 5F 42 53 54 52 00 08 03  ATE...VT_BSTR...
  000000014000F5C0: 56 54 5F 44 49 53 50 41 54 43 48 00 09 03 56 54  VT_DISPATCH...VT
  000000014000F5D0: 5F 45 52 52 4F 52 00 0A 03 56 54 5F 42 4F 4F 4C  _ERROR...VT_BOOL
  000000014000F5E0: 00 0B 03 56 54 5F 56 41 52 49 41 4E 54 00 0C 03  ...VT_VARIANT...
  000000014000F5F0: 56 54 5F 55 4E 4B 4E 4F 57 4E 00 0D 03 56 54 5F  VT_UNKNOWN...VT_
  000000014000F600: 44 45 43 49 4D 41 4C 00 0E 03 56 54 5F 49 31 00  DECIMAL...VT_I1.
  000000014000F610: 10 03 56 54 5F 55 49 31 00 11 03 56 54 5F 55 49  ..VT_UI1...VT_UI
  000000014000F620: 32 00 12 03 56 54 5F 55 49 34 00 13 03 56 54 5F  2...VT_UI4...VT_
  000000014000F630: 49 38 00 14 03 56 54 5F 55 49 38 00 15 03 56 54  I8...VT_UI8...VT
  000000014000F640: 5F 49 4E 54 00 16 03 56 54 5F 55 49 4E 54 00 17  _INT...VT_UINT..
  000000014000F650: 03 56 54 5F 56 4F 49 44 00 18 03 56 54 5F 48 52  .VT_VOID...VT_HR
  000000014000F660: 45 53 55 4C 54 00 19 03 56 54 5F 50 54 52 00 1A  ESULT...VT_PTR..
  000000014000F670: 03 56 54 5F 53 41 46 45 41 52 52 41 59 00 1B 03  .VT_SAFEARRAY...
  000000014000F680: 56 54 5F 43 41 52 52 41 59 00 1C 03 56 54 5F 55  VT_CARRAY...VT_U
  000000014000F690: 53 45 52 44 45 46 49 4E 45 44 00 1D 03 56 54 5F  SERDEFINED...VT_
  000000014000F6A0: 4C 50 53 54 52 00 1E 03 56 54 5F 4C 50 57 53 54  LPSTR...VT_LPWST
  000000014000F6B0: 52 00 1F 03 56 54 5F 52 45 43 4F 52 44 00 24 03  R...VT_RECORD.$.
  000000014000F6C0: 56 54 5F 49 4E 54 5F 50 54 52 00 25 03 56 54 5F  VT_INT_PTR.%.VT_
  000000014000F6D0: 55 49 4E 54 5F 50 54 52 00 26 03 56 54 5F 46 49  UINT_PTR.&.VT_FI
  000000014000F6E0: 4C 45 54 49 4D 45 00 40 03 56 54 5F 42 4C 4F 42  LETIME.@.VT_BLOB
  000000014000F6F0: 00 41 03 56 54 5F 53 54 52 45 41 4D 00 42 03 56  .A.VT_STREAM.B.V
  000000014000F700: 54 5F 53 54 4F 52 41 47 45 00 43 03 56 54 5F 53  T_STORAGE.C.VT_S
  000000014000F710: 54 52 45 41 4D 45 44 5F 4F 42 4A 45 43 54 00 44  TREAMED_OBJECT.D
  000000014000F720: 03 56 54 5F 53 54 4F 52 45 44 5F 4F 42 4A 45 43  .VT_STORED_OBJEC
  000000014000F730: 54 00 45 03 56 54 5F 42 4C 4F 42 5F 4F 42 4A 45  T.E.VT_BLOB_OBJE
  000000014000F740: 43 54 00 46 03 56 54 5F 43 46 00 47 03 56 54 5F  CT.F.VT_CF.G.VT_
  000000014000F750: 43 4C 53 49 44 00 48 03 56 54 5F 56 45 52 53 49  CLSID.H.VT_VERSI
  000000014000F760: 4F 4E 45 44 5F 53 54 52 45 41 4D 00 49 14 56 54  ONED_STREAM.I.VT
  000000014000F770: 5F 42 53 54 52 5F 42 4C 4F 42 00 FF 0F 14 56 54  _BSTR_BLOB...VT
  000000014000F780: 5F 56 45 43 54 4F 52 00 00 10 14 56 54 5F 41 52  _VECTOR....VT_AR
  000000014000F790: 52 41 59 00 00 20 14 56 54 5F 42 59 52 45 46 00  RAY.. .VT_BYREF.
  000000014000F7A0: 00 40 14 56 54 5F 52 45 53 45 52 56 45 44 00 00  .@.VT_RESERVED..
  000000014000F7B0: 80 14 56 54 5F 49 4C 4C 45 47 41 4C 00 FF FF 14  ..VT_ILLEGAL..
  000000014000F7C0: 56 54 5F 49 4C 4C 45 47 41 4C 4D 41 53 4B 45 44  VT_ILLEGALMASKED
  000000014000F7D0: 00 FF 0F 14 56 54 5F 54 59 50 45 4D 41 53 4B 00  ...VT_TYPEMASK.
  000000014000F7E0: FF 0F 00 09 5F 64 6F 77 69 6C 64 63 61 72 64 00  ..._dowildcard.
  000000014000F7F0: 0C 60 0E FB 00 00 00 09 5F 6E 65 77 6D 6F 64 65  .`....._newmode
  000000014000F800: 00 0C 61 0E FB 00 00 00 46 04 0C 75 0B 23 18 00  ..a....F..u.#..
  000000014000F810: 00 19 6E 65 77 6D 6F 64 65 00 0C 76 09 FB 00 00  ..newmode..v...
  000000014000F820: 00 00 00 0A 5F 73 74 61 72 74 75 70 69 6E 66 6F  ...._startupinfo
  000000014000F830: 00 0C 77 05 08 18 00 00 47 F8 00 00 00 07 04 18  ..w.....G......
  000000014000F840: 01 00 00 0C 80 10 7E 18 00 00 03 5F 5F 75 6E 69  ......~....__uni
  000000014000F850: 6E 69 74 69 61 6C 69 7A 65 64 00 00 03 5F 5F 69  nitialized...__i
  000000014000F860: 6E 69 74 69 61 6C 69 7A 69 6E 67 00 01 03 5F 5F  nitializing...__
  000000014000F870: 69 6E 69 74 69 61 6C 69 7A 65 64 00 02 00 48 F8  initialized...H
  000000014000F880: 00 00 00 0C 82 05 38 18 00 00 2C 7E 18 00 00 09  ......8...,~....
  000000014000F890: 5F 5F 6E 61 74 69 76 65 5F 73 74 61 72 74 75 70  __native_startup
  000000014000F8A0: 5F 73 74 61 74 65 00 0C 84 2B 8A 18 00 00 09 5F  _state...+....._
  000000014000F8B0: 5F 6E 61 74 69 76 65 5F 73 74 61 72 74 75 70 5F  _native_startup_
  000000014000F8C0: 6C 6F 63 6B 00 0C 85 19 CC 18 00 00 05 D1 18 00  lock..........
  000000014000F8D0: 00 49 0A 5F 50 56 46 56 00 0D 31 18 B4 06 00 00  .I._PVFV..1....
  000000014000F8E0: 0A 5F 50 49 46 56 00 0D 32 17 91 06 00 00 05 D2  ._PIFV..2......
  000000014000F8F0: 18 00 00 4A 5F 65 78 63 65 70 74 69 6F 6E 00 28  ...J_exception.(
  000000014000F900: 0E 9C 0A 50 19 00 00 19 74 79 70 65 00 0E 9D 09  ...P....type....
  000000014000F910: FB 00 00 00 00 19 6E 61 6D 65 00 0E 9E 11 50 19  .....name....P.
  000000014000F920: 00 00 08 19 61 72 67 31 00 0E 9F 0C 9B 06 00 00  ....arg1........
  000000014000F930: 10 19 61 72 67 32 00 0E A0 0C 9B 06 00 00 18 19  ..arg2..........
  000000014000F940: 72 65 74 76 61 6C 00 0E A1 0C 9B 06 00 00 20 00  retval....... .
  000000014000F950: 05 7F 00 00 00 06 5F 54 43 48 41 52 00 0F F8 03  ......_TCHAR...
  000000014000F960: 10 77 00 00 00 09 5F 5F 49 6D 61 67 65 42 61 73  .w....__ImageBas
  000000014000F970: 65 00 01 1D 19 7A 0E 00 00 09 5F 66 6D 6F 64 65  e....z...._fmode
  000000014000F980: 00 01 24 0C FB 00 00 00 09 5F 63 6F 6D 6D 6F 64  ..$....._commod
  000000014000F990: 65 00 01 26 0C FB 00 00 00 17 E0 18 00 00 A4 19  e..&.........
  000000014000F9A0: 00 00 32 00 09 5F 5F 78 69 5F 61 00 01 2D 0E 99  ..2..__xi_a..-..
  000000014000F9B0: 19 00 00 09 5F 5F 78 69 5F 7A 00 01 2E 0E 99 19  ....__xi_z......
  000000014000F9C0: 00 00 17 D2 18 00 00 CD 19 00 00 32 00 09 5F 5F  .........2..__
  000000014000F9D0: 78 63 5F 61 00 01 2F 0E C2 19 00 00 09 5F 5F 78  xc_a../.....__x
  000000014000F9E0: 63 5F 7A 00 01 30 0E C2 19 00 00 09 5F 5F 64 79  c_z..0.....__dy
  000000014000F9F0: 6E 5F 74 6C 73 5F 69 6E 69 74 5F 63 61 6C 6C 62  n_tls_init_callb
  000000014000FA00: 61 63 6B 00 01 34 22 A0 14 00 00 09 5F 5F 6D 69  ack..4".....__mi
  000000014000FA10: 6E 67 77 5F 61 70 70 5F 74 79 70 65 00 01 36 0C  ngw_app_type..6.
  000000014000FA20: FB 00 00 00 1A 61 72 67 63 00 38 0C FB 00 00 00  ....argc.8....
  000000014000FA30: 09 03 20 70 00 40 01 00 00 00 1A 61 72 67 76 00  .. p.@.....argv.
  000000014000FA40: 3A 11 50 1A 00 00 09 03 18 70 00 40 01 00 00 00  :.P......p.@....
  000000014000FA50: 05 55 1A 00 00 05 55 19 00 00 1A 65 6E 76 70 00  .U....U....envp.
  000000014000FA60: 3B 11 50 1A 00 00 09 03 10 70 00 40 01 00 00 00  ;.P......p.@....
  000000014000FA70: 1A 6D 61 69 6E 72 65 74 00 3D 0C FB 00 00 00 09  .mainret.=.....
  000000014000FA80: 03 0C 70 00 40 01 00 00 00 1A 6D 61 6E 61 67 65  ..p.@.....manage
  000000014000FA90: 64 61 70 70 00 3E 0C FB 00 00 00 09 03 08 70 00  dapp.>.......p.
  000000014000FAA0: 40 01 00 00 00 1A 68 61 73 5F 63 63 74 6F 72 00  @.....has_cctor.
  000000014000FAB0: 3F 0C FB 00 00 00 09 03 04 70 00 40 01 00 00 00  ?.......p.@....
  000000014000FAC0: 09 5F 5F 6D 69 6E 67 77 5F 6F 6C 64 65 78 63 70  .__mingw_oldexcp
  000000014000FAD0: 74 5F 68 61 6E 64 6C 65 72 00 01 40 25 F7 14 00  t_handler..@%..
  000000014000FAE0: 00 33 5F 5F 6D 69 6E 67 77 5F 70 63 69 6E 69 74  .3__mingw_pcinit
  000000014000FAF0: 00 48 E0 18 00 00 09 03 20 90 00 40 01 00 00 00  .H..... ..@....
  000000014000FB00: 33 5F 5F 6D 69 6E 67 77 5F 70 63 70 70 69 6E 69  3__mingw_pcppini
  000000014000FB10: 74 00 49 D2 18 00 00 09 03 08 90 00 40 01 00 00  t.I........@...
  000000014000FB20: 00 09 5F 4D 49 4E 47 57 5F 49 4E 53 54 41 4C 4C  .._MINGW_INSTALL
  000000014000FB30: 5F 44 45 42 55 47 5F 4D 41 54 48 45 52 52 00 01  _DEBUG_MATHERR..
  000000014000FB40: 4B 0C FB 00 00 00 29 5F 5F 6D 69 6E 67 77 5F 69  K....)__mingw_i
  000000014000FB50: 6E 69 74 6C 74 73 64 72 6F 74 5F 66 6F 72 63 65  nitltsdrot_force
  000000014000FB60: 00 14 01 FB 00 00 00 29 5F 5F 6D 69 6E 67 77 5F  ......)__mingw_
  000000014000FB70: 69 6E 69 74 6C 74 73 64 79 6E 5F 66 6F 72 63 65  initltsdyn_force
  000000014000FB80: 00 15 01 FB 00 00 00 29 5F 5F 6D 69 6E 67 77 5F  ......)__mingw_
  000000014000FB90: 69 6E 69 74 6C 74 73 73 75 6F 5F 66 6F 72 63 65  initltssuo_force
  000000014000FBA0: 00 16 01 FB 00 00 00 4B 5F 5F 6D 69 6E 67 77 5F  ......K__mingw_
  000000014000FBB0: 6D 6F 64 75 6C 65 5F 69 73 5F 64 6C 6C 00 01 58  module_is_dll..X
  000000014000FBC0: 01 06 77 00 00 00 09 03 00 70 00 40 01 00 00 00  ..w......p.@....
  000000014000FBD0: 10 5F 63 72 74 5F 61 74 65 78 69 74 00 0D 43 15  ._crt_atexit..C.
  000000014000FBE0: FB 00 00 00 EE 1B 00 00 04 D2 18 00 00 00 10 6D  ............m
  000000014000FBF0: 65 6D 63 70 79 00 10 32 12 FD 01 00 00 11 1C 00  emcpy..2.......
  000000014000FC00: 00 04 FD 01 00 00 04 28 05 00 00 04 93 00 00 00  ......(........
  000000014000FC10: 00 10 73 74 72 6C 65 6E 00 10 40 12 84 00 00 00  ..strlen..@.....
  000000014000FC20: 2A 1C 00 00 04 50 19 00 00 00 34 6D 61 6C 6C 6F  *....P....4mallo
  000000014000FC30: 63 00 07 A8 01 11 FD 01 00 00 44 1C 00 00 04 93  c.......D.....
  000000014000FC40: 00 00 00 00 21 5F 63 65 78 69 74 00 11 43 20 4C  ....!_cexit..C L
  000000014000FC50: 65 78 69 74 00 07 12 01 20 63 1C 00 00 04 FB 00  exit.... c.....
  000000014000FC60: 00 00 00 10 6D 61 69 6E 00 0C 70 11 FB 00 00 00  ....main..p....
  000000014000FC70: 84 1C 00 00 04 FB 00 00 00 04 1C 15 00 00 04 1C  ...............
  000000014000FC80: 15 00 00 00 22 5F 5F 70 5F 5F 5F 69 6E 69 74 65  ...."__p___inite
  000000014000FC90: 6E 76 00 0C 66 1C 9A 1C 00 00 05 1C 15 00 00 21  nv..f..........!
  000000014000FCA0: 5F 5F 6D 61 69 6E 00 01 39 0D 21 5F 66 70 72 65  __main..9.!_fpre
  000000014000FCB0: 73 65 74 00 01 1F 0D 10 5F 73 65 74 5F 69 6E 76  set....._set_inv
  000000014000FCC0: 61 6C 69 64 5F 70 61 72 61 6D 65 74 65 72 5F 68  alid_parameter_h
  000000014000FCD0: 61 6E 64 6C 65 72 00 07 8D 2E BA 06 00 00 E8 1C  andler........
  000000014000FCE0: 00 00 04 BA 06 00 00 00 10 5F 67 6E 75 5F 65 78  ........_gnu_ex
  000000014000FCF0: 63 65 70 74 69 6F 6E 5F 68 61 6E 64 6C 65 72 00  ception_handler.
  000000014000FD00: 01 43 0F 02 01 00 00 11 1D 00 00 04 11 1D 00 00  .C..............
  000000014000FD10: 00 05 A1 0A 00 00 10 53 65 74 55 6E 68 61 6E 64  ......SetUnhand
  000000014000FD20: 6C 65 64 45 78 63 65 70 74 69 6F 6E 46 69 6C 74  ledExceptionFilt
  000000014000FD30: 65 72 00 08 13 34 F7 14 00 00 44 1D 00 00 04 F7  er...4...D....
  000000014000FD40: 14 00 00 00 21 5F 70 65 69 33 38 36 5F 72 75 6E  ....!_pei386_run
  000000014000FD50: 74 69 6D 65 5F 72 65 6C 6F 63 61 74 6F 72 00 01  time_relocator..
  000000014000FD60: 42 0D 23 5F 69 6E 69 74 74 65 72 6D 00 0D 35 16  B.#_initterm..5.
  000000014000FD70: 7F 1D 00 00 04 EE 18 00 00 04 EE 18 00 00 00 10  ..............
  000000014000FD80: 5F 69 6E 69 74 74 65 72 6D 5F 65 00 0D 36 15 FB  _initterm_e..6.
  000000014000FD90: 00 00 00 A2 1D 00 00 04 A2 1D 00 00 04 A2 1D 00  .............
  000000014000FDA0: 00 00 05 E0 18 00 00 23 53 6C 65 65 70 00 12 7F  ......#Sleep...
  000000014000FDB0: 1A BB 1D 00 00 04 11 05 00 00 00 10 5F 5F 67 65  ...........__ge
  000000014000FDC0: 74 6D 61 69 6E 61 72 67 73 00 0C 7A 17 FB 00 00  tmainargs..z...
  000000014000FDD0: 00 EF 1D 00 00 04 13 01 00 00 04 9A 1C 00 00 04  ...............
  000000014000FDE0: 9A 1C 00 00 04 FB 00 00 00 04 EF 1D 00 00 00 05  ..............
  000000014000FDF0: 23 18 00 00 34 5F 6D 61 74 68 65 72 72 00 0E 10  #...4_matherr...
  000000014000FE00: 01 17 FB 00 00 00 10 1E 00 00 04 10 1E 00 00 00  ...............
  000000014000FE10: 05 F3 18 00 00 23 5F 5F 6D 69 6E 67 77 5F 73 65  ....#__mingw_se
  000000014000FE20: 74 75 73 65 72 6D 61 74 68 65 72 72 00 0E A6 08  tusermatherr...
  000000014000FE30: 3A 1E 00 00 04 3A 1E 00 00 00 05 3F 1E 00 00 26  :....:.....?...&
  000000014000FE40: FB 00 00 00 4E 1E 00 00 04 10 1E 00 00 00 4D 5F  ...N.........M_
  000000014000FE50: 61 6D 73 67 5F 65 78 69 74 00 0C 69 18 67 1E 00  amsg_exit..i.g..
  000000014000FE60: 00 04 FB 00 00 00 00 22 5F 73 65 74 61 72 67 76  ......"_setargv
  000000014000FE70: 00 0C 6B 11 FB 00 00 00 22 5F 5F 70 5F 5F 63 6F  ..k...."__p__co
  000000014000FE80: 6D 6D 6F 64 65 00 01 21 0E 13 01 00 00 22 5F 5F  mmode..!....."__
  000000014000FE90: 70 5F 5F 66 6D 6F 64 65 00 07 A1 18 13 01 00 00  p__fmode.......
  000000014000FEA0: 23 5F 5F 73 65 74 5F 61 70 70 5F 74 79 70 65 00  #__set_app_type.
  000000014000FEB0: 0C 8A 18 BD 1E 00 00 04 FB 00 00 00 00 4E 61 74  ...........Nat
  000000014000FEC0: 65 78 69 74 00 07 37 01 0F FB 00 00 00 30 14 00  exit..7.....0..
  000000014000FED0: 40 01 00 00 00 05 00 00 00 00 00 00 00 01 9C 0F  @...............
  000000014000FEE0: 1F 00 00 4F 66 75 6E 63 00 01 4E 01 1B D2 18 00  ...Ofunc..N....
  000000014000FEF0: 00 10 00 00 00 0C 00 00 00 50 35 14 00 40 01 00  .........P5..@..
  000000014000FF00: 00 00 D0 1B 00 00 07 01 52 03 A3 01 52 00 00 51  .......R..R..Q
  000000014000FF10: 64 75 70 6C 69 63 61 74 65 5F 70 70 73 74 72 69  duplicate_ppstri
  000000014000FF20: 6E 67 73 00 01 3D 01 0D 01 76 1F 00 00 15 61 63  ngs..=...v....ac
  000000014000FF30: 00 01 3D 01 26 FB 00 00 00 15 61 76 00 01 3D 01  ..=.&....av..=.
  000000014000FF40: 34 76 1F 00 00 11 61 76 6C 00 01 3F 01 0B 50 1A  4v....avl..?..P.
  000000014000FF50: 00 00 11 69 00 01 40 01 06 FB 00 00 00 11 6E 00  ...i..@......n.
  000000014000FF60: 01 41 01 0B 50 1A 00 00 52 11 6C 00 01 46 01 0A  .A..P...R.l..F..
  000000014000FF70: 84 00 00 00 00 00 05 50 1A 00 00 53 63 68 65 63  .......P...Schec
  000000014000FF80: 6B 5F 6D 61 6E 61 67 65 64 5F 61 70 70 00 01 19  k_managed_app...
  000000014000FF90: 01 01 FB 00 00 00 01 ED 1F 00 00 11 70 44 4F 53  ..........pDOS
  000000014000FFA0: 48 65 61 64 65 72 00 01 1B 01 15 94 0E 00 00 11  Header..........
  000000014000FFB0: 70 50 45 48 65 61 64 65 72 00 01 1C 01 15 68 14  pPEHeader.....h.
  000000014000FFC0: 00 00 11 70 4E 54 48 65 61 64 65 72 33 32 00 01  ...pNTHeader32..
  000000014000FFD0: 1D 01 1C CD 11 00 00 11 70 4E 54 48 65 61 64 65  .......pNTHeade
  000000014000FFE0: 72 36 34 00 01 1E 01 1C C0 13 00 00 00 35 5F 5F  r64.........5__
  000000014000FFF0: 74 6D 61 69 6E 43 52 54 53 74 61 72 74 75 70 00  tmainCRTStartup.
  0000000140010000: D2 FB 00 00 00 B0 11 00 40 01 00 00 00 3A 02 00  .....@....:..
  0000000140010010: 00 00 00 00 00 01 9C 0B 23 00 00 54 6C 6F 63 6B  ........#..Tlock
  0000000140010020: 5F 66 72 65 65 00 01 D4 0B FD 01 00 00 00 1E 66  _free........f
  0000000140010030: 69 62 65 72 69 64 00 D5 0B FD 01 00 00 26 00 00  iberid.....&..
  0000000140010040: 00 22 00 00 00 1E 6E 65 73 74 65 64 00 D6 09 FB  ."....nested..
  0000000140010050: 00 00 00 41 00 00 00 35 00 00 00 24 77 25 00 00  ...A...5...$w%..
  0000000140010060: BA 11 00 40 01 00 00 00 02 BA 11 00 40 01 00 00  ..@.......@...
  0000000140010070: 00 0A 00 00 00 00 00 00 00 D5 1F BD 20 00 00 55  .......... ..U
  0000000140010080: 4A 26 00 00 BA 11 00 40 01 00 00 00 04 BA 11 00  J&....@.......
  0000000140010090: 40 01 00 00 00 0A 00 00 00 00 00 00 00 02 F7 27  @.............'
  00000001400100A0: 49 1B 64 26 00 00 70 00 00 00 6E 00 00 00 12 74  I.d&..p...n....t
  00000001400100B0: 26 00 00 7C 00 00 00 7A 00 00 00 00 00 24 E0 25  &..|...z.....$%
  00000001400100C0: 00 00 F0 11 00 40 01 00 00 00 01 F0 11 00 40 01  ....@.......@.
  00000001400100D0: 00 00 00 00 00 00 00 00 00 00 00 D7 18 01 21 00  .............!.
  00000001400100E0: 00 36 0F 26 00 00 1B 24 26 00 00 8A 00 00 00 84  .6.&...$&.......
  00000001400100F0: 00 00 00 1B 36 26 00 00 A4 00 00 00 A0 00 00 00  ....6&.........
  0000000140010100: 00 56 0F 1F 00 00 82 12 00 40 01 00 00 00 00 1A  .V.......@......
  0000000140010110: 00 00 00 01 03 01 05 CB 21 00 00 1B 39 1F 00 00  .......!...9...
  0000000140010120: B9 00 00 00 B5 00 00 00 1B 2D 1F 00 00 DE 00 00  .......-.....
  0000000140010130: 00 DA 00 00 00 37 1A 00 00 00 12 45 1F 00 00 F1  ....7.....E...
  0000000140010140: 00 00 00 ED 00 00 00 12 52 1F 00 00 08 01 00 00  .......R.......
  0000000140010150: 00 01 00 00 12 5D 1F 00 00 35 01 00 00 2F 01 00  .....]...5.../..
  0000000140010160: 00 57 68 1F 00 00 25 00 00 00 B5 21 00 00 12 69  .Wh...%...!...i
  0000000140010170: 1F 00 00 4D 01 00 00 4B 01 00 00 0B B9 12 00 40  ...M...K......@
  0000000140010180: 01 00 00 00 11 1C 00 00 13 C5 12 00 40 01 00 00  ...........@...
  0000000140010190: 00 2A 1C 00 00 A0 21 00 00 07 01 52 02 74 00 00  .*....!....R.t..
  00000001400101A0: 1C DD 12 00 40 01 00 00 00 31 27 00 00 07 01 58  ...@....1'....X
  00000001400101B0: 02 74 00 00 00 1C 94 12 00 40 01 00 00 00 2A 1C  .t.......@....*.
  00000001400101C0: 00 00 07 01 52 02 75 00 00 00 00 24 93 25 00 00  ....R.u....$.%..
  00000001400101D0: 80 13 00 40 01 00 00 00 01 80 13 00 40 01 00 00  ...@........@...
  00000001400101E0: 00 10 00 00 00 00 00 00 00 F5 0D 02 22 00 00 36  ..........."..6
  00000001400101F0: BB 25 00 00 1B CB 25 00 00 57 01 00 00 55 01 00  %...%..W...U..
  0000000140010200: 00 00 13 F0 11 00 40 01 00 00 00 A7 1D 00 00 1B  .....@........
  0000000140010210: 22 00 00 07 01 52 03 0A E8 03 00 58 4F 12 00 40  "....R....XO..@
  0000000140010220: 01 00 00 00 38 22 00 00 07 01 52 01 30 07 01 51  ....8"....R.0..Q
  0000000140010230: 01 32 07 01 58 01 30 00 0B 54 12 00 40 01 00 00  .2..X.0..T..@...
  0000000140010240: 00 44 1D 00 00 13 61 12 00 40 01 00 00 00 16 1D  .D....a..@......
  0000000140010250: 00 00 5A 22 00 00 1D 01 52 00 13 77 12 00 40 01  ..Z"....R..w..@.
  0000000140010260: 00 00 00 B7 1C 00 00 79 22 00 00 07 01 52 09 03  ......y"....R..
  0000000140010270: 00 10 00 40 01 00 00 00 00 0B 7C 12 00 40 01 00  ...@......|..@..
  0000000140010280: 00 00 AA 1C 00 00 0B F8 12 00 40 01 00 00 00 9F  ........@.....
  0000000140010290: 1C 00 00 0B FD 12 00 40 01 00 00 00 84 1C 00 00  ......@........
  00000001400102A0: 0B 19 13 00 40 01 00 00 00 63 1C 00 00 13 71 13  ....@....c....q.
  00000001400102B0: 00 40 01 00 00 00 7F 1D 00 00 C5 22 00 00 1D 01  .@........"....
  00000001400102C0: 52 1D 01 51 00 0B 95 13 00 40 01 00 00 00 44 1C  R..Q.....@....D.
  00000001400102D0: 00 00 13 C3 13 00 40 01 00 00 00 62 1D 00 00 EA  .....@....b...
  00000001400102E0: 22 00 00 1D 01 52 1D 01 51 00 0B DF 13 00 40 01  "....R..Q....@.
  00000001400102F0: 00 00 00 4F 1C 00 00 1C EA 13 00 40 01 00 00 00  ...O......@....
  0000000140010300: 4E 1E 00 00 07 01 52 01 4F 00 00 38 6D 61 69 6E  N.....R.O..8main
  0000000140010310: 43 52 54 53 74 61 72 74 75 70 00 B3 FB 00 00 00  CRTStartup....
  0000000140010320: 10 14 00 40 01 00 00 00 1D 00 00 00 00 00 00 00  ...@............
  0000000140010330: 01 9C 57 23 00 00 1E 72 65 74 00 B5 07 FB 00 00  ..W#...ret....
  0000000140010340: 00 64 01 00 00 60 01 00 00 0B 26 14 00 40 01 00  .d...`....&..@..
  0000000140010350: 00 00 ED 1F 00 00 00 38 57 69 6E 4D 61 69 6E 43  ......8WinMainC
  0000000140010360: 52 54 53 74 61 72 74 75 70 00 94 FB 00 00 00 F0  RTStartup.....
  0000000140010370: 13 00 40 01 00 00 00 1D 00 00 00 00 00 00 00 01  ..@.............
  0000000140010380: 9C A6 23 00 00 1E 72 65 74 00 96 07 FB 00 00 00  .#...ret......
  0000000140010390: 79 01 00 00 75 01 00 00 0B 06 14 00 40 01 00 00  y...u.......@...
  00000001400103A0: 00 ED 1F 00 00 00 59 70 72 65 5F 63 70 70 5F 69  .....Ypre_cpp_i
  00000001400103B0: 6E 69 74 00 01 7F 01 01 DC 23 00 00 39 73 74 61  nit.....#..9sta
  00000001400103C0: 72 74 69 6E 66 6F 00 81 10 23 18 00 00 39 61 72  rtinfo...#...9ar
  00000001400103D0: 67 72 65 74 00 82 07 FB 00 00 00 00 35 70 72 65  gret.......5pre
  00000001400103E0: 5F 63 5F 69 6E 69 74 00 60 FB 00 00 00 10 10 00  _c_init.`......
  00000001400103F0: 40 01 00 00 00 39 01 00 00 00 00 00 00 01 9C E0  @....9.........
  0000000140010400: 24 00 00 1E 72 65 74 00 62 07 FB 00 00 00 8E 01  $...ret.b......
  0000000140010410: 00 00 8A 01 00 00 5A 7B 1F 00 00 14 10 00 40 01  ......Z{......@.
  0000000140010420: 00 00 00 02 0C 00 00 00 01 63 10 62 24 00 00 37  .........c.b$..7
  0000000140010430: 0C 00 00 00 2A 9B 1F 00 00 12 AF 1F 00 00 A3 01  ....*.........
  0000000140010440: 00 00 9D 01 00 00 12 C2 1F 00 00 BB 01 00 00 B7  .............
  0000000140010450: 01 00 00 12 D7 1F 00 00 D0 01 00 00 CE 01 00 00  .............
  0000000140010460: 00 00 13 77 10 00 40 01 00 00 00 A0 1E 00 00 79  ...w..@........y
  0000000140010470: 24 00 00 07 01 52 01 32 00 0B 7C 10 00 40 01 00  $....R.2..|..@..
  0000000140010480: 00 00 8D 1E 00 00 0B 8C 10 00 40 01 00 00 00 78  ..........@....x
  0000000140010490: 1E 00 00 0B 9C 10 00 40 01 00 00 00 67 1E 00 00  .......@....g...
  00000001400104A0: 13 CA 10 00 40 01 00 00 00 A0 1E 00 00 B7 24 00  ...@........$.
  00000001400104B0: 00 07 01 52 01 31 00 13 14 11 00 40 01 00 00 00  ...R.1.....@....
  00000001400104C0: 15 1E 00 00 CC 24 00 00 1D 01 52 00 1C 49 11 00  ....$....R..I..
  00000001400104D0: 40 01 00 00 00 4E 1E 00 00 07 01 52 01 38 00 00  @....N.....R.8..
  00000001400104E0: 5B 5F 5F 6D 69 6E 67 77 5F 69 6E 76 61 6C 69 64  [__mingw_invalid
  00000001400104F0: 50 61 72 61 6D 65 74 65 72 48 61 6E 64 6C 65 72  ParameterHandler
  0000000140010500: 00 01 53 01 00 10 00 40 01 00 00 00 01 00 00 00  ..S....@........
  0000000140010510: 00 00 00 00 01 9C 71 25 00 00 1F 65 78 70 72 65  ......q%...expre
  0000000140010520: 73 73 69 6F 6E 00 53 32 01 07 00 00 01 52 1F 66  ssion.S2.....R.f
  0000000140010530: 75 6E 63 74 69 6F 6E 00 54 16 01 07 00 00 01 51  unction.T......Q
  0000000140010540: 1F 66 69 6C 65 00 55 16 01 07 00 00 01 58 1F 6C  .file.U......X.l
  0000000140010550: 69 6E 65 00 56 16 18 01 00 00 01 59 1F 70 52 65  ine.V......Y.pRe
  0000000140010560: 73 65 72 76 65 64 00 57 10 BE 00 00 00 02 91 20  served.W...... 
  0000000140010570: 00 5C 5F 54 45 42 00 5D 4E 74 43 75 72 72 65 6E  .\_TEB.]NtCurren
  0000000140010580: 74 54 65 62 00 02 F7 27 1E 8E 25 00 00 03 05 71  tTeb..'..%....q
  0000000140010590: 25 00 00 2B 5F 49 6E 74 65 72 6C 6F 63 6B 65 64  %..+_Interlocked
  00000001400105A0: 45 78 63 68 61 6E 67 65 50 6F 69 6E 74 65 72 00  ExchangePointer.
  00000001400105B0: EB 06 07 FD 01 00 00 DB 25 00 00 15 54 61 72 67  .....%...Targ
  00000001400105C0: 65 74 00 03 EB 06 33 DB 25 00 00 15 56 61 6C 75  et...3%...Valu
  00000001400105D0: 65 00 03 EB 06 40 FD 01 00 00 00 05 FF 01 00 00  e...@........
  00000001400105E0: 2B 5F 49 6E 74 65 72 6C 6F 63 6B 65 64 43 6F 6D  +_InterlockedCom
  00000001400105F0: 70 61 72 65 45 78 63 68 61 6E 67 65 50 6F 69 6E  pareExchangePoin
  0000000140010600: 74 65 72 00 E0 06 07 FD 01 00 00 4A 26 00 00 15  ter......J&...
  0000000140010610: 44 65 73 74 69 6E 61 74 69 6F 6E 00 03 E0 06 3A  Destination...:
  0000000140010620: DB 25 00 00 15 45 78 43 68 61 6E 67 65 00 03 E0  %...ExChange..
  0000000140010630: 06 4D FD 01 00 00 15 43 6F 6D 70 65 72 61 6E 64  .M....Comperand
  0000000140010640: 00 03 E0 06 5D FD 01 00 00 00 2B 5F 5F 72 65 61  ...]....+__rea
  0000000140010650: 64 67 73 71 77 6F 72 64 00 53 03 01 93 00 00 00  dgsqword.S......
  0000000140010660: 82 26 00 00 15 4F 66 66 73 65 74 00 03 53 03 01  .&...Offset..S..
  0000000140010670: 28 01 00 00 11 72 65 74 00 03 53 03 01 93 00 00  (....ret..S.....
  0000000140010680: 00 00 5E A6 23 00 00 50 11 00 40 01 00 00 00 53  ..^#..P..@....S
  0000000140010690: 00 00 00 00 00 00 00 01 9C 31 27 00 00 5F BC 23  .........1'.._#
  00000001400106A0: 00 00 02 91 6C 12 CD 23 00 00 DC 01 00 00 DA 01  ....l.#......
  00000001400106B0: 00 00 24 A6 23 00 00 98 11 00 40 01 00 00 00 00  ..$#.....@.....
  00000001400106C0: 98 11 00 40 01 00 00 00 0B 00 00 00 00 00 00 00  ...@............
  00000001400106D0: 7F 01 F4 26 00 00 2A BC 23 00 00 2A CD 23 00 00  ..&..*#..*#..
  00000001400106E0: 1C A3 11 00 40 01 00 00 00 4E 1E 00 00 07 01 52  ...@....N.....R
  00000001400106F0: 01 38 00 00 1C 8F 11 00 40 01 00 00 00 BB 1D 00  .8......@......
  0000000140010700: 00 07 01 52 09 03 20 70 00 40 01 00 00 00 07 01  ...R.. p.@......
  0000000140010710: 51 09 03 18 70 00 40 01 00 00 00 07 01 58 09 03  Q...p.@......X..
  0000000140010720: 10 70 00 40 01 00 00 00 07 02 77 20 02 91 6C 00  .p.@......w ..l.
  0000000140010730: 00 60 6D 65 6D 63 70 79 00 5F 5F 62 75 69 6C 74  .`memcpy.__built
  0000000140010740: 69 6E 5F 6D 65 6D 63 70 79 00 13 00 00 5D 06 00  in_memcpy....]..
  0000000140010750: 00 05 00 01 08 EE 05 00 00 0B 47 4E 55 20 43 39  .........GNU C9
  0000000140010760: 39 20 31 34 2E 32 2E 30 20 2D 6D 36 34 20 2D 6D  9 14.2.0 -m64 -m
  0000000140010770: 61 73 6D 3D 61 74 74 20 2D 6D 74 75 6E 65 3D 67  asm=att -mtune=g
  0000000140010780: 65 6E 65 72 69 63 20 2D 6D 61 72 63 68 3D 6E 6F  eneric -march=no
  0000000140010790: 63 6F 6E 61 20 2D 67 20 2D 4F 32 20 2D 73 74 64  cona -g -O2 -std
  00000001400107A0: 3D 67 6E 75 39 39 00 0C CA 01 00 00 FB 01 00 00  =gnu99........
  00000001400107B0: 90 14 00 40 01 00 00 00 EF 00 00 00 00 00 00 00  ...@...........
  00000001400107C0: 56 04 00 00 02 01 06 63 68 61 72 00 02 08 07 6C  V......char....l
  00000001400107D0: 6F 6E 67 20 6C 6F 6E 67 20 75 6E 73 69 67 6E 65  ong long unsigne
  00000001400107E0: 64 20 69 6E 74 00 02 08 05 6C 6F 6E 67 20 6C 6F  d int....long lo
  00000001400107F0: 6E 67 20 69 6E 74 00 04 70 74 72 64 69 66 66 5F  ng int..ptrdiff_
  0000000140010800: 74 00 05 58 23 99 00 00 00 02 02 07 73 68 6F 72  t..X#.......shor
  0000000140010810: 74 20 75 6E 73 69 67 6E 65 64 20 69 6E 74 00 02  t unsigned int..
  0000000140010820: 04 05 69 6E 74 00 02 04 05 6C 6F 6E 67 20 69 6E  ..int....long in
  0000000140010830: 74 00 02 04 07 75 6E 73 69 67 6E 65 64 20 69 6E  t....unsigned in
  0000000140010840: 74 00 02 04 07 6C 6F 6E 67 20 75 6E 73 69 67 6E  t....long unsign
  0000000140010850: 65 64 20 69 6E 74 00 02 01 08 75 6E 73 69 67 6E  ed int....unsign
  0000000140010860: 65 64 20 63 68 61 72 00 02 04 04 66 6C 6F 61 74  ed char....float
  0000000140010870: 00 02 01 06 73 69 67 6E 65 64 20 63 68 61 72 00  ....signed char.
  0000000140010880: 02 02 05 73 68 6F 72 74 20 69 6E 74 00 02 08 04  ...short int....
  0000000140010890: 64 6F 75 62 6C 65 00 02 10 04 6C 6F 6E 67 20 64  double....long d
  00000001400108A0: 6F 75 62 6C 65 00 05 5E 01 00 00 0C 02 02 04 5F  ouble..^......._
  00000001400108B0: 46 6C 6F 61 74 31 36 00 02 02 04 5F 5F 62 66 31  Float16....__bf1
  00000001400108C0: 36 00 06 4A 4F 42 5F 4F 42 4A 45 43 54 5F 4E 45  6..JOB_OBJECT_NE
  00000001400108D0: 54 5F 52 41 54 45 5F 43 4F 4E 54 52 4F 4C 5F 46  T_RATE_CONTROL_F
  00000001400108E0: 4C 41 47 53 00 E5 00 00 00 02 C5 13 12 47 02 00  LAGS.......G..
  00000001400108F0: 00 01 4A 4F 42 5F 4F 42 4A 45 43 54 5F 4E 45 54  ..JOB_OBJECT_NET
  0000000140010900: 5F 52 41 54 45 5F 43 4F 4E 54 52 4F 4C 5F 45 4E  _RATE_CONTROL_EN
  0000000140010910: 41 42 4C 45 00 01 01 4A 4F 42 5F 4F 42 4A 45 43  ABLE...JOB_OBJEC
  0000000140010920: 54 5F 4E 45 54 5F 52 41 54 45 5F 43 4F 4E 54 52  T_NET_RATE_CONTR
  0000000140010930: 4F 4C 5F 4D 41 58 5F 42 41 4E 44 57 49 44 54 48  OL_MAX_BANDWIDTH
  0000000140010940: 00 02 01 4A 4F 42 5F 4F 42 4A 45 43 54 5F 4E 45  ...JOB_OBJECT_NE
  0000000140010950: 54 5F 52 41 54 45 5F 43 4F 4E 54 52 4F 4C 5F 44  T_RATE_CONTROL_D
  0000000140010960: 53 43 50 5F 54 41 47 00 04 01 4A 4F 42 5F 4F 42  SCP_TAG...JOB_OB
  0000000140010970: 4A 45 43 54 5F 4E 45 54 5F 52 41 54 45 5F 43 4F  JECT_NET_RATE_CO
  0000000140010980: 4E 54 52 4F 4C 5F 56 41 4C 49 44 5F 46 4C 41 47  NTROL_VALID_FLAG
  0000000140010990: 53 00 07 00 0D 74 61 67 43 4F 49 4E 49 54 42 41  S....tagCOINITBA
  00000001400109A0: 53 45 00 07 04 E5 00 00 00 03 95 0E 7F 02 00 00  SE.............
  00000001400109B0: 01 43 4F 49 4E 49 54 42 41 53 45 5F 4D 55 4C 54  .COINITBASE_MULT
  00000001400109C0: 49 54 48 52 45 41 44 45 44 00 00 00 06 56 41 52  ITHREADED....VAR
  00000001400109D0: 45 4E 55 4D 00 E5 00 00 00 04 01 02 06 09 05 00  ENUM...........
  00000001400109E0: 00 01 56 54 5F 45 4D 50 54 59 00 00 01 56 54 5F  ..VT_EMPTY...VT_
  00000001400109F0: 4E 55 4C 4C 00 01 01 56 54 5F 49 32 00 02 01 56  NULL...VT_I2...V
  0000000140010A00: 54 5F 49 34 00 03 01 56 54 5F 52 34 00 04 01 56  T_I4...VT_R4...V
  0000000140010A10: 54 5F 52 38 00 05 01 56 54 5F 43 59 00 06 01 56  T_R8...VT_CY...V
  0000000140010A20: 54 5F 44 41 54 45 00 07 01 56 54 5F 42 53 54 52  T_DATE...VT_BSTR
  0000000140010A30: 00 08 01 56 54 5F 44 49 53 50 41 54 43 48 00 09  ...VT_DISPATCH..
  0000000140010A40: 01 56 54 5F 45 52 52 4F 52 00 0A 01 56 54 5F 42  .VT_ERROR...VT_B
  0000000140010A50: 4F 4F 4C 00 0B 01 56 54 5F 56 41 52 49 41 4E 54  OOL...VT_VARIANT
  0000000140010A60: 00 0C 01 56 54 5F 55 4E 4B 4E 4F 57 4E 00 0D 01  ...VT_UNKNOWN...
  0000000140010A70: 56 54 5F 44 45 43 49 4D 41 4C 00 0E 01 56 54 5F  VT_DECIMAL...VT_
  0000000140010A80: 49 31 00 10 01 56 54 5F 55 49 31 00 11 01 56 54  I1...VT_UI1...VT
  0000000140010A90: 5F 55 49 32 00 12 01 56 54 5F 55 49 34 00 13 01  _UI2...VT_UI4...
  0000000140010AA0: 56 54 5F 49 38 00 14 01 56 54 5F 55 49 38 00 15  VT_I8...VT_UI8..
  0000000140010AB0: 01 56 54 5F 49 4E 54 00 16 01 56 54 5F 55 49 4E  .VT_INT...VT_UIN
  0000000140010AC0: 54 00 17 01 56 54 5F 56 4F 49 44 00 18 01 56 54  T...VT_VOID...VT
  0000000140010AD0: 5F 48 52 45 53 55 4C 54 00 19 01 56 54 5F 50 54  _HRESULT...VT_PT
  0000000140010AE0: 52 00 1A 01 56 54 5F 53 41 46 45 41 52 52 41 59  R...VT_SAFEARRAY
  0000000140010AF0: 00 1B 01 56 54 5F 43 41 52 52 41 59 00 1C 01 56  ...VT_CARRAY...V
  0000000140010B00: 54 5F 55 53 45 52 44 45 46 49 4E 45 44 00 1D 01  T_USERDEFINED...
  0000000140010B10: 56 54 5F 4C 50 53 54 52 00 1E 01 56 54 5F 4C 50  VT_LPSTR...VT_LP
  0000000140010B20: 57 53 54 52 00 1F 01 56 54 5F 52 45 43 4F 52 44  WSTR...VT_RECORD
  0000000140010B30: 00 24 01 56 54 5F 49 4E 54 5F 50 54 52 00 25 01  .$.VT_INT_PTR.%.
  0000000140010B40: 56 54 5F 55 49 4E 54 5F 50 54 52 00 26 01 56 54  VT_UINT_PTR.&.VT
  0000000140010B50: 5F 46 49 4C 45 54 49 4D 45 00 40 01 56 54 5F 42  _FILETIME.@.VT_B
  0000000140010B60: 4C 4F 42 00 41 01 56 54 5F 53 54 52 45 41 4D 00  LOB.A.VT_STREAM.
  0000000140010B70: 42 01 56 54 5F 53 54 4F 52 41 47 45 00 43 01 56  B.VT_STORAGE.C.V
  0000000140010B80: 54 5F 53 54 52 45 41 4D 45 44 5F 4F 42 4A 45 43  T_STREAMED_OBJEC
  0000000140010B90: 54 00 44 01 56 54 5F 53 54 4F 52 45 44 5F 4F 42  T.D.VT_STORED_OB
  0000000140010BA0: 4A 45 43 54 00 45 01 56 54 5F 42 4C 4F 42 5F 4F  JECT.E.VT_BLOB_O
  0000000140010BB0: 42 4A 45 43 54 00 46 01 56 54 5F 43 46 00 47 01  BJECT.F.VT_CF.G.
  0000000140010BC0: 56 54 5F 43 4C 53 49 44 00 48 01 56 54 5F 56 45  VT_CLSID.H.VT_VE
  0000000140010BD0: 52 53 49 4F 4E 45 44 5F 53 54 52 45 41 4D 00 49  RSIONED_STREAM.I
  0000000140010BE0: 03 56 54 5F 42 53 54 52 5F 42 4C 4F 42 00 FF 0F  .VT_BSTR_BLOB..
  0000000140010BF0: 03 56 54 5F 56 45 43 54 4F 52 00 00 10 03 56 54  .VT_VECTOR....VT
  0000000140010C00: 5F 41 52 52 41 59 00 00 20 03 56 54 5F 42 59 52  _ARRAY.. .VT_BYR
  0000000140010C10: 45 46 00 00 40 03 56 54 5F 52 45 53 45 52 56 45  EF..@.VT_RESERVE
  0000000140010C20: 44 00 00 80 03 56 54 5F 49 4C 4C 45 47 41 4C 00  D....VT_ILLEGAL.
  0000000140010C30: FF FF 03 56 54 5F 49 4C 4C 45 47 41 4C 4D 41 53  .VT_ILLEGALMAS
  0000000140010C40: 4B 45 44 00 FF 0F 03 56 54 5F 54 59 50 45 4D 41  KED...VT_TYPEMA
  0000000140010C50: 53 4B 00 FF 0F 00 04 66 75 6E 63 5F 70 74 72 00  SK....func_ptr.
  0000000140010C60: 01 0B 10 59 01 00 00 0E 09 05 00 00 25 05 00 00  ...Y........%...
  0000000140010C70: 0F 00 07 5F 5F 43 54 4F 52 5F 4C 49 53 54 5F 5F  ...__CTOR_LIST__
  0000000140010C80: 00 0C 1A 05 00 00 07 5F 5F 44 54 4F 52 5F 4C 49  .......__DTOR_LI
  0000000140010C90: 53 54 5F 5F 00 0D 1A 05 00 00 08 69 6E 69 74 69  ST__.......initi
  0000000140010CA0: 61 6C 69 7A 65 64 00 32 0C D2 00 00 00 09 03 30  alized.2......0
  0000000140010CB0: 70 00 40 01 00 00 00 10 61 74 65 78 69 74 00 06  p.@.....atexit..
  0000000140010CC0: 37 01 0F D2 00 00 00 84 05 00 00 11 59 01 00 00  7..........Y...
  0000000140010CD0: 00 12 5F 5F 6D 61 69 6E 00 01 35 01 60 15 00 40  ..__main..5.`..@
  0000000140010CE0: 01 00 00 00 1F 00 00 00 00 00 00 00 01 9C B3 05  ...............
  0000000140010CF0: 00 00 13 7F 15 00 40 01 00 00 00 B3 05 00 00 00  ......@........
  0000000140010D00: 09 5F 5F 64 6F 5F 67 6C 6F 62 61 6C 5F 63 74 6F  .__do_global_cto
  0000000140010D10: 72 73 00 20 E0 14 00 40 01 00 00 00 72 00 00 00  rs. ..@....r...
  0000000140010D20: 00 00 00 00 01 9C 1D 06 00 00 0A 6E 70 74 72 73  ...........nptrs
  0000000140010D30: 00 22 F5 00 00 00 FA 01 00 00 F0 01 00 00 0A 69  ."..........i
  0000000140010D40: 00 23 F5 00 00 00 20 02 00 00 1C 02 00 00 14 2D  .#... ........-
  0000000140010D50: 15 00 40 01 00 00 00 6A 05 00 00 15 01 52 09 03  ..@....j.....R..
  0000000140010D60: 90 14 00 40 01 00 00 00 00 00 09 5F 5F 64 6F 5F  ...@.......__do_
  0000000140010D70: 67 6C 6F 62 61 6C 5F 64 74 6F 72 73 00 14 90 14  global_dtors....
  0000000140010D80: 00 40 01 00 00 00 42 00 00 00 00 00 00 00 01 9C  .@....B.........
  0000000140010D90: 5B 06 00 00 08 70 00 16 14 5B 06 00 00 09 03 00  [....p...[......
  0000000140010DA0: 30 00 40 01 00 00 00 00 05 09 05 00 00 00 FE 05  0.@............
  0000000140010DB0: 00 00 05 00 01 08 2D 07 00 00 08 47 4E 55 20 43  ......-....GNU C
  0000000140010DC0: 39 39 20 31 34 2E 32 2E 30 20 2D 6D 36 34 20 2D  99 14.2.0 -m64 -
  0000000140010DD0: 6D 61 73 6D 3D 61 74 74 20 2D 6D 74 75 6E 65 3D  masm=att -mtune=
  0000000140010DE0: 67 65 6E 65 72 69 63 20 2D 6D 61 72 63 68 3D 6E  generic -march=n
  0000000140010DF0: 6F 63 6F 6E 61 20 2D 67 20 2D 4F 32 20 2D 73 74  ocona -g -O2 -st
  0000000140010E00: 64 3D 67 6E 75 39 39 00 0C B5 02 00 00 E7 02 00  d=gnu99.......
  0000000140010E10: 00 80 05 00 00 02 01 06 63 68 61 72 00 02 08 07  ........char....
  0000000140010E20: 6C 6F 6E 67 20 6C 6F 6E 67 20 75 6E 73 69 67 6E  long long unsign
  0000000140010E30: 65 64 20 69 6E 74 00 02 08 05 6C 6F 6E 67 20 6C  ed int....long l
  0000000140010E40: 6F 6E 67 20 69 6E 74 00 02 02 07 73 68 6F 72 74  ong int....short
  0000000140010E50: 20 75 6E 73 69 67 6E 65 64 20 69 6E 74 00 02 04   unsigned int...
  0000000140010E60: 05 69 6E 74 00 02 04 05 6C 6F 6E 67 20 69 6E 74  .int....long int
  0000000140010E70: 00 02 04 07 75 6E 73 69 67 6E 65 64 20 69 6E 74  ....unsigned int
  0000000140010E80: 00 06 C3 00 00 00 02 04 07 6C 6F 6E 67 20 75 6E  ........long un
  0000000140010E90: 73 69 67 6E 65 64 20 69 6E 74 00 02 01 08 75 6E  signed int....un
  0000000140010EA0: 73 69 67 6E 65 64 20 63 68 61 72 00 02 04 04 66  signed char....f
  0000000140010EB0: 6C 6F 61 74 00 02 01 06 73 69 67 6E 65 64 20 63  loat....signed c
  0000000140010EC0: 68 61 72 00 02 02 05 73 68 6F 72 74 20 69 6E 74  har....short int
  0000000140010ED0: 00 02 08 04 64 6F 75 62 6C 65 00 02 10 04 6C 6F  ....double....lo
  0000000140010EE0: 6E 67 20 64 6F 75 62 6C 65 00 02 02 04 5F 46 6C  ng double...._Fl
  0000000140010EF0: 6F 61 74 31 36 00 02 02 04 5F 5F 62 66 31 36 00  oat16....__bf16.
  0000000140010F00: 07 4A 4F 42 5F 4F 42 4A 45 43 54 5F 4E 45 54 5F  .JOB_OBJECT_NET_
  0000000140010F10: 52 41 54 45 5F 43 4F 4E 54 52 4F 4C 5F 46 4C 41  RATE_CONTROL_FLA
  0000000140010F20: 47 53 00 C3 00 00 00 01 C5 13 12 24 02 00 00 01  GS.......$....
  0000000140010F30: 4A 4F 42 5F 4F 42 4A 45 43 54 5F 4E 45 54 5F 52  JOB_OBJECT_NET_R
  0000000140010F40: 41 54 45 5F 43 4F 4E 54 52 4F 4C 5F 45 4E 41 42  ATE_CONTROL_ENAB
  0000000140010F50: 4C 45 00 01 01 4A 4F 42 5F 4F 42 4A 45 43 54 5F  LE...JOB_OBJECT_
  0000000140010F60: 4E 45 54 5F 52 41 54 45 5F 43 4F 4E 54 52 4F 4C  NET_RATE_CONTROL
  0000000140010F70: 5F 4D 41 58 5F 42 41 4E 44 57 49 44 54 48 00 02  _MAX_BANDWIDTH..
  0000000140010F80: 01 4A 4F 42 5F 4F 42 4A 45 43 54 5F 4E 45 54 5F  .JOB_OBJECT_NET_
  0000000140010F90: 52 41 54 45 5F 43 4F 4E 54 52 4F 4C 5F 44 53 43  RATE_CONTROL_DSC
  0000000140010FA0: 50 5F 54 41 47 00 04 01 4A 4F 42 5F 4F 42 4A 45  P_TAG...JOB_OBJE
  0000000140010FB0: 43 54 5F 4E 45 54 5F 52 41 54 45 5F 43 4F 4E 54  CT_NET_RATE_CONT
  0000000140010FC0: 52 4F 4C 5F 56 41 4C 49 44 5F 46 4C 41 47 53 00  ROL_VALID_FLAGS.
  0000000140010FD0: 07 00 09 74 61 67 43 4F 49 4E 49 54 42 41 53 45  ...tagCOINITBASE
  0000000140010FE0: 00 07 04 C3 00 00 00 02 95 0E 5C 02 00 00 01 43  .........\....C
  0000000140010FF0: 4F 49 4E 49 54 42 41 53 45 5F 4D 55 4C 54 49 54  OINITBASE_MULTIT
  0000000140011000: 48 52 45 41 44 45 44 00 00 00 07 56 41 52 45 4E  HREADED....VAREN
  0000000140011010: 55 4D 00 C3 00 00 00 03 01 02 06 E6 04 00 00 01  UM............
  0000000140011020: 56 54 5F 45 4D 50 54 59 00 00 01 56 54 5F 4E 55  VT_EMPTY...VT_NU
  0000000140011030: 4C 4C 00 01 01 56 54 5F 49 32 00 02 01 56 54 5F  LL...VT_I2...VT_
  0000000140011040: 49 34 00 03 01 56 54 5F 52 34 00 04 01 56 54 5F  I4...VT_R4...VT_
  0000000140011050: 52 38 00 05 01 56 54 5F 43 59 00 06 01 56 54 5F  R8...VT_CY...VT_
  0000000140011060: 44 41 54 45 00 07 01 56 54 5F 42 53 54 52 00 08  DATE...VT_BSTR..
  0000000140011070: 01 56 54 5F 44 49 53 50 41 54 43 48 00 09 01 56  .VT_DISPATCH...V
  0000000140011080: 54 5F 45 52 52 4F 52 00 0A 01 56 54 5F 42 4F 4F  T_ERROR...VT_BOO
  0000000140011090: 4C 00 0B 01 56 54 5F 56 41 52 49 41 4E 54 00 0C  L...VT_VARIANT..
  00000001400110A0: 01 56 54 5F 55 4E 4B 4E 4F 57 4E 00 0D 01 56 54  .VT_UNKNOWN...VT
  00000001400110B0: 5F 44 45 43 49 4D 41 4C 00 0E 01 56 54 5F 49 31  _DECIMAL...VT_I1
  00000001400110C0: 00 10 01 56 54 5F 55 49 31 00 11 01 56 54 5F 55  ...VT_UI1...VT_U
  00000001400110D0: 49 32 00 12 01 56 54 5F 55 49 34 00 13 01 56 54  I2...VT_UI4...VT
  00000001400110E0: 5F 49 38 00 14 01 56 54 5F 55 49 38 00 15 01 56  _I8...VT_UI8...V
  00000001400110F0: 54 5F 49 4E 54 00 16 01 56 54 5F 55 49 4E 54 00  T_INT...VT_UINT.
  0000000140011100: 17 01 56 54 5F 56 4F 49 44 00 18 01 56 54 5F 48  ..VT_VOID...VT_H
  0000000140011110: 52 45 53 55 4C 54 00 19 01 56 54 5F 50 54 52 00  RESULT...VT_PTR.
  0000000140011120: 1A 01 56 54 5F 53 41 46 45 41 52 52 41 59 00 1B  ..VT_SAFEARRAY..
  0000000140011130: 01 56 54 5F 43 41 52 52 41 59 00 1C 01 56 54 5F  .VT_CARRAY...VT_
  0000000140011140: 55 53 45 52 44 45 46 49 4E 45 44 00 1D 01 56 54  USERDEFINED...VT
  0000000140011150: 5F 4C 50 53 54 52 00 1E 01 56 54 5F 4C 50 57 53  _LPSTR...VT_LPWS
  0000000140011160: 54 52 00 1F 01 56 54 5F 52 45 43 4F 52 44 00 24  TR...VT_RECORD.$
  0000000140011170: 01 56 54 5F 49 4E 54 5F 50 54 52 00 25 01 56 54  .VT_INT_PTR.%.VT
  0000000140011180: 5F 55 49 4E 54 5F 50 54 52 00 26 01 56 54 5F 46  _UINT_PTR.&.VT_F
  0000000140011190: 49 4C 45 54 49 4D 45 00 40 01 56 54 5F 42 4C 4F  ILETIME.@.VT_BLO
  00000001400111A0: 42 00 41 01 56 54 5F 53 54 52 45 41 4D 00 42 01  B.A.VT_STREAM.B.
  00000001400111B0: 56 54 5F 53 54 4F 52 41 47 45 00 43 01 56 54 5F  VT_STORAGE.C.VT_
  00000001400111C0: 53 54 52 45 41 4D 45 44 5F 4F 42 4A 45 43 54 00  STREAMED_OBJECT.
  00000001400111D0: 44 01 56 54 5F 53 54 4F 52 45 44 5F 4F 42 4A 45  D.VT_STORED_OBJE
  00000001400111E0: 43 54 00 45 01 56 54 5F 42 4C 4F 42 5F 4F 42 4A  CT.E.VT_BLOB_OBJ
  00000001400111F0: 45 43 54 00 46 01 56 54 5F 43 46 00 47 01 56 54  ECT.F.VT_CF.G.VT
  0000000140011200: 5F 43 4C 53 49 44 00 48 01 56 54 5F 56 45 52 53  _CLSID.H.VT_VERS
  0000000140011210: 49 4F 4E 45 44 5F 53 54 52 45 41 4D 00 49 03 56  IONED_STREAM.I.V
  0000000140011220: 54 5F 42 53 54 52 5F 42 4C 4F 42 00 FF 0F 03 56  T_BSTR_BLOB...V
  0000000140011230: 54 5F 56 45 43 54 4F 52 00 00 10 03 56 54 5F 41  T_VECTOR....VT_A
  0000000140011240: 52 52 41 59 00 00 20 03 56 54 5F 42 59 52 45 46  RRAY.. .VT_BYREF
  0000000140011250: 00 00 40 03 56 54 5F 52 45 53 45 52 56 45 44 00  ..@.VT_RESERVED.
  0000000140011260: 00 80 03 56 54 5F 49 4C 4C 45 47 41 4C 00 FF FF  ...VT_ILLEGAL.
  0000000140011270: 03 56 54 5F 49 4C 4C 45 47 41 4C 4D 41 53 4B 45  .VT_ILLEGALMASKE
  0000000140011280: 44 00 FF 0F 03 56 54 5F 54 59 50 45 4D 41 53 4B  D...VT_TYPEMASK
  0000000140011290: 00 FF 0F 00 0A 1F 02 00 00 07 04 C3 00 00 00 04  ..............
  00000001400112A0: 80 10 2C 05 00 00 01 5F 5F 75 6E 69 6E 69 74 69  ..,....__uniniti
  00000001400112B0: 61 6C 69 7A 65 64 00 00 01 5F 5F 69 6E 69 74 69  alized...__initi
  00000001400112C0: 61 6C 69 7A 69 6E 67 00 01 01 5F 5F 69 6E 69 74  alizing...__init
  00000001400112D0: 69 61 6C 69 7A 65 64 00 02 00 0B 1F 02 00 00 04  ialized.........
  00000001400112E0: 82 05 E6 04 00 00 06 2C 05 00 00 04 5F 5F 6E 61  ......,....__na
  00000001400112F0: 74 69 76 65 5F 73 74 61 72 74 75 70 5F 73 74 61  tive_startup_sta
  0000000140011300: 74 65 00 84 2B 38 05 00 00 04 5F 5F 6E 61 74 69  te..+8....__nati
  0000000140011310: 76 65 5F 73 74 61 72 74 75 70 5F 6C 6F 63 6B 00  ve_startup_lock.
  0000000140011320: 85 19 78 05 00 00 0C 08 7E 05 00 00 0D 04 5F 5F  ..x.....~.....__
  0000000140011330: 6E 61 74 69 76 65 5F 64 6C 6C 6D 61 69 6E 5F 72  native_dllmain_r
  0000000140011340: 65 61 73 6F 6E 00 87 20 D3 00 00 00 04 5F 5F 6E  eason.. ....__n
  0000000140011350: 61 74 69 76 65 5F 76 63 63 6C 72 69 74 5F 72 65  ative_vcclrit_re
  0000000140011360: 61 73 6F 6E 00 88 20 D3 00 00 00 05 7F 05 00 00  ason.. ........
  0000000140011370: 0B 17 09 03 14 30 00 40 01 00 00 00 05 9E 05 00  .....0.@........
  0000000140011380: 00 0C 17 09 03 10 30 00 40 01 00 00 00 05 3D 05  ......0.@.....=.
  0000000140011390: 00 00 0D 22 09 03 48 70 00 40 01 00 00 00 05 5B  ..."..Hp.@.....[
  00000001400113A0: 05 00 00 0E 10 09 03 40 70 00 40 01 00 00 00 00  .......@p.@.....
  00000001400113B0: 89 00 00 00 05 00 01 08 E3 07 00 00 01 47 4E 55  ............GNU
  00000001400113C0: 20 43 39 39 20 31 34 2E 32 2E 30 20 2D 6D 36 34   C99 14.2.0 -m64
  00000001400113D0: 20 2D 6D 61 73 6D 3D 61 74 74 20 2D 6D 74 75 6E   -masm=att -mtun
  00000001400113E0: 65 3D 67 65 6E 65 72 69 63 20 2D 6D 61 72 63 68  e=generic -march
  00000001400113F0: 3D 6E 6F 63 6F 6E 61 20 2D 67 20 2D 4F 32 20 2D  =nocona -g -O2 -
  0000000140011400: 73 74 64 3D 67 6E 75 39 39 00 0C C6 03 00 00 F8  std=gnu99.....
  0000000140011410: 03 00 00 D6 05 00 00 02 5F 64 6F 77 69 6C 64 63  ......._dowildc
  0000000140011420: 61 72 64 00 01 20 05 85 00 00 00 09 03 50 70 00  ard.. .......Pp.
  0000000140011430: 40 01 00 00 00 03 04 05 69 6E 74 00 00 7D 01 00  @.......int..}..
  0000000140011440: 00 05 00 01 08 11 08 00 00 02 47 4E 55 20 43 39  ..........GNU C9
  0000000140011450: 39 20 31 34 2E 32 2E 30 20 2D 6D 36 34 20 2D 6D  9 14.2.0 -m64 -m
  0000000140011460: 61 73 6D 3D 61 74 74 20 2D 6D 74 75 6E 65 3D 67  asm=att -mtune=g
  0000000140011470: 65 6E 65 72 69 63 20 2D 6D 61 72 63 68 3D 6E 6F  eneric -march=no
  0000000140011480: 63 6F 6E 61 20 2D 67 20 2D 4F 32 20 2D 73 74 64  cona -g -O2 -std
  0000000140011490: 3D 67 6E 75 39 39 00 0C 67 04 00 00 98 04 00 00  =gnu99..g.......
  00000001400114A0: 80 15 00 40 01 00 00 00 03 00 00 00 00 00 00 00  ...@............
  00000001400114B0: 10 06 00 00 01 01 06 63 68 61 72 00 01 08 07 6C  .......char....l
  00000001400114C0: 6F 6E 67 20 6C 6F 6E 67 20 75 6E 73 69 67 6E 65  ong long unsigne
  00000001400114D0: 64 20 69 6E 74 00 01 08 05 6C 6F 6E 67 20 6C 6F  d int....long lo
  00000001400114E0: 6E 67 20 69 6E 74 00 01 02 07 73 68 6F 72 74 20  ng int....short 
  00000001400114F0: 75 6E 73 69 67 6E 65 64 20 69 6E 74 00 01 04 05  unsigned int....
  0000000140011500: 69 6E 74 00 01 04 05 6C 6F 6E 67 20 69 6E 74 00  int....long int.
  0000000140011510: 01 04 07 75 6E 73 69 67 6E 65 64 20 69 6E 74 00  ...unsigned int.
  0000000140011520: 01 04 07 6C 6F 6E 67 20 75 6E 73 69 67 6E 65 64  ...long unsigned
  0000000140011530: 20 69 6E 74 00 01 01 08 75 6E 73 69 67 6E 65 64   int....unsigned
  0000000140011540: 20 63 68 61 72 00 01 04 04 66 6C 6F 61 74 00 01   char....float..
  0000000140011550: 01 06 73 69 67 6E 65 64 20 63 68 61 72 00 01 02  ..signed char...
  0000000140011560: 05 73 68 6F 72 74 20 69 6E 74 00 01 08 04 64 6F  .short int....do
  0000000140011570: 75 62 6C 65 00 01 10 04 6C 6F 6E 67 20 64 6F 75  uble....long dou
  0000000140011580: 62 6C 65 00 01 02 04 5F 46 6C 6F 61 74 31 36 00  ble...._Float16.
  0000000140011590: 01 02 04 5F 5F 62 66 31 36 00 03 5F 73 65 74 61  ...__bf16.._seta
  00000001400115A0: 72 67 76 00 01 11 01 C0 00 00 00 80 15 00 40 01  rgv..........@.
  00000001400115B0: 00 00 00 03 00 00 00 00 00 00 00 01 9C 00 86 00  ................
  00000001400115C0: 00 00 05 00 01 08 4B 08 00 00 01 47 4E 55 20 43  ......K....GNU C
  00000001400115D0: 39 39 20 31 34 2E 32 2E 30 20 2D 6D 36 34 20 2D  99 14.2.0 -m64 -
  00000001400115E0: 6D 61 73 6D 3D 61 74 74 20 2D 6D 74 75 6E 65 3D  masm=att -mtune=
  00000001400115F0: 67 65 6E 65 72 69 63 20 2D 6D 61 72 63 68 3D 6E  generic -march=n
  0000000140011600: 6F 63 6F 6E 61 20 2D 67 20 2D 4F 32 20 2D 73 74  ocona -g -O2 -st
  0000000140011610: 64 3D 67 6E 75 39 39 00 0C 1E 05 00 00 05 05 00  d=gnu99.........
  0000000140011620: 00 66 06 00 00 02 5F 6E 65 77 6D 6F 64 65 00 01  .f...._newmode..
  0000000140011630: 07 05 82 00 00 00 09 03 60 70 00 40 01 00 00 00  ........`p.@....
  0000000140011640: 03 04 05 69 6E 74 00 00 AE 07 00 00 05 00 01 08  ...int.........
  0000000140011650: 79 08 00 00 12 47 4E 55 20 43 39 39 20 31 34 2E  y....GNU C99 14.
  0000000140011660: 32 2E 30 20 2D 6D 36 34 20 2D 6D 61 73 6D 3D 61  2.0 -m64 -masm=a
  0000000140011670: 74 74 20 2D 6D 74 75 6E 65 3D 67 65 6E 65 72 69  tt -mtune=generi
  0000000140011680: 63 20 2D 6D 61 72 63 68 3D 6E 6F 63 6F 6E 61 20  c -march=nocona 
  0000000140011690: 2D 67 20 2D 4F 32 20 2D 73 74 64 3D 67 6E 75 39  -g -O2 -std=gnu9
  00000001400116A0: 39 00 0C BF 05 00 00 A6 05 00 00 90 15 00 40 01  9...........@.
  00000001400116B0: 00 00 00 A3 00 00 00 00 00 00 00 A0 06 00 00 01  ...............
  00000001400116C0: 01 06 63 68 61 72 00 01 08 07 6C 6F 6E 67 20 6C  ..char....long l
  00000001400116D0: 6F 6E 67 20 75 6E 73 69 67 6E 65 64 20 69 6E 74  ong unsigned int
  00000001400116E0: 00 01 08 05 6C 6F 6E 67 20 6C 6F 6E 67 20 69 6E  ....long long in
  00000001400116F0: 74 00 03 75 69 6E 74 70 74 72 5F 74 00 02 4B 2C  t..uintptr_t..K,
  0000000140011700: 7F 00 00 00 01 02 07 73 68 6F 72 74 20 75 6E 73  .......short uns
  0000000140011710: 69 67 6E 65 64 20 69 6E 74 00 01 04 05 69 6E 74  igned int....int
  0000000140011720: 00 01 04 05 6C 6F 6E 67 20 69 6E 74 00 08 77 00  ....long int..w.
  0000000140011730: 00 00 01 04 07 75 6E 73 69 67 6E 65 64 20 69 6E  .....unsigned in
  0000000140011740: 74 00 01 04 07 6C 6F 6E 67 20 75 6E 73 69 67 6E  t....long unsign
  0000000140011750: 65 64 20 69 6E 74 00 01 01 08 75 6E 73 69 67 6E  ed int....unsign
  0000000140011760: 65 64 20 63 68 61 72 00 13 08 03 55 4C 4F 4E 47  ed char....ULONG
  0000000140011770: 00 03 18 1D FA 00 00 00 03 57 49 4E 42 4F 4F 4C  ........WINBOOL
  0000000140011780: 00 03 7F 0D D2 00 00 00 03 44 57 4F 52 44 00 03  ........DWORD..
  0000000140011790: 8D 1D FA 00 00 00 01 04 04 66 6C 6F 61 74 00 03  ........float..
  00000001400117A0: 4C 50 56 4F 49 44 00 03 99 11 20 01 00 00 01 01  LPVOID.... .....
  00000001400117B0: 06 73 69 67 6E 65 64 20 63 68 61 72 00 01 02 05  .signed char....
  00000001400117C0: 73 68 6F 72 74 20 69 6E 74 00 03 55 4C 4F 4E 47  short int..ULONG
  00000001400117D0: 5F 50 54 52 00 04 31 2E 7F 00 00 00 04 50 56 4F  _PTR..1......PVO
  00000001400117E0: 49 44 00 12 01 11 20 01 00 00 04 48 41 4E 44 4C  ID.... ....HANDL
  00000001400117F0: 45 00 B2 01 11 20 01 00 00 04 55 4C 4F 4E 47 4C  E... ....ULONGL
  0000000140011800: 4F 4E 47 00 08 02 2E 7F 00 00 00 01 08 04 64 6F  ONG...........do
  0000000140011810: 75 62 6C 65 00 01 10 04 6C 6F 6E 67 20 64 6F 75  uble....long dou
  0000000140011820: 62 6C 65 00 08 E1 01 00 00 14 01 02 04 5F 46 6C  ble........._Fl
  0000000140011830: 6F 61 74 31 36 00 01 02 04 5F 5F 62 66 31 36 00  oat16....__bf16.
  0000000140011840: 15 4A 4F 42 5F 4F 42 4A 45 43 54 5F 4E 45 54 5F  .JOB_OBJECT_NET_
  0000000140011850: 52 41 54 45 5F 43 4F 4E 54 52 4F 4C 5F 46 4C 41  RATE_CONTROL_FLA
  0000000140011860: 47 53 00 07 04 EA 00 00 00 05 C5 13 12 CC 02 00  GS...........
  0000000140011870: 00 09 4A 4F 42 5F 4F 42 4A 45 43 54 5F 4E 45 54  ..JOB_OBJECT_NET
  0000000140011880: 5F 52 41 54 45 5F 43 4F 4E 54 52 4F 4C 5F 45 4E  _RATE_CONTROL_EN
  0000000140011890: 41 42 4C 45 00 01 09 4A 4F 42 5F 4F 42 4A 45 43  ABLE...JOB_OBJEC
  00000001400118A0: 54 5F 4E 45 54 5F 52 41 54 45 5F 43 4F 4E 54 52  T_NET_RATE_CONTR
  00000001400118B0: 4F 4C 5F 4D 41 58 5F 42 41 4E 44 57 49 44 54 48  OL_MAX_BANDWIDTH
  00000001400118C0: 00 02 09 4A 4F 42 5F 4F 42 4A 45 43 54 5F 4E 45  ...JOB_OBJECT_NE
  00000001400118D0: 54 5F 52 41 54 45 5F 43 4F 4E 54 52 4F 4C 5F 44  T_RATE_CONTROL_D
  00000001400118E0: 53 43 50 5F 54 41 47 00 04 09 4A 4F 42 5F 4F 42  SCP_TAG...JOB_OB
  00000001400118F0: 4A 45 43 54 5F 4E 45 54 5F 52 41 54 45 5F 43 4F  JECT_NET_RATE_CO
  0000000140011900: 4E 54 52 4F 4C 5F 56 41 4C 49 44 5F 46 4C 41 47  NTROL_VALID_FLAG
  0000000140011910: 53 00 07 00 04 50 49 4D 41 47 45 5F 54 4C 53 5F  S....PIMAGE_TLS_
  0000000140011920: 43 41 4C 4C 42 41 43 4B 00 DF 20 1A ED 02 00 00  CALLBACK. ....
  0000000140011930: 0C CC 02 00 00 08 F2 02 00 00 16 07 03 00 00 05  ..............
  0000000140011940: 94 01 00 00 05 40 01 00 00 05 94 01 00 00 00 17  .....@..........
  0000000140011950: 5F 49 4D 41 47 45 5F 54 4C 53 5F 44 49 52 45 43  _IMAGE_TLS_DIREC
  0000000140011960: 54 4F 52 59 36 34 00 28 05 E1 20 14 CA 03 00 00  TORY64.(. ....
  0000000140011970: 06 53 74 61 72 74 41 64 64 72 65 73 73 4F 66 52  .StartAddressOfR
  0000000140011980: 61 77 44 61 74 61 00 E2 20 11 B1 01 00 00 00 06  awData. ......
  0000000140011990: 45 6E 64 41 64 64 72 65 73 73 4F 66 52 61 77 44  EndAddressOfRawD
  00000001400119A0: 61 74 61 00 E3 20 11 B1 01 00 00 08 06 41 64 64  ata. ......Add
  00000001400119B0: 72 65 73 73 4F 66 49 6E 64 65 78 00 E4 20 11 B1  ressOfIndex. .
  00000001400119C0: 01 00 00 10 06 41 64 64 72 65 73 73 4F 66 43 61  .....AddressOfCa
  00000001400119D0: 6C 6C 42 61 63 6B 73 00 E5 20 11 B1 01 00 00 18  llBacks. .....
  00000001400119E0: 06 53 69 7A 65 4F 66 5A 65 72 6F 46 69 6C 6C 00  .SizeOfZeroFill.
  00000001400119F0: E6 20 0D 40 01 00 00 20 06 43 68 61 72 61 63 74   .@... .Charact
  0000000140011A00: 65 72 69 73 74 69 63 73 00 E7 20 0D 40 01 00 00  eristics. .@...
  0000000140011A10: 24 00 04 49 4D 41 47 45 5F 54 4C 53 5F 44 49 52  $..IMAGE_TLS_DIR
  0000000140011A20: 45 43 54 4F 52 59 36 34 00 E8 20 07 07 03 00 00  ECTORY64. .....
  0000000140011A30: 04 49 4D 41 47 45 5F 54 4C 53 5F 44 49 52 45 43  .IMAGE_TLS_DIREC
  0000000140011A40: 54 4F 52 59 00 FB 20 23 CA 03 00 00 0C E8 03 00  TORY. #......
  0000000140011A50: 00 03 5F 50 56 46 56 00 06 31 18 DC 01 00 00 08  .._PVFV..1.....
  0000000140011A60: 09 04 00 00 02 5F 74 6C 73 5F 69 6E 64 65 78 00  ....._tls_index.
  0000000140011A70: 23 07 22 01 00 00 09 03 7C 70 00 40 01 00 00 00  #.".....|p.@....
  0000000140011A80: 02 5F 74 6C 73 5F 73 74 61 72 74 00 29 19 E5 00  ._tls_start.)..
  0000000140011A90: 00 00 09 03 00 A0 00 40 01 00 00 00 02 5F 74 6C  .......@....._tl
  0000000140011AA0: 73 5F 65 6E 64 00 2A 1D E5 00 00 00 09 03 08 A0  s_end.*........
  0000000140011AB0: 00 40 01 00 00 00 02 5F 5F 78 6C 5F 61 00 2C 2B  .@.....__xl_a.,+
  0000000140011AC0: CC 02 00 00 09 03 30 90 00 40 01 00 00 00 02 5F  .....0..@....._
  0000000140011AD0: 5F 78 6C 5F 7A 00 2D 2B CC 02 00 00 09 03 48 90  _xl_z.-+.....H.
  0000000140011AE0: 00 40 01 00 00 00 02 5F 74 6C 73 5F 75 73 65 64  .@....._tls_used
  0000000140011AF0: 00 30 1B 04 04 00 00 09 03 20 40 00 40 01 00 00  .0....... @.@...
  0000000140011B00: 00 0D 5F 5F 78 64 5F 61 00 40 09 04 00 00 09 03  ..__xd_a.@......
  0000000140011B10: 50 90 00 40 01 00 00 00 0D 5F 5F 78 64 5F 7A 00  P..@.....__xd_z.
  0000000140011B20: 41 09 04 00 00 09 03 58 90 00 40 01 00 00 00 18  A......X..@.....
  0000000140011B30: 5F 43 52 54 5F 4D 54 00 01 48 0C D2 00 00 00 02  _CRT_MT..H.....
  0000000140011B40: 5F 5F 64 79 6E 5F 74 6C 73 5F 69 6E 69 74 5F 63  __dyn_tls_init_c
  0000000140011B50: 61 6C 6C 62 61 63 6B 00 68 1B E8 02 00 00 09 03  allback.h......
  0000000140011B60: 00 40 00 40 01 00 00 00 02 5F 5F 78 6C 5F 63 00  .@.@.....__xl_c.
  0000000140011B70: 69 2B CC 02 00 00 09 03 38 90 00 40 01 00 00 00  i+.....8..@....
  0000000140011B80: 02 5F 5F 78 6C 5F 64 00 AA 2B CC 02 00 00 09 03  .__xl_d.+.....
  0000000140011B90: 40 90 00 40 01 00 00 00 02 5F 5F 6D 69 6E 67 77  @..@.....__mingw
  0000000140011BA0: 5F 69 6E 69 74 6C 74 73 64 72 6F 74 5F 66 6F 72  _initltsdrot_for
  0000000140011BB0: 63 65 00 AD 05 D2 00 00 00 09 03 78 70 00 40 01  ce.......xp.@.
  0000000140011BC0: 00 00 00 02 5F 5F 6D 69 6E 67 77 5F 69 6E 69 74  ....__mingw_init
  0000000140011BD0: 6C 74 73 64 79 6E 5F 66 6F 72 63 65 00 AE 05 D2  ltsdyn_force..
  0000000140011BE0: 00 00 00 09 03 74 70 00 40 01 00 00 00 02 5F 5F  .....tp.@.....__
  0000000140011BF0: 6D 69 6E 67 77 5F 69 6E 69 74 6C 74 73 73 75 6F  mingw_initltssuo
  0000000140011C00: 5F 66 6F 72 63 65 00 AF 05 D2 00 00 00 09 03 70  _force.......p
  0000000140011C10: 70 00 40 01 00 00 00 19 5F 5F 6D 69 6E 67 77 5F  p.@.....__mingw_
  0000000140011C20: 54 4C 53 63 61 6C 6C 62 61 63 6B 00 01 19 10 30  TLScallback....0
  0000000140011C30: 01 00 00 FF 05 00 00 05 A2 01 00 00 05 40 01 00  ...........@..
  0000000140011C40: 00 05 57 01 00 00 00 1A 5F 5F 64 79 6E 5F 74 6C  ..W.....__dyn_tl
  0000000140011C50: 73 5F 64 74 6F 72 00 01 89 01 90 15 00 40 01 00  s_dtor.......@..
  0000000140011C60: 00 00 15 00 00 00 00 00 00 00 01 9C 6C 06 00 00  ............l...
  0000000140011C70: 0A 37 02 00 00 18 A2 01 00 00 3B 02 00 00 37 02  .7.......;...7.
  0000000140011C80: 00 00 0A 4D 02 00 00 2A 40 01 00 00 4D 02 00 00  ...M...*@...M...
  0000000140011C90: 49 02 00 00 0A 42 02 00 00 3B 57 01 00 00 5F 02  I....B...;W..._.
  0000000140011CA0: 00 00 5B 02 00 00 0E A5 15 00 40 01 00 00 00 CF  ..[......@....
  0000000140011CB0: 05 00 00 00 1B 5F 5F 74 6C 72 65 67 64 74 6F 72  .....__tlregdtor
  0000000140011CC0: 00 01 6E 01 D2 00 00 00 30 16 00 40 01 00 00 00  ..n....0..@....
  0000000140011CD0: 03 00 00 00 00 00 00 00 01 9C A6 06 00 00 1C 66  ..............f
  0000000140011CE0: 75 6E 63 00 01 6E 14 09 04 00 00 01 52 00 1D 5F  unc..n......R.._
  0000000140011CF0: 5F 64 79 6E 5F 74 6C 73 5F 69 6E 69 74 00 01 4E  _dyn_tls_init..N
  0000000140011D00: 01 01 F4 06 00 00 0B 37 02 00 00 18 A2 01 00 00  ......7.......
  0000000140011D10: 0B 4D 02 00 00 2A 40 01 00 00 0B 42 02 00 00 3B  .M...*@....B...;
  0000000140011D20: 57 01 00 00 0F 70 66 75 6E 63 00 50 0A 17 04 00  W....pfunc.P....
  0000000140011D30: 00 0F 70 73 00 51 0D AA 00 00 00 00 1E A6 06 00  ..ps.Q........
  0000000140011D40: 00 B0 15 00 40 01 00 00 00 7B 00 00 00 00 00 00  ...@....{......
  0000000140011D50: 00 01 9C 07 BE 06 00 00 75 02 00 00 6D 02 00 00  .......u...m...
  0000000140011D60: 07 C8 06 00 00 9D 02 00 00 95 02 00 00 07 D2 06  ..............
  0000000140011D70: 00 00 C5 02 00 00 BD 02 00 00 10 DC 06 00 00 10  .............
  0000000140011D80: E9 06 00 00 1F A6 06 00 00 E0 15 00 40 01 00 00  .........@...
  0000000140011D90: 00 00 E0 15 00 40 01 00 00 00 33 00 00 00 00 00  ....@....3.....
  0000000140011DA0: 00 00 01 4E 01 A3 07 00 00 07 BE 06 00 00 E9 02  ...N.........
  0000000140011DB0: 00 00 E5 02 00 00 07 C8 06 00 00 FA 02 00 00 F8  ............
  0000000140011DC0: 02 00 00 07 D2 06 00 00 06 03 00 00 02 03 00 00  ...............
  0000000140011DD0: 11 DC 06 00 00 19 03 00 00 15 03 00 00 11 E9 06  ..............
  0000000140011DE0: 00 00 2B 03 00 00 27 03 00 00 00 0E 2B 16 00 40  ..+...'.....+..@
  0000000140011DF0: 01 00 00 00 CF 05 00 00 00 00 86 00 00 00 05 00  ...............
  0000000140011E00: 01 08 61 0A 00 00 01 47 4E 55 20 43 39 39 20 31  ..a....GNU C99 1
  0000000140011E10: 34 2E 32 2E 30 20 2D 6D 36 34 20 2D 6D 61 73 6D  4.2.0 -m64 -masm
  0000000140011E20: 3D 61 74 74 20 2D 6D 74 75 6E 65 3D 67 65 6E 65  =att -mtune=gene
  0000000140011E30: 72 69 63 20 2D 6D 61 72 63 68 3D 6E 6F 63 6F 6E  ric -march=nocon
  0000000140011E40: 61 20 2D 67 20 2D 4F 32 20 2D 73 74 64 3D 67 6E  a -g -O2 -std=gn
  0000000140011E50: 75 39 39 00 0C 97 06 00 00 C9 06 00 00 D2 07 00  u99...........
  0000000140011E60: 00 02 5F 63 6F 6D 6D 6F 64 65 00 01 07 05 82 00  .._commode......
  0000000140011E70: 00 00 09 03 80 70 00 40 01 00 00 00 03 04 05 69  .....p.@.......i
  0000000140011E80: 6E 74 00 00 9A 01 00 00 05 00 01 08 8F 0A 00 00  nt..............
  0000000140011E90: 07 47 4E 55 20 43 39 39 20 31 34 2E 32 2E 30 20  .GNU C99 14.2.0 
  0000000140011EA0: 2D 6D 36 34 20 2D 6D 61 73 6D 3D 61 74 74 20 2D  -m64 -masm=att -
  0000000140011EB0: 6D 74 75 6E 65 3D 67 65 6E 65 72 69 63 20 2D 6D  mtune=generic -m
  0000000140011EC0: 61 72 63 68 3D 6E 6F 63 6F 6E 61 20 2D 67 20 2D  arch=nocona -g -
  0000000140011ED0: 4F 32 20 2D 73 74 64 3D 67 6E 75 39 39 00 0C 38  O2 -std=gnu99..8
  0000000140011EE0: 07 00 00 6A 07 00 00 0C 08 00 00 01 01 06 63 68  ...j..........ch
  0000000140011EF0: 61 72 00 01 08 07 6C 6F 6E 67 20 6C 6F 6E 67 20  ar....long long 
  0000000140011F00: 75 6E 73 69 67 6E 65 64 20 69 6E 74 00 01 08 05  unsigned int....
  0000000140011F10: 6C 6F 6E 67 20 6C 6F 6E 67 20 69 6E 74 00 01 02  long long int...
  0000000140011F20: 07 73 68 6F 72 74 20 75 6E 73 69 67 6E 65 64 20  .short unsigned 
  0000000140011F30: 69 6E 74 00 01 04 05 69 6E 74 00 01 04 05 6C 6F  int....int....lo
  0000000140011F40: 6E 67 20 69 6E 74 00 01 04 07 75 6E 73 69 67 6E  ng int....unsign
  0000000140011F50: 65 64 20 69 6E 74 00 01 04 07 6C 6F 6E 67 20 75  ed int....long u
  0000000140011F60: 6E 73 69 67 6E 65 64 20 69 6E 74 00 01 01 08 75  nsigned int....u
  0000000140011F70: 6E 73 69 67 6E 65 64 20 63 68 61 72 00 03 5F 50  nsigned char.._P
  0000000140011F80: 56 46 56 00 31 18 06 01 00 00 04 0B 01 00 00 08  VFV.1...........
  0000000140011F90: 03 5F 50 49 46 56 00 32 17 19 01 00 00 04 1E 01  ._PIFV.2........
  0000000140011FA0: 00 00 09 B0 00 00 00 05 0C 01 00 00 32 01 00 00  ...........2...
  0000000140011FB0: 06 6F 00 00 00 00 02 5F 5F 78 69 5F 61 00 09 23  .o.....__xi_a..#
  0000000140011FC0: 01 00 00 09 03 18 90 00 40 01 00 00 00 02 5F 5F  ........@.....__
  0000000140011FD0: 78 69 5F 7A 00 0A 23 01 00 00 09 03 28 90 00 40  xi_z..#.....(..@
  0000000140011FE0: 01 00 00 00 05 F9 00 00 00 6F 01 00 00 06 6F 00  ........o....o.
  0000000140011FF0: 00 00 00 02 5F 5F 78 63 5F 61 00 0B 60 01 00 00  ....__xc_a..`...
  0000000140012000: 09 03 00 90 00 40 01 00 00 00 02 5F 5F 78 63 5F  .....@.....__xc_
  0000000140012010: 7A 00 0C 60 01 00 00 09 03 10 90 00 40 01 00 00  z..`........@...
  0000000140012020: 00 00 28 03 00 00 05 00 01 08 FC 0A 00 00 07 47  ..(...........G
  0000000140012030: 4E 55 20 43 39 39 20 31 34 2E 32 2E 30 20 2D 6D  NU C99 14.2.0 -m
  0000000140012040: 36 34 20 2D 6D 61 73 6D 3D 61 74 74 20 2D 6D 74  64 -masm=att -mt
  0000000140012050: 75 6E 65 3D 67 65 6E 65 72 69 63 20 2D 6D 61 72  une=generic -mar
  0000000140012060: 63 68 3D 6E 6F 63 6F 6E 61 20 2D 67 20 2D 4F 32  ch=nocona -g -O2
  0000000140012070: 20 2D 73 74 64 3D 67 6E 75 39 39 00 0C 07 08 00   -std=gnu99.....
  0000000140012080: 00 35 08 00 00 40 16 00 40 01 00 00 00 F8 00 00  .5...@..@......
  0000000140012090: 00 00 00 00 00 4F 08 00 00 02 08 04 64 6F 75 62  .....O......doub
  00000001400120A0: 6C 65 00 02 01 06 63 68 61 72 00 08 81 00 00 00  le....char......
  00000001400120B0: 02 08 07 6C 6F 6E 67 20 6C 6F 6E 67 20 75 6E 73  ...long long uns
  00000001400120C0: 69 67 6E 65 64 20 69 6E 74 00 02 08 05 6C 6F 6E  igned int....lon
  00000001400120D0: 67 20 6C 6F 6E 67 20 69 6E 74 00 02 02 07 73 68  g long int....sh
  00000001400120E0: 6F 72 74 20 75 6E 73 69 67 6E 65 64 20 69 6E 74  ort unsigned int
  00000001400120F0: 00 02 04 05 69 6E 74 00 02 04 05 6C 6F 6E 67 20  ....int....long 
  0000000140012100: 69 6E 74 00 04 81 00 00 00 02 04 07 75 6E 73 69  int.........unsi
  0000000140012110: 67 6E 65 64 20 69 6E 74 00 02 04 07 6C 6F 6E 67  gned int....long
  0000000140012120: 20 75 6E 73 69 67 6E 65 64 20 69 6E 74 00 02 01   unsigned int...
  0000000140012130: 08 75 6E 73 69 67 6E 65 64 20 63 68 61 72 00 02  .unsigned char..
  0000000140012140: 04 04 66 6C 6F 61 74 00 02 10 04 6C 6F 6E 67 20  ..float....long 
  0000000140012150: 64 6F 75 62 6C 65 00 06 5F 65 78 63 65 70 74 69  double.._excepti
  0000000140012160: 6F 6E 00 28 02 9C 91 01 00 00 01 74 79 70 65 00  on.(.......type.
  0000000140012170: 02 9D 09 CF 00 00 00 00 01 6E 61 6D 65 00 02 9E  ........name...
  0000000140012180: 11 91 01 00 00 08 01 61 72 67 31 00 02 9F 0C 77  .......arg1....w
  0000000140012190: 00 00 00 10 01 61 72 67 32 00 02 A0 0C 77 00 00  .....arg2....w..
  00000001400121A0: 00 18 01 72 65 74 76 61 6C 00 02 A1 0C 77 00 00  ...retval...w..
  00000001400121B0: 00 20 00 04 89 00 00 00 06 5F 69 6F 62 75 66 00  . ......._iobuf.
  00000001400121C0: 30 03 21 25 02 00 00 01 5F 70 74 72 00 03 25 0B  0.!%...._ptr..%.
  00000001400121D0: E2 00 00 00 00 01 5F 63 6E 74 00 03 26 09 CF 00  ....._cnt..&..
  00000001400121E0: 00 00 08 01 5F 62 61 73 65 00 03 27 0B E2 00 00  ...._base..'...
  00000001400121F0: 00 10 01 5F 66 6C 61 67 00 03 28 09 CF 00 00 00  ..._flag..(....
  0000000140012200: 18 01 5F 66 69 6C 65 00 03 29 09 CF 00 00 00 1C  .._file..).....
  0000000140012210: 01 5F 63 68 61 72 62 75 66 00 03 2A 09 CF 00 00  ._charbuf..*...
  0000000140012220: 00 20 01 5F 62 75 66 73 69 7A 00 03 2B 09 CF 00  . ._bufsiz..+..
  0000000140012230: 00 00 24 01 5F 74 6D 70 66 6E 61 6D 65 00 03 2C  ..$._tmpfname..,
  0000000140012240: 0B E2 00 00 00 28 00 09 46 49 4C 45 00 03 2F 19  ....(..FILE../.
  0000000140012250: 96 01 00 00 0A 66 70 72 69 6E 74 66 00 03 CD 01  .....fprintf...
  0000000140012260: 0F CF 00 00 00 53 02 00 00 05 53 02 00 00 05 91  ....S....S.....
  0000000140012270: 01 00 00 0B 00 04 25 02 00 00 0C 5F 5F 61 63 72  ......%....__acr
  0000000140012280: 74 5F 69 6F 62 5F 66 75 6E 63 00 03 65 17 53 02  t_iob_func..e.S.
  0000000140012290: 00 00 7A 02 00 00 05 E7 00 00 00 00 0D 5F 6D 61  ..z........._ma
  00000001400122A0: 74 68 65 72 72 00 02 10 01 17 CF 00 00 00 40 16  therr........@.
  00000001400122B0: 00 40 01 00 00 00 F8 00 00 00 00 00 00 00 01 9C  .@.............
  00000001400122C0: 26 03 00 00 0E 70 65 78 63 65 70 74 00 01 0B 1E  &....pexcept....
  00000001400122D0: 26 03 00 00 52 03 00 00 4C 03 00 00 0F 74 79 70  &...R...L....typ
  00000001400122E0: 65 00 01 0D 10 91 01 00 00 74 03 00 00 68 03 00  e........t...h..
  00000001400122F0: 00 10 9D 16 00 40 01 00 00 00 58 02 00 00 E6 02  .....@....X....
  0000000140012300: 00 00 03 01 52 01 32 00 11 C6 16 00 40 01 00 00  ....R.2....@...
  0000000140012310: 00 32 02 00 00 03 01 51 09 03 58 41 00 40 01 00  .2.....Q..XA.@..
  0000000140012320: 00 00 03 01 58 02 73 00 03 01 59 02 74 00 03 02  ....X.s...Y.t...
  0000000140012330: 77 20 03 A5 17 77 03 02 77 28 03 A5 18 77 03 02  w ..w..w(..w..
  0000000140012340: 77 30 03 A5 19 77 00 00 04 35 01 00 00 00 93 00  w0..w...5......
  0000000140012350: 00 00 05 00 01 08 FA 0B 00 00 01 47 4E 55 20 43  ..........GNU C
  0000000140012360: 39 39 20 31 34 2E 32 2E 30 20 2D 6D 36 34 20 2D  99 14.2.0 -m64 -
  0000000140012370: 6D 61 73 6D 3D 61 74 74 20 2D 6D 74 75 6E 65 3D  masm=att -mtune=
  0000000140012380: 67 65 6E 65 72 69 63 20 2D 6D 61 72 63 68 3D 6E  generic -march=n
  0000000140012390: 6F 63 6F 6E 61 20 2D 67 20 2D 4F 32 20 2D 73 74  ocona -g -O2 -st
  00000001400123A0: 64 3D 67 6E 75 39 39 00 0C C7 08 00 00 F9 08 00  d=gnu99.......
  00000001400123B0: 00 40 17 00 40 01 00 00 00 03 00 00 00 00 00 00  .@..@...........
  00000001400123C0: 00 0D 09 00 00 02 5F 66 70 72 65 73 65 74 00 01  ......_fpreset..
  00000001400123D0: 09 06 40 17 00 40 01 00 00 00 03 00 00 00 00 00  ..@..@..........
  00000001400123E0: 00 00 01 9C 00 8E 00 00 00 05 00 01 08 27 0C 00  .............'..
  00000001400123F0: 00 01 47 4E 55 20 43 39 39 20 31 34 2E 32 2E 30  ..GNU C99 14.2.0
  0000000140012400: 20 2D 6D 36 34 20 2D 6D 61 73 6D 3D 61 74 74 20   -m64 -masm=att 
  0000000140012410: 2D 6D 74 75 6E 65 3D 67 65 6E 65 72 69 63 20 2D  -mtune=generic -
  0000000140012420: 6D 61 72 63 68 3D 6E 6F 63 6F 6E 61 20 2D 67 20  march=nocona -g 
  0000000140012430: 2D 4F 32 20 2D 73 74 64 3D 67 6E 75 39 39 00 0C  -O2 -std=gnu99..
  0000000140012440: 68 09 00 00 9F 09 00 00 65 09 00 00 02 5F 5F 6D  h.......e....__m
  0000000140012450: 69 6E 67 77 5F 61 70 70 5F 74 79 70 65 00 01 08  ingw_app_type...
  0000000140012460: 05 8A 00 00 00 09 03 90 70 00 40 01 00 00 00 03  ........p.@.....
  0000000140012470: 04 05 69 6E 74 00 00 56 17 00 00 05 00 01 08 55  ..int..V.......U
  0000000140012480: 0C 00 00 27 47 4E 55 20 43 39 39 20 31 34 2E 32  ...'GNU C99 14.2
  0000000140012490: 2E 30 20 2D 6D 36 34 20 2D 6D 61 73 6D 3D 61 74  .0 -m64 -masm=at
  00000001400124A0: 74 20 2D 6D 74 75 6E 65 3D 67 65 6E 65 72 69 63  t -mtune=generic
  00000001400124B0: 20 2D 6D 61 72 63 68 3D 6E 6F 63 6F 6E 61 20 2D   -march=nocona -
  00000001400124C0: 67 20 2D 4F 32 20 2D 73 74 64 3D 67 6E 75 39 39  g -O2 -std=gnu99
  00000001400124D0: 00 0C 18 0A 00 00 4E 0A 00 00 50 17 00 40 01 00  ......N...P..@..
  00000001400124E0: 00 00 43 05 00 00 00 00 00 00 9F 09 00 00 06 5F  ..C............_
  00000001400124F0: 5F 67 6E 75 63 5F 76 61 5F 6C 69 73 74 00 02 18  _gnuc_va_list...
  0000000140012500: 1D 8E 00 00 00 1E 5F 5F 62 75 69 6C 74 69 6E 5F  ......__builtin_
  0000000140012510: 76 61 5F 6C 69 73 74 00 A5 00 00 00 07 01 06 63  va_list.......c
  0000000140012520: 68 61 72 00 28 A5 00 00 00 06 76 61 5F 6C 69 73  har.(....va_lis
  0000000140012530: 74 00 02 1F 1A 77 00 00 00 06 73 69 7A 65 5F 74  t....w....size_t
  0000000140012540: 00 03 23 2C D1 00 00 00 07 08 07 6C 6F 6E 67 20  ..#,......long 
  0000000140012550: 6C 6F 6E 67 20 75 6E 73 69 67 6E 65 64 20 69 6E  long unsigned in
  0000000140012560: 74 00 07 08 05 6C 6F 6E 67 20 6C 6F 6E 67 20 69  t....long long i
  0000000140012570: 6E 74 00 06 70 74 72 64 69 66 66 5F 74 00 03 58  nt..ptrdiff_t..X
  0000000140012580: 23 EB 00 00 00 07 02 07 73 68 6F 72 74 20 75 6E  #......short un
  0000000140012590: 73 69 67 6E 65 64 20 69 6E 74 00 07 04 05 69 6E  signed int....in
  00000001400125A0: 74 00 07 04 05 6C 6F 6E 67 20 69 6E 74 00 09 A5  t....long int..
  00000001400125B0: 00 00 00 07 04 07 75 6E 73 69 67 6E 65 64 20 69  ......unsigned i
  00000001400125C0: 6E 74 00 07 04 07 6C 6F 6E 67 20 75 6E 73 69 67  nt....long unsig
  00000001400125D0: 6E 65 64 20 69 6E 74 00 07 01 08 75 6E 73 69 67  ned int....unsig
  00000001400125E0: 6E 65 64 20 63 68 61 72 00 29 08 06 55 4C 4F 4E  ned char.)..ULON
  00000001400125F0: 47 00 04 18 1D 4C 01 00 00 06 57 49 4E 42 4F 4F  G....L....WINBOO
  0000000140012600: 4C 00 04 7F 0D 24 01 00 00 06 42 59 54 45 00 04  L....$....BYTE..
  0000000140012610: 8B 19 61 01 00 00 06 57 4F 52 44 00 04 8C 1A 0E  ..a....WORD.....
  0000000140012620: 01 00 00 06 44 57 4F 52 44 00 04 8D 1D 4C 01 00  ....DWORD....L..
  0000000140012630: 00 07 04 04 66 6C 6F 61 74 00 06 50 42 59 54 45  ....float..PBYTE
  0000000140012640: 00 04 90 11 D1 01 00 00 09 92 01 00 00 06 4C 50  .............LP
  0000000140012650: 42 59 54 45 00 04 91 11 D1 01 00 00 06 50 44 57  BYTE........PDW
  0000000140012660: 4F 52 44 00 04 97 12 F4 01 00 00 09 AC 01 00 00  ORD...........
  0000000140012670: 06 4C 50 56 4F 49 44 00 04 99 11 72 01 00 00 06  .LPVOID....r....
  0000000140012680: 4C 50 43 56 4F 49 44 00 04 9C 17 18 02 00 00 09  LPCVOID.........
  0000000140012690: 1D 02 00 00 2A 07 01 06 73 69 67 6E 65 64 20 63  ....*...signed c
  00000001400126A0: 68 61 72 00 07 02 05 73 68 6F 72 74 20 69 6E 74  har....short int
  00000001400126B0: 00 06 55 4C 4F 4E 47 5F 50 54 52 00 05 31 2E D1  ..ULONG_PTR..1.
  00000001400126C0: 00 00 00 06 53 49 5A 45 5F 54 00 05 93 27 3A 02  ....SIZE_T...':.
  00000001400126D0: 00 00 0F 50 56 4F 49 44 00 12 01 11 72 01 00 00  ...PVOID....r...
  00000001400126E0: 0F 4C 4F 4E 47 00 30 01 14 2B 01 00 00 07 08 04  .LONG.0..+......
  00000001400126F0: 64 6F 75 62 6C 65 00 07 10 04 6C 6F 6E 67 20 64  double....long d
  0000000140012700: 6F 75 62 6C 65 00 07 02 04 5F 46 6C 6F 61 74 31  ouble...._Float1
  0000000140012710: 36 00 07 02 04 5F 5F 62 66 31 36 00 1F 4A 4F 42  6....__bf16..JOB
  0000000140012720: 5F 4F 42 4A 45 43 54 5F 4E 45 54 5F 52 41 54 45  _OBJECT_NET_RATE
  0000000140012730: 5F 43 4F 4E 54 52 4F 4C 5F 46 4C 41 47 53 00 3C  _CONTROL_FLAGS.<
  0000000140012740: 01 00 00 06 C5 13 12 77 03 00 00 01 4A 4F 42 5F  ......w....JOB_
  0000000140012750: 4F 42 4A 45 43 54 5F 4E 45 54 5F 52 41 54 45 5F  OBJECT_NET_RATE_
  0000000140012760: 43 4F 4E 54 52 4F 4C 5F 45 4E 41 42 4C 45 00 01  CONTROL_ENABLE..
  0000000140012770: 01 4A 4F 42 5F 4F 42 4A 45 43 54 5F 4E 45 54 5F  .JOB_OBJECT_NET_
  0000000140012780: 52 41 54 45 5F 43 4F 4E 54 52 4F 4C 5F 4D 41 58  RATE_CONTROL_MAX
  0000000140012790: 5F 42 41 4E 44 57 49 44 54 48 00 02 01 4A 4F 42  _BANDWIDTH...JOB
  00000001400127A0: 5F 4F 42 4A 45 43 54 5F 4E 45 54 5F 52 41 54 45  _OBJECT_NET_RATE
  00000001400127B0: 5F 43 4F 4E 54 52 4F 4C 5F 44 53 43 50 5F 54 41  _CONTROL_DSCP_TA
  00000001400127C0: 47 00 04 01 4A 4F 42 5F 4F 42 4A 45 43 54 5F 4E  G...JOB_OBJECT_N
  00000001400127D0: 45 54 5F 52 41 54 45 5F 43 4F 4E 54 52 4F 4C 5F  ET_RATE_CONTROL_
  00000001400127E0: 56 41 4C 49 44 5F 46 4C 41 47 53 00 07 00 15 5F  VALID_FLAGS...._
  00000001400127F0: 4D 45 4D 4F 52 59 5F 42 41 53 49 43 5F 49 4E 46  MEMORY_BASIC_INF
  0000000140012800: 4F 52 4D 41 54 49 4F 4E 00 30 3F 16 39 04 00 00  ORMATION.0?.9...
  0000000140012810: 02 42 61 73 65 41 64 64 72 65 73 73 00 40 16 0D  .BaseAddress.@..
  0000000140012820: 5B 02 00 00 00 02 41 6C 6C 6F 63 61 74 69 6F 6E  [.....Allocation
  0000000140012830: 42 61 73 65 00 41 16 0D 5B 02 00 00 08 02 41 6C  Base.A..[.....Al
  0000000140012840: 6C 6F 63 61 74 69 6F 6E 50 72 6F 74 65 63 74 00  locationProtect.
  0000000140012850: 42 16 0D AC 01 00 00 10 02 50 61 72 74 69 74 69  B.......Partiti
  0000000140012860: 6F 6E 49 64 00 44 16 0C 9F 01 00 00 14 02 52 65  onId.D........Re
  0000000140012870: 67 69 6F 6E 53 69 7A 65 00 46 16 0E 4C 02 00 00  gionSize.F..L...
  0000000140012880: 18 02 53 74 61 74 65 00 47 16 0D AC 01 00 00 20  ..State.G..... 
  0000000140012890: 02 50 72 6F 74 65 63 74 00 48 16 0D AC 01 00 00  .Protect.H.....
  00000001400128A0: 24 02 54 79 70 65 00 49 16 0D AC 01 00 00 28 00  $.Type.I.....(.
  00000001400128B0: 0F 4D 45 4D 4F 52 59 5F 42 41 53 49 43 5F 49 4E  .MEMORY_BASIC_IN
  00000001400128C0: 46 4F 52 4D 41 54 49 4F 4E 00 4A 16 07 77 03 00  FORMATION.J..w..
  00000001400128D0: 00 0F 50 4D 45 4D 4F 52 59 5F 42 41 53 49 43 5F  ..PMEMORY_BASIC_
  00000001400128E0: 49 4E 46 4F 52 4D 41 54 49 4F 4E 00 4A 16 21 7C  INFORMATION.J.!|
  00000001400128F0: 04 00 00 09 77 03 00 00 16 92 01 00 00 91 04 00  ....w...........
  0000000140012900: 00 17 D1 00 00 00 07 00 15 5F 49 4D 41 47 45 5F  ........_IMAGE_
  0000000140012910: 44 4F 53 5F 48 45 41 44 45 52 00 40 7F 1C E5 05  DOS_HEADER.@...
  0000000140012920: 00 00 02 65 5F 6D 61 67 69 63 00 80 1C 0C 9F 01  ...e_magic......
  0000000140012930: 00 00 00 02 65 5F 63 62 6C 70 00 81 1C 0C 9F 01  ....e_cblp......
  0000000140012940: 00 00 02 02 65 5F 63 70 00 82 1C 0C 9F 01 00 00  ....e_cp........
  0000000140012950: 04 02 65 5F 63 72 6C 63 00 83 1C 0C 9F 01 00 00  ..e_crlc........
  0000000140012960: 06 02 65 5F 63 70 61 72 68 64 72 00 84 1C 0C 9F  ..e_cparhdr.....
  0000000140012970: 01 00 00 08 02 65 5F 6D 69 6E 61 6C 6C 6F 63 00  .....e_minalloc.
  0000000140012980: 85 1C 0C 9F 01 00 00 0A 02 65 5F 6D 61 78 61 6C  .........e_maxal
  0000000140012990: 6C 6F 63 00 86 1C 0C 9F 01 00 00 0C 02 65 5F 73  loc..........e_s
  00000001400129A0: 73 00 87 1C 0C 9F 01 00 00 0E 02 65 5F 73 70 00  s..........e_sp.
  00000001400129B0: 88 1C 0C 9F 01 00 00 10 02 65 5F 63 73 75 6D 00  .........e_csum.
  00000001400129C0: 89 1C 0C 9F 01 00 00 12 02 65 5F 69 70 00 8A 1C  .........e_ip...
  00000001400129D0: 0C 9F 01 00 00 14 02 65 5F 63 73 00 8B 1C 0C 9F  .......e_cs.....
  00000001400129E0: 01 00 00 16 02 65 5F 6C 66 61 72 6C 63 00 8C 1C  .....e_lfarlc...
  00000001400129F0: 0C 9F 01 00 00 18 02 65 5F 6F 76 6E 6F 00 8D 1C  .......e_ovno...
  0000000140012A00: 0C 9F 01 00 00 1A 02 65 5F 72 65 73 00 8E 1C 0C  .......e_res....
  0000000140012A10: E5 05 00 00 1C 02 65 5F 6F 65 6D 69 64 00 8F 1C  .....e_oemid...
  0000000140012A20: 0C 9F 01 00 00 24 02 65 5F 6F 65 6D 69 6E 66 6F  .....$.e_oeminfo
  0000000140012A30: 00 90 1C 0C 9F 01 00 00 26 02 65 5F 72 65 73 32  ........&.e_res2
  0000000140012A40: 00 91 1C 0C F5 05 00 00 28 02 65 5F 6C 66 61 6E  .......(.e_lfan
  0000000140012A50: 65 77 00 92 1C 0C 69 02 00 00 3C 00 16 9F 01 00  ew....i...<.....
  0000000140012A60: 00 F5 05 00 00 17 D1 00 00 00 03 00 16 9F 01 00  ..............
  0000000140012A70: 00 05 06 00 00 17 D1 00 00 00 09 00 0F 49 4D 41  ............IMA
  0000000140012A80: 47 45 5F 44 4F 53 5F 48 45 41 44 45 52 00 93 1C  GE_DOS_HEADER...
  0000000140012A90: 07 91 04 00 00 2B 04 06 0C 1E 07 53 06 00 00 20  .....+.....S... 
  0000000140012AA0: 50 68 79 73 69 63 61 6C 41 64 64 72 65 73 73 00  PhysicalAddress.
  0000000140012AB0: 0D 1E AC 01 00 00 20 56 69 72 74 75 61 6C 53 69  ..... VirtualSi
  0000000140012AC0: 7A 65 00 0E 1E AC 01 00 00 00 15 5F 49 4D 41 47  ze........_IMAG
  0000000140012AD0: 45 5F 53 45 43 54 49 4F 4E 5F 48 45 41 44 45 52  E_SECTION_HEADER
  0000000140012AE0: 00 28 0A 1E 66 07 00 00 02 4E 61 6D 65 00 0B 1E  .(..f....Name...
  0000000140012AF0: 0C 81 04 00 00 00 02 4D 69 73 63 00 0F 1E 09 1E  .......Misc.....
  0000000140012B00: 06 00 00 08 02 56 69 72 74 75 61 6C 41 64 64 72  .....VirtualAddr
  0000000140012B10: 65 73 73 00 10 1E 0D AC 01 00 00 0C 02 53 69 7A  ess.........Siz
  0000000140012B20: 65 4F 66 52 61 77 44 61 74 61 00 11 1E 0D AC 01  eOfRawData.....
  0000000140012B30: 00 00 10 02 50 6F 69 6E 74 65 72 54 6F 52 61 77  ....PointerToRaw
  0000000140012B40: 44 61 74 61 00 12 1E 0D AC 01 00 00 14 02 50 6F  Data.........Po
  0000000140012B50: 69 6E 74 65 72 54 6F 52 65 6C 6F 63 61 74 69 6F  interToRelocatio
  0000000140012B60: 6E 73 00 13 1E 0D AC 01 00 00 18 02 50 6F 69 6E  ns.........Poin
  0000000140012B70: 74 65 72 54 6F 4C 69 6E 65 6E 75 6D 62 65 72 73  terToLinenumbers
  0000000140012B80: 00 14 1E 0D AC 01 00 00 1C 02 4E 75 6D 62 65 72  .........Number
  0000000140012B90: 4F 66 52 65 6C 6F 63 61 74 69 6F 6E 73 00 15 1E  OfRelocations...
  0000000140012BA0: 0C 9F 01 00 00 20 02 4E 75 6D 62 65 72 4F 66 4C  ..... .NumberOfL
  0000000140012BB0: 69 6E 65 6E 75 6D 62 65 72 73 00 16 1E 0C 9F 01  inenumbers......
  0000000140012BC0: 00 00 22 02 43 68 61 72 61 63 74 65 72 69 73 74  ..".Characterist
  0000000140012BD0: 69 63 73 00 17 1E 0D AC 01 00 00 24 00 0F 50 49  ics.......$..PI
  0000000140012BE0: 4D 41 47 45 5F 53 45 43 54 49 4F 4E 5F 48 45 41  MAGE_SECTION_HEA
  0000000140012BF0: 44 45 52 00 18 1E 1D 84 07 00 00 09 53 06 00 00  DER.........S...
  0000000140012C00: 2C 74 61 67 43 4F 49 4E 49 54 42 41 53 45 00 07  ,tagCOINITBASE..
  0000000140012C10: 04 3C 01 00 00 07 95 0E C1 07 00 00 01 43 4F 49  .<..........COI
  0000000140012C20: 4E 49 54 42 41 53 45 5F 4D 55 4C 54 49 54 48 52  NITBASE_MULTITHR
  0000000140012C30: 45 41 44 45 44 00 00 00 1F 56 41 52 45 4E 55 4D  EADED....VARENUM
  0000000140012C40: 00 3C 01 00 00 08 01 02 06 4B 0A 00 00 01 56 54  .<.......K....VT
  0000000140012C50: 5F 45 4D 50 54 59 00 00 01 56 54 5F 4E 55 4C 4C  _EMPTY...VT_NULL
  0000000140012C60: 00 01 01 56 54 5F 49 32 00 02 01 56 54 5F 49 34  ...VT_I2...VT_I4
  0000000140012C70: 00 03 01 56 54 5F 52 34 00 04 01 56 54 5F 52 38  ...VT_R4...VT_R8
  0000000140012C80: 00 05 01 56 54 5F 43 59 00 06 01 56 54 5F 44 41  ...VT_CY...VT_DA
  0000000140012C90: 54 45 00 07 01 56 54 5F 42 53 54 52 00 08 01 56  TE...VT_BSTR...V
  0000000140012CA0: 54 5F 44 49 53 50 41 54 43 48 00 09 01 56 54 5F  T_DISPATCH...VT_
  0000000140012CB0: 45 52 52 4F 52 00 0A 01 56 54 5F 42 4F 4F 4C 00  ERROR...VT_BOOL.
  0000000140012CC0: 0B 01 56 54 5F 56 41 52 49 41 4E 54 00 0C 01 56  ..VT_VARIANT...V
  0000000140012CD0: 54 5F 55 4E 4B 4E 4F 57 4E 00 0D 01 56 54 5F 44  T_UNKNOWN...VT_D
  0000000140012CE0: 45 43 49 4D 41 4C 00 0E 01 56 54 5F 49 31 00 10  ECIMAL...VT_I1..
  0000000140012CF0: 01 56 54 5F 55 49 31 00 11 01 56 54 5F 55 49 32  .VT_UI1...VT_UI2
  0000000140012D00: 00 12 01 56 54 5F 55 49 34 00 13 01 56 54 5F 49  ...VT_UI4...VT_I
  0000000140012D10: 38 00 14 01 56 54 5F 55 49 38 00 15 01 56 54 5F  8...VT_UI8...VT_
  0000000140012D20: 49 4E 54 00 16 01 56 54 5F 55 49 4E 54 00 17 01  INT...VT_UINT...
  0000000140012D30: 56 54 5F 56 4F 49 44 00 18 01 56 54 5F 48 52 45  VT_VOID...VT_HRE
  0000000140012D40: 53 55 4C 54 00 19 01 56 54 5F 50 54 52 00 1A 01  SULT...VT_PTR...
  0000000140012D50: 56 54 5F 53 41 46 45 41 52 52 41 59 00 1B 01 56  VT_SAFEARRAY...V
  0000000140012D60: 54 5F 43 41 52 52 41 59 00 1C 01 56 54 5F 55 53  T_CARRAY...VT_US
  0000000140012D70: 45 52 44 45 46 49 4E 45 44 00 1D 01 56 54 5F 4C  ERDEFINED...VT_L
  0000000140012D80: 50 53 54 52 00 1E 01 56 54 5F 4C 50 57 53 54 52  PSTR...VT_LPWSTR
  0000000140012D90: 00 1F 01 56 54 5F 52 45 43 4F 52 44 00 24 01 56  ...VT_RECORD.$.V
  0000000140012DA0: 54 5F 49 4E 54 5F 50 54 52 00 25 01 56 54 5F 55  T_INT_PTR.%.VT_U
  0000000140012DB0: 49 4E 54 5F 50 54 52 00 26 01 56 54 5F 46 49 4C  INT_PTR.&.VT_FIL
  0000000140012DC0: 45 54 49 4D 45 00 40 01 56 54 5F 42 4C 4F 42 00  ETIME.@.VT_BLOB.
  0000000140012DD0: 41 01 56 54 5F 53 54 52 45 41 4D 00 42 01 56 54  A.VT_STREAM.B.VT
  0000000140012DE0: 5F 53 54 4F 52 41 47 45 00 43 01 56 54 5F 53 54  _STORAGE.C.VT_ST
  0000000140012DF0: 52 45 41 4D 45 44 5F 4F 42 4A 45 43 54 00 44 01  REAMED_OBJECT.D.
  0000000140012E00: 56 54 5F 53 54 4F 52 45 44 5F 4F 42 4A 45 43 54  VT_STORED_OBJECT
  0000000140012E10: 00 45 01 56 54 5F 42 4C 4F 42 5F 4F 42 4A 45 43  .E.VT_BLOB_OBJEC
  0000000140012E20: 54 00 46 01 56 54 5F 43 46 00 47 01 56 54 5F 43  T.F.VT_CF.G.VT_C
  0000000140012E30: 4C 53 49 44 00 48 01 56 54 5F 56 45 52 53 49 4F  LSID.H.VT_VERSIO
  0000000140012E40: 4E 45 44 5F 53 54 52 45 41 4D 00 49 0E 56 54 5F  NED_STREAM.I.VT_
  0000000140012E50: 42 53 54 52 5F 42 4C 4F 42 00 FF 0F 0E 56 54 5F  BSTR_BLOB...VT_
  0000000140012E60: 56 45 43 54 4F 52 00 00 10 0E 56 54 5F 41 52 52  VECTOR....VT_ARR
  0000000140012E70: 41 59 00 00 20 0E 56 54 5F 42 59 52 45 46 00 00  AY.. .VT_BYREF..
  0000000140012E80: 40 0E 56 54 5F 52 45 53 45 52 56 45 44 00 00 80  @.VT_RESERVED...
  0000000140012E90: 0E 56 54 5F 49 4C 4C 45 47 41 4C 00 FF FF 0E 56  .VT_ILLEGAL..V
  0000000140012EA0: 54 5F 49 4C 4C 45 47 41 4C 4D 41 53 4B 45 44 00  T_ILLEGALMASKED.
  0000000140012EB0: FF 0F 0E 56 54 5F 54 59 50 45 4D 41 53 4B 00 FF  ..VT_TYPEMASK.
  0000000140012EC0: 0F 00 2D 5F 69 6F 62 75 66 00 30 09 21 0A DB 0A  ..-_iobuf.0.!..
  0000000140012ED0: 00 00 05 5F 70 74 72 00 09 25 0B 37 01 00 00 00  ..._ptr..%.7....
  0000000140012EE0: 05 5F 63 6E 74 00 09 26 09 24 01 00 00 08 05 5F  ._cnt..&.$....._
  0000000140012EF0: 62 61 73 65 00 09 27 0B 37 01 00 00 10 05 5F 66  base..'.7....._f
  0000000140012F00: 6C 61 67 00 09 28 09 24 01 00 00 18 05 5F 66 69  lag..(.$....._fi
  0000000140012F10: 6C 65 00 09 29 09 24 01 00 00 1C 05 5F 63 68 61  le..).$....._cha
  0000000140012F20: 72 62 75 66 00 09 2A 09 24 01 00 00 20 05 5F 62  rbuf..*.$... ._b
  0000000140012F30: 75 66 73 69 7A 00 09 2B 09 24 01 00 00 24 05 5F  ufsiz..+.$...$._
  0000000140012F40: 74 6D 70 66 6E 61 6D 65 00 09 2C 0B 37 01 00 00  tmpfname..,.7...
  0000000140012F50: 28 00 06 46 49 4C 45 00 09 2F 19 4B 0A 00 00 18  (..FILE../.K....
  0000000140012F60: 5F 5F 52 55 4E 54 49 4D 45 5F 50 53 45 55 44 4F  __RUNTIME_PSEUDO
  0000000140012F70: 5F 52 45 4C 4F 43 5F 4C 49 53 54 5F 5F 00 31 0D  _RELOC_LIST__.1.
  0000000140012F80: A5 00 00 00 18 5F 5F 52 55 4E 54 49 4D 45 5F 50  ....__RUNTIME_P
  0000000140012F90: 53 45 55 44 4F 5F 52 45 4C 4F 43 5F 4C 49 53 54  SEUDO_RELOC_LIST
  0000000140012FA0: 5F 45 4E 44 5F 5F 00 32 0D A5 00 00 00 18 5F 5F  _END__.2.....__
  0000000140012FB0: 49 6D 61 67 65 42 61 73 65 00 33 19 05 06 00 00  ImageBase.3.....
  0000000140012FC0: 19 08 3C 71 0B 00 00 05 61 64 64 65 6E 64 00 01  ..<q....addend..
  0000000140012FD0: 3D 09 AC 01 00 00 00 05 74 61 72 67 65 74 00 01  =......target..
  0000000140012FE0: 3E 09 AC 01 00 00 04 00 06 72 75 6E 74 69 6D 65  >.......runtime
  0000000140012FF0: 5F 70 73 65 75 64 6F 5F 72 65 6C 6F 63 5F 69 74  _pseudo_reloc_it
  0000000140013000: 65 6D 5F 76 31 00 01 3F 03 49 0B 00 00 19 0C 47  em_v1..?.I.....G
  0000000140013010: CA 0B 00 00 05 73 79 6D 00 01 48 09 AC 01 00 00  ....sym..H....
  0000000140013020: 00 05 74 61 72 67 65 74 00 01 49 09 AC 01 00 00  ..target..I....
  0000000140013030: 04 05 66 6C 61 67 73 00 01 4A 09 AC 01 00 00 08  ..flags..J.....
  0000000140013040: 00 06 72 75 6E 74 69 6D 65 5F 70 73 65 75 64 6F  ..runtime_pseudo
  0000000140013050: 5F 72 65 6C 6F 63 5F 69 74 65 6D 5F 76 32 00 01  _reloc_item_v2..
  0000000140013060: 4B 03 96 0B 00 00 19 0C 4D 28 0C 00 00 05 6D 61  K.......M(....ma
  0000000140013070: 67 69 63 31 00 01 4E 09 AC 01 00 00 00 05 6D 61  gic1..N......ma
  0000000140013080: 67 69 63 32 00 01 4F 09 AC 01 00 00 04 05 76 65  gic2..O......ve
  0000000140013090: 72 73 69 6F 6E 00 01 50 09 AC 01 00 00 08 00 06  rsion..P.......
  00000001400130A0: 72 75 6E 74 69 6D 65 5F 70 73 65 75 64 6F 5F 72  runtime_pseudo_r
  00000001400130B0: 65 6C 6F 63 5F 76 32 00 01 51 03 EF 0B 00 00 2E  eloc_v2..Q.....
  00000001400130C0: 56 02 00 00 28 01 AA 10 B7 0C 00 00 05 6F 6C 64  V...(......old
  00000001400130D0: 5F 70 72 6F 74 65 63 74 00 01 AC 09 AC 01 00 00  _protect......
  00000001400130E0: 00 05 62 61 73 65 5F 61 64 64 72 65 73 73 00 01  ..base_address..
  00000001400130F0: AD 09 5B 02 00 00 08 05 72 65 67 69 6F 6E 5F 73  .[.....region_s
  0000000140013100: 69 7A 65 00 01 AE 0A 4C 02 00 00 10 05 73 65 63  ize...L.....sec
  0000000140013110: 5F 73 74 61 72 74 00 01 AF 09 C3 01 00 00 18 05  _start........
  0000000140013120: 68 61 73 68 00 01 B0 19 66 07 00 00 20 00 2F 56  hash...f... ./V
  0000000140013130: 02 00 00 01 B1 03 48 0C 00 00 13 74 68 65 5F 73  .....H....the_s
  0000000140013140: 65 63 73 00 B3 12 DD 0C 00 00 09 03 A8 70 00 40  ecs.......p.@
  0000000140013150: 01 00 00 00 09 B7 0C 00 00 13 6D 61 78 53 65 63  .........maxSec
  0000000140013160: 74 69 6F 6E 73 00 B4 0C 24 01 00 00 09 03 A4 70  tions..$.....p
  0000000140013170: 00 40 01 00 00 00 1A 47 65 74 4C 61 73 74 45 72  .@.....GetLastEr
  0000000140013180: 72 6F 72 00 0B 31 1B AC 01 00 00 11 56 69 72 74  ror..1.....Virt
  0000000140013190: 75 61 6C 50 72 6F 74 65 63 74 00 0A 4B 1D 82 01  ualProtect..K...
  00000001400131A0: 00 00 44 0D 00 00 08 F9 01 00 00 08 4C 02 00 00  ..D........L...
  00000001400131B0: 08 AC 01 00 00 08 E5 01 00 00 00 11 56 69 72 74  ..........Virt
  00000001400131C0: 75 61 6C 51 75 65 72 79 00 0A 33 1C 4C 02 00 00  ualQuery..3.L...
  00000001400131D0: 6D 0D 00 00 08 08 02 00 00 08 5A 04 00 00 08 4C  m.........Z....L
  00000001400131E0: 02 00 00 00 1A 5F 47 65 74 50 45 49 6D 61 67 65  ....._GetPEImage
  00000001400131F0: 42 61 73 65 00 01 A8 0E C3 01 00 00 11 5F 5F 6D  Base.......__m
  0000000140013200: 69 6E 67 77 5F 47 65 74 53 65 63 74 69 6F 6E 46  ingw_GetSectionF
  0000000140013210: 6F 72 41 64 64 72 65 73 73 00 01 A7 1E 66 07 00  orAddress...f..
  0000000140013220: 00 B4 0D 00 00 08 F9 01 00 00 00 11 6D 65 6D 63  ..........memc
  0000000140013230: 70 79 00 0C 32 12 72 01 00 00 D7 0D 00 00 08 72  py..2.r.......r
  0000000140013240: 01 00 00 08 18 02 00 00 08 D1 00 00 00 00 30 61  .............0a
  0000000140013250: 62 6F 72 74 00 0D 23 01 28 31 76 66 70 72 69 6E  bort..#.(1vfprin
  0000000140013260: 74 66 00 09 D4 01 0F 24 01 00 00 08 0E 00 00 08  tf....$........
  0000000140013270: 08 0E 00 00 08 0D 0E 00 00 08 12 0E 00 00 00 09  ................
  0000000140013280: DB 0A 00 00 09 AD 00 00 00 1E 5F 5F 62 75 69 6C  ........__buil
  0000000140013290: 74 69 6E 5F 6D 73 5F 76 61 5F 6C 69 73 74 00 A5  tin_ms_va_list.
  00000001400132A0: 00 00 00 11 5F 5F 61 63 72 74 5F 69 6F 62 5F 66  ....__acrt_iob_f
  00000001400132B0: 75 6E 63 00 09 65 17 08 0E 00 00 4E 0E 00 00 08  unc..e.....N....
  00000001400132C0: 3C 01 00 00 00 1A 5F 5F 6D 69 6E 67 77 5F 47 65  <.....__mingw_Ge
  00000001400132D0: 74 53 65 63 74 69 6F 6E 43 6F 75 6E 74 00 01 A6  tSectionCount..
  00000001400132E0: 0C 24 01 00 00 32 5F 70 65 69 33 38 36 5F 72 75  .$...2_pei386_ru
  00000001400132F0: 6E 74 69 6D 65 5F 72 65 6C 6F 63 61 74 6F 72 00  ntime_relocator.
  0000000140013300: 01 E5 01 01 30 19 00 40 01 00 00 00 63 03 00 00  ...0..@....c...
  0000000140013310: 00 00 00 00 01 9C 99 13 00 00 33 77 61 73 5F 69  ..........3was_i
  0000000140013320: 6E 69 74 00 01 E7 01 16 24 01 00 00 09 03 A0 70  nit....$......p
  0000000140013330: 00 40 01 00 00 00 34 6D 53 65 63 73 00 01 E9 01  .@....4mSecs...
  0000000140013340: 07 24 01 00 00 D9 03 00 00 D7 03 00 00 21 99 13  .$.........!..
  0000000140013350: 00 00 B5 19 00 40 01 00 00 00 02 3C 00 00 00 F5  ....@.....<...
  0000000140013360: 01 03 43 13 00 00 1B B0 13 00 00 1B BE 13 00 00  ..C...........
  0000000140013370: 1B CA 13 00 00 35 3C 00 00 00 0A D7 13 00 00 F1  ....5<.......
  0000000140013380: 03 00 00 E1 03 00 00 0A E8 13 00 00 5C 04 00 00  ..........\...
  0000000140013390: 2A 04 00 00 0A F8 13 00 00 78 05 00 00 62 05 00  *.......x...b..
  00000001400133A0: 00 0A 0D 14 00 00 F2 05 00 00 EC 05 00 00 0A 1C  ..............
  00000001400133B0: 14 00 00 14 06 00 00 0A 06 00 00 0A 26 14 00 00  ............&...
  00000001400133C0: 48 06 00 00 3A 06 00 00 22 54 14 00 00 4C 00 00  H...:..."T...L..
  00000001400133D0: 00 A1 0F 00 00 0A 55 14 00 00 8C 06 00 00 84 06  .....U.........
  00000001400133E0: 00 00 0A 6A 14 00 00 BD 06 00 00 B5 06 00 00 0B  ...j..........
  00000001400133F0: 86 1C 00 40 01 00 00 00 6F 16 00 00 04 01 52 09  ...@....o.....R.
  0000000140013400: 03 A8 42 00 40 01 00 00 00 04 01 58 02 75 00 04  .B.@......X.u..
  0000000140013410: 02 77 20 02 74 00 00 00 1C 8E 14 00 00 5F 1A 00  .w .t........_..
  0000000140013420: 40 01 00 00 00 02 5F 1A 00 40 01 00 00 00 0B 00  @....._..@......
  0000000140013430: 00 00 00 00 00 00 D5 01 4A 10 00 00 03 A4 14 00  .......J......
  0000000140013440: 00 EE 06 00 00 EC 06 00 00 03 B1 14 00 00 F8 06  ............
  0000000140013450: 00 00 F6 06 00 00 03 BD 14 00 00 07 07 00 00 05  ..............
  0000000140013460: 07 00 00 12 8E 14 00 00 5F 1A 00 40 01 00 00 00  ........_..@....
  0000000140013470: 04 5F 1A 00 40 01 00 00 00 0B 00 00 00 00 00 00  ._..@...........
  0000000140013480: 00 07 01 01 03 A4 14 00 00 12 07 00 00 10 07 00  ...............
  0000000140013490: 00 03 B1 14 00 00 1C 07 00 00 1A 07 00 00 03 BD  ..............
  00000001400134A0: 14 00 00 2B 07 00 00 29 07 00 00 0B 67 1A 00 40  ...+...)....g..@
  00000001400134B0: 01 00 00 00 06 15 00 00 04 01 52 02 75 00 00 00  ..........R.u...
  00000001400134C0: 00 21 8E 14 00 00 B9 1A 00 40 01 00 00 00 02 6B  .!......@.....k
  00000001400134D0: 00 00 00 DC 01 0C DD 10 00 00 03 A4 14 00 00 36  ............6
  00000001400134E0: 07 00 00 34 07 00 00 03 B1 14 00 00 40 07 00 00  ...4.......@...
  00000001400134F0: 3E 07 00 00 03 BD 14 00 00 4F 07 00 00 4D 07 00  >.......O...M..
  0000000140013500: 00 36 8E 14 00 00 B9 1A 00 40 01 00 00 00 04 6B  .6......@.....k
  0000000140013510: 00 00 00 01 07 01 01 03 A4 14 00 00 5A 07 00 00  ...........Z...
  0000000140013520: 58 07 00 00 03 B1 14 00 00 64 07 00 00 62 07 00  X.......d...b..
  0000000140013530: 00 03 BD 14 00 00 73 07 00 00 71 07 00 00 0B C5  .....s...q....
  0000000140013540: 1A 00 40 01 00 00 00 06 15 00 00 04 01 52 02 75  ..@..........R.u
  0000000140013550: 00 00 00 00 1C 8E 14 00 00 8A 1B 00 40 01 00 00  ............@...
  0000000140013560: 00 02 8A 1B 00 40 01 00 00 00 0B 00 00 00 00 00  .....@..........
  0000000140013570: 00 00 D2 01 86 11 00 00 03 A4 14 00 00 7E 07 00  ...........~..
  0000000140013580: 00 7C 07 00 00 03 B1 14 00 00 88 07 00 00 86 07  .|.............
  0000000140013590: 00 00 03 BD 14 00 00 97 07 00 00 95 07 00 00 12  ...............
  00000001400135A0: 8E 14 00 00 8A 1B 00 40 01 00 00 00 04 8A 1B 00  .......@........
  00000001400135B0: 40 01 00 00 00 0B 00 00 00 00 00 00 00 07 01 01  @...............
  00000001400135C0: 03 A4 14 00 00 A2 07 00 00 A0 07 00 00 03 B1 14  .............
  00000001400135D0: 00 00 AC 07 00 00 AA 07 00 00 03 BD 14 00 00 BB  ............
  00000001400135E0: 07 00 00 B9 07 00 00 0B 92 1B 00 40 01 00 00 00  ..........@....
  00000001400135F0: 06 15 00 00 04 01 52 02 75 00 00 00 00 1C 8E 14  ......R.u.......
  0000000140013600: 00 00 DF 1B 00 40 01 00 00 00 02 DF 1B 00 40 01  ....@.......@.
  0000000140013610: 00 00 00 0A 00 00 00 00 00 00 00 D8 01 2F 12 00  ............/..
  0000000140013620: 00 03 A4 14 00 00 C6 07 00 00 C4 07 00 00 03 B1  ............
  0000000140013630: 14 00 00 D0 07 00 00 CE 07 00 00 03 BD 14 00 00  .............
  0000000140013640: DF 07 00 00 DD 07 00 00 12 8E 14 00 00 DF 1B 00  .............
  0000000140013650: 40 01 00 00 00 04 DF 1B 00 40 01 00 00 00 0A 00  @.......@......
  0000000140013660: 00 00 00 00 00 00 07 01 01 03 A4 14 00 00 EA 07  ..............
  0000000140013670: 00 00 E8 07 00 00 03 B1 14 00 00 F4 07 00 00 F2  ............
  0000000140013680: 07 00 00 03 BD 14 00 00 03 08 00 00 01 08 00 00  ...............
  0000000140013690: 0B E7 1B 00 40 01 00 00 00 06 15 00 00 04 01 52  ...@..........R
  00000001400136A0: 02 75 00 00 00 00 22 33 14 00 00 76 00 00 00 07  .u...."3...v....
  00000001400136B0: 13 00 00 0A 38 14 00 00 12 08 00 00 0C 08 00 00  ....8...........
  00000001400136C0: 37 42 14 00 00 81 00 00 00 0A 43 14 00 00 2C 08  7B........C...,.
  00000001400136D0: 00 00 2A 08 00 00 12 8E 14 00 00 4E 1C 00 40 01  ..*........N..@.
  00000001400136E0: 00 00 00 01 4E 1C 00 40 01 00 00 00 0A 00 00 00  ....N..@........
  00000001400136F0: 00 00 00 00 73 01 04 03 A4 14 00 00 36 08 00 00  ....s......6...
  0000000140013700: 34 08 00 00 03 B1 14 00 00 40 08 00 00 3E 08 00  4.......@...>..
  0000000140013710: 00 03 BD 14 00 00 4F 08 00 00 4D 08 00 00 12 8E  .....O...M.....
  0000000140013720: 14 00 00 4E 1C 00 40 01 00 00 00 03 4E 1C 00 40  ...N..@.....N..@
  0000000140013730: 01 00 00 00 0A 00 00 00 00 00 00 00 07 01 01 03  ................
  0000000140013740: A4 14 00 00 5A 08 00 00 58 08 00 00 03 B1 14 00  ...Z...X......
  0000000140013750: 00 64 08 00 00 62 08 00 00 03 BD 14 00 00 73 08  .d...b.......s.
  0000000140013760: 00 00 71 08 00 00 0B 56 1C 00 40 01 00 00 00 06  ..q....V..@.....
  0000000140013770: 15 00 00 04 01 52 02 74 00 00 00 00 00 00 0D 70  .....R.t.......p
  0000000140013780: 1C 00 40 01 00 00 00 6F 16 00 00 26 13 00 00 04  ..@....o...&....
  0000000140013790: 01 52 09 03 78 42 00 40 01 00 00 00 00 0B 93 1C  .R..xB.@........
  00000001400137A0: 00 40 01 00 00 00 6F 16 00 00 04 01 52 09 03 40  .@....o.....R..@
  00000001400137B0: 42 00 40 01 00 00 00 00 00 00 38 CA 14 00 00 D0  B.@.......8...
  00000001400137C0: 1A 00 40 01 00 00 00 58 00 00 00 00 00 00 00 01  ..@....X........
  00000001400137D0: FA 01 03 8B 13 00 00 0A ED 14 00 00 80 08 00 00  ..............
  00000001400137E0: 7C 08 00 00 39 F6 14 00 00 03 91 AC 7F 0B 0F 1B  |...9.........
  00000001400137F0: 00 40 01 00 00 00 14 0D 00 00 04 01 59 02 75 00  .@..........Y.u.
  0000000140013800: 00 00 14 77 19 00 40 01 00 00 00 4E 0E 00 00 00  ...w..@....N....
  0000000140013810: 23 64 6F 5F 70 73 65 75 64 6F 5F 72 65 6C 6F 63  #do_pseudo_reloc
  0000000140013820: 00 35 01 7F 14 00 00 10 73 74 61 72 74 00 35 01  .5......start.5.
  0000000140013830: 19 72 01 00 00 10 65 6E 64 00 35 01 27 72 01 00  .r....end.5.'r..
  0000000140013840: 00 10 62 61 73 65 00 35 01 33 72 01 00 00 0C 61  ..base.5.3r....a
  0000000140013850: 64 64 72 5F 69 6D 70 00 37 01 0D FC 00 00 00 0C  ddr_imp.7......
  0000000140013860: 72 65 6C 64 61 74 61 00 37 01 17 FC 00 00 00 0C  reldata.7......
  0000000140013870: 72 65 6C 6F 63 5F 74 61 72 67 65 74 00 38 01 0D  reloc_target.8..
  0000000140013880: FC 00 00 00 0C 76 32 5F 68 64 72 00 39 01 1C 7F  ....v2_hdr.9...
  0000000140013890: 14 00 00 0C 72 00 3A 01 21 84 14 00 00 0C 62 69  ....r.:.!.....bi
  00000001400138A0: 74 73 00 3B 01 10 3C 01 00 00 3A 54 14 00 00 0C  ts.;..<...:T....
  00000001400138B0: 6F 00 6B 01 26 89 14 00 00 24 0C 6E 65 77 76 61  o.k.&....$.newva
  00000001400138C0: 6C 00 70 01 0A AC 01 00 00 00 00 24 0C 6D 61 78  l.p.......$.max
  00000001400138D0: 5F 75 6E 73 69 67 6E 65 64 00 C6 01 15 FC 00 00  _unsigned.....
  00000001400138E0: 00 0C 6D 69 6E 5F 73 69 67 6E 65 64 00 C7 01 15  ..min_signed...
  00000001400138F0: FC 00 00 00 00 00 09 28 0C 00 00 09 CA 0B 00 00  ......(.......
  0000000140013900: 09 71 0B 00 00 23 5F 5F 77 72 69 74 65 5F 6D 65  .q...#__write_me
  0000000140013910: 6D 6F 72 79 00 07 01 CA 14 00 00 10 61 64 64 72  mory.......addr
  0000000140013920: 00 07 01 17 72 01 00 00 10 73 72 63 00 07 01 29  ....r....src...)
  0000000140013930: 18 02 00 00 10 6C 65 6E 00 07 01 35 C2 00 00 00  .....len...5...
  0000000140013940: 00 3B 72 65 73 74 6F 72 65 5F 6D 6F 64 69 66 69  .;restore_modifi
  0000000140013950: 65 64 5F 73 65 63 74 69 6F 6E 73 00 01 E9 01 01  ed_sections....
  0000000140013960: 06 15 00 00 25 69 00 EB 07 24 01 00 00 25 6F 6C  ....%i..$...%ol
  0000000140013970: 64 70 72 6F 74 00 EC 09 AC 01 00 00 00 3C 6D 61  dprot......<ma
  0000000140013980: 72 6B 5F 73 65 63 74 69 6F 6E 5F 77 72 69 74 61  rk_section_writa
  0000000140013990: 62 6C 65 00 01 B7 01 C0 17 00 40 01 00 00 00 62  ble.....@....b
  00000001400139A0: 01 00 00 00 00 00 00 01 9C 6F 16 00 00 26 61 64  .........o...&ad
  00000001400139B0: 64 72 00 B7 1F F9 01 00 00 9C 08 00 00 90 08 00  dr............
  00000001400139C0: 00 13 62 00 B9 1C 39 04 00 00 03 91 B0 7F 1D 68  ..b..9.......h
  00000001400139D0: 00 BA 19 66 07 00 00 D8 08 00 00 CC 08 00 00 1D  ..f..........
  00000001400139E0: 69 00 BB 07 24 01 00 00 09 09 00 00 03 09 00 00  i..$...........
  00000001400139F0: 3D A0 18 00 40 01 00 00 00 50 00 00 00 00 00 00  =...@....P......
  0000000140013A00: 00 EA 15 00 00 1D 6E 65 77 5F 70 72 6F 74 65 63  .....new_protec
  0000000140013A10: 74 00 D7 0D 74 01 00 00 22 09 00 00 20 09 00 00  t..t..."... ...
  0000000140013A20: 0D D4 18 00 40 01 00 00 00 14 0D 00 00 C1 15 00  ...@..........
  0000000140013A30: 00 04 01 59 02 73 00 00 14 DE 18 00 40 01 00 00  ...Y.s.....@...
  0000000140013A40: 00 FF 0C 00 00 0B EC 18 00 40 01 00 00 00 6F 16  .......@....o.
  0000000140013A50: 00 00 04 01 52 09 03 18 42 00 40 01 00 00 00 00  ....R...B.@.....
  0000000140013A60: 00 0D 20 18 00 40 01 00 00 00 85 0D 00 00 02 16  .. ..@..........
  0000000140013A70: 00 00 04 01 52 02 73 00 00 14 4D 18 00 40 01 00  ....R.s...M..@..
  0000000140013A80: 00 00 6D 0D 00 00 0D 71 18 00 40 01 00 00 00 44  ..m....q..@....D
  0000000140013A90: 0D 00 00 2E 16 00 00 04 01 51 03 91 B0 7F 04 01  .........Q.....
  0000000140013AA0: 58 02 08 30 00 0D 12 19 00 40 01 00 00 00 6F 16  X..0.....@....o.
  0000000140013AB0: 00 00 4D 16 00 00 04 01 52 09 03 E0 41 00 40 01  ..M.....R..A.@.
  0000000140013AC0: 00 00 00 00 0B 22 19 00 40 01 00 00 00 6F 16 00  ....."..@....o..
  0000000140013AD0: 00 04 01 52 09 03 C0 41 00 40 01 00 00 00 04 01  ...R..A.@......
  0000000140013AE0: 51 02 73 00 00 00 3E 5F 5F 72 65 70 6F 72 74 5F  Q.s...>__report_
  0000000140013AF0: 65 72 72 6F 72 00 01 54 01 50 17 00 40 01 00 00  error..T.P..@...
  0000000140013B00: 00 69 00 00 00 00 00 00 00 01 9C 3E 17 00 00 26  .i.........>...&
  0000000140013B10: 6D 73 67 00 54 1D 0D 0E 00 00 2E 09 00 00 2A 09  msg.T.........*.
  0000000140013B20: 00 00 3F 13 61 72 67 70 00 93 0B B2 00 00 00 02  ..?.argp.......
  0000000140013B30: 91 58 0D 7C 17 00 40 01 00 00 00 2C 0E 00 00 D2  .X.|..@....,...
  0000000140013B40: 16 00 00 04 01 52 01 32 00 0D 96 17 00 40 01 00  .....R.2.....@..
  0000000140013B50: 00 00 3E 17 00 00 FB 16 00 00 04 01 52 09 03 A0  ..>........R...
  0000000140013B60: 41 00 40 01 00 00 00 04 01 51 01 31 04 01 58 01  A.@......Q.1..X.
  0000000140013B70: 4B 00 0D A5 17 00 40 01 00 00 00 2C 0E 00 00 12  K....@....,....
  0000000140013B80: 17 00 00 04 01 52 01 32 00 0D B3 17 00 40 01 00  .....R.2....@..
  0000000140013B90: 00 00 E2 0D 00 00 30 17 00 00 04 01 51 02 73 00  .....0.....Q.s.
  0000000140013BA0: 04 01 58 02 74 00 00 14 B9 17 00 40 01 00 00 00  ..X.t.....@....
  0000000140013BB0: D7 0D 00 00 00 40 66 77 72 69 74 65 00 5F 5F 62  ....@fwrite.__b
  0000000140013BC0: 75 69 6C 74 69 6E 5F 66 77 72 69 74 65 00 0E 00  uiltin_fwrite...
  0000000140013BD0: 00 F1 02 00 00 05 00 01 08 27 10 00 00 08 47 4E  ........'....GN
  0000000140013BE0: 55 20 43 39 39 20 31 34 2E 32 2E 30 20 2D 6D 36  U C99 14.2.0 -m6
  0000000140013BF0: 34 20 2D 6D 61 73 6D 3D 61 74 74 20 2D 6D 74 75  4 -masm=att -mtu
  0000000140013C00: 6E 65 3D 67 65 6E 65 72 69 63 20 2D 6D 61 72 63  ne=generic -marc
  0000000140013C10: 68 3D 6E 6F 63 6F 6E 61 20 2D 67 20 2D 4F 32 20  h=nocona -g -O2 
  0000000140013C20: 2D 73 74 64 3D 67 6E 75 39 39 00 0C 6A 0B 00 00  -std=gnu99..j...
  0000000140013C30: 9F 0B 00 00 A0 1C 00 40 01 00 00 00 4C 00 00 00  .......@....L...
  0000000140013C40: 00 00 00 00 1C 0F 00 00 01 08 04 64 6F 75 62 6C  ...........doubl
  0000000140013C50: 65 00 01 01 06 63 68 61 72 00 09 81 00 00 00 01  e....char.......
  0000000140013C60: 08 07 6C 6F 6E 67 20 6C 6F 6E 67 20 75 6E 73 69  ..long long unsi
  0000000140013C70: 67 6E 65 64 20 69 6E 74 00 01 08 05 6C 6F 6E 67  gned int....long
  0000000140013C80: 20 6C 6F 6E 67 20 69 6E 74 00 01 02 07 73 68 6F   long int....sho
  0000000140013C90: 72 74 20 75 6E 73 69 67 6E 65 64 20 69 6E 74 00  rt unsigned int.
  0000000140013CA0: 01 04 05 69 6E 74 00 01 04 05 6C 6F 6E 67 20 69  ...int....long i
  0000000140013CB0: 6E 74 00 01 04 07 75 6E 73 69 67 6E 65 64 20 69  nt....unsigned i
  0000000140013CC0: 6E 74 00 01 04 07 6C 6F 6E 67 20 75 6E 73 69 67  nt....long unsig
  0000000140013CD0: 6E 65 64 20 69 6E 74 00 01 01 08 75 6E 73 69 67  ned int....unsig
  0000000140013CE0: 6E 65 64 20 63 68 61 72 00 01 04 04 66 6C 6F 61  ned char....floa
  0000000140013CF0: 74 00 01 10 04 6C 6F 6E 67 20 64 6F 75 62 6C 65  t....long double
  0000000140013D00: 00 0A 5F 65 78 63 65 70 74 69 6F 6E 00 28 02 9C  .._exception.(..
  0000000140013D10: 0A 88 01 00 00 02 74 79 70 65 00 9D 09 CF 00 00  ......type.....
  0000000140013D20: 00 00 02 6E 61 6D 65 00 9E 11 88 01 00 00 08 02  ...name.........
  0000000140013D30: 61 72 67 31 00 9F 0C 77 00 00 00 10 02 61 72 67  arg1...w.....arg
  0000000140013D40: 32 00 A0 0C 77 00 00 00 18 02 72 65 74 76 61 6C  2...w.....retval
  0000000140013D50: 00 A1 0C 77 00 00 00 20 00 04 89 00 00 00 0B 66  ..w... .......f
  0000000140013D60: 55 73 65 72 4D 61 74 68 45 72 72 00 01 09 17 A2  UserMathErr....
  0000000140013D70: 01 00 00 04 A7 01 00 00 0C CF 00 00 00 B6 01 00  .............
  0000000140013D80: 00 05 B6 01 00 00 00 04 30 01 00 00 06 73 74 55  .......0....stU
  0000000140013D90: 73 65 72 4D 61 74 68 45 72 72 00 0A 8D 01 00 00  serMathErr......
  0000000140013DA0: 09 03 B0 70 00 40 01 00 00 00 0D 5F 5F 73 65 74  ..p.@.....__set
  0000000140013DB0: 75 73 65 72 6D 61 74 68 65 72 72 00 02 A7 10 F8  usermatherr...
  0000000140013DC0: 01 00 00 05 A2 01 00 00 00 0E 5F 5F 6D 69 6E 67  .........__ming
  0000000140013DD0: 77 5F 73 65 74 75 73 65 72 6D 61 74 68 65 72 72  w_setusermatherr
  0000000140013DE0: 00 02 A6 08 E0 1C 00 40 01 00 00 00 0C 00 00 00  .....@........
  0000000140013DF0: 00 00 00 00 01 9C 50 02 00 00 03 66 00 1C 2C A2  ......P....f..,
  0000000140013E00: 01 00 00 49 09 00 00 45 09 00 00 0F EC 1C 00 40  ...I...E......@
  0000000140013E10: 01 00 00 00 D9 01 00 00 07 01 52 03 A3 01 52 00  .........R..R.
  0000000140013E20: 00 10 5F 5F 6D 69 6E 67 77 5F 72 61 69 73 65 5F  ..__mingw_raise_
  0000000140013E30: 6D 61 74 68 65 72 72 00 02 A4 08 A0 1C 00 40 01  matherr......@.
  0000000140013E40: 00 00 00 3E 00 00 00 00 00 00 00 01 9C 03 74 79  ...>..........ty
  0000000140013E50: 70 00 0C 21 CF 00 00 00 5D 09 00 00 57 09 00 00  p..!...]...W...
  0000000140013E60: 03 6E 61 6D 65 00 0C 32 88 01 00 00 75 09 00 00  .name..2....u...
  0000000140013E70: 71 09 00 00 03 61 31 00 0C 3F 77 00 00 00 87 09  q....a1..?w.....
  0000000140013E80: 00 00 83 09 00 00 03 61 32 00 0C 4A 77 00 00 00  .......a2..Jw...
  0000000140013E90: 9B 09 00 00 97 09 00 00 11 72 73 6C 74 00 01 0D  .........rslt...
  0000000140013EA0: 0F 77 00 00 00 02 91 20 06 65 78 00 0F 30 01 00  .w..... .ex..0..
  0000000140013EB0: 00 02 91 40 12 D9 1C 00 40 01 00 00 00 07 01 52  ...@...@......R
  0000000140013EC0: 02 91 40 00 00 00 84 00 00 00 05 00 01 08 39 11  ..@...........9.
  0000000140013ED0: 00 00 01 47 4E 55 20 43 39 39 20 31 34 2E 32 2E  ...GNU C99 14.2.
  0000000140013EE0: 30 20 2D 6D 36 34 20 2D 6D 61 73 6D 3D 61 74 74  0 -m64 -masm=att
  0000000140013EF0: 20 2D 6D 74 75 6E 65 3D 67 65 6E 65 72 69 63 20   -mtune=generic 
  0000000140013F00: 2D 6D 61 72 63 68 3D 6E 6F 63 6F 6E 61 20 2D 67  -march=nocona -g
  0000000140013F10: 20 2D 4F 32 20 2D 73 74 64 3D 67 6E 75 39 39 00   -O2 -std=gnu99.
  0000000140013F20: 0C 37 0C 00 00 69 0C 00 00 CA 0F 00 00 02 5F 66  .7...i......._f
  0000000140013F30: 6D 6F 64 65 00 01 06 05 80 00 00 00 09 03 C0 70  mode..........p
  0000000140013F40: 00 40 01 00 00 00 03 04 05 69 6E 74 00 00 DD 0F  .@.......int...
  0000000140013F50: 00 00 05 00 01 08 67 11 00 00 19 47 4E 55 20 43  ......g....GNU C
  0000000140013F60: 39 39 20 31 34 2E 32 2E 30 20 2D 6D 36 34 20 2D  99 14.2.0 -m64 -
  0000000140013F70: 6D 61 73 6D 3D 61 74 74 20 2D 6D 74 75 6E 65 3D  masm=att -mtune=
  0000000140013F80: 67 65 6E 65 72 69 63 20 2D 6D 61 72 63 68 3D 6E  generic -march=n
  0000000140013F90: 6F 63 6F 6E 61 20 2D 67 20 2D 4F 32 20 2D 73 74  ocona -g -O2 -st
  0000000140013FA0: 64 3D 67 6E 75 39 39 00 0C F1 0C 00 00 D8 0C 00  d=gnu99.......
  0000000140013FB0: 00 F0 1C 00 40 01 00 00 00 BD 01 00 00 00 00 00  ...@..........
  0000000140013FC0: 00 04 10 00 00 04 01 06 63 68 61 72 00 04 08 07  ........char....
  0000000140013FD0: 6C 6F 6E 67 20 6C 6F 6E 67 20 75 6E 73 69 67 6E  long long unsign
  0000000140013FE0: 65 64 20 69 6E 74 00 04 08 05 6C 6F 6E 67 20 6C  ed int....long l
  0000000140013FF0: 6F 6E 67 20 69 6E 74 00 04 02 07 73 68 6F 72 74  ong int....short
  0000000140014000: 20 75 6E 73 69 67 6E 65 64 20 69 6E 74 00 04 04   unsigned int...
  0000000140014010: 05 69 6E 74 00 04 04 05 6C 6F 6E 67 20 69 6E 74  .int....long int
  0000000140014020: 00 04 04 07 75 6E 73 69 67 6E 65 64 20 69 6E 74  ....unsigned int
  0000000140014030: 00 04 04 07 6C 6F 6E 67 20 75 6E 73 69 67 6E 65  ....long unsigne
  0000000140014040: 64 20 69 6E 74 00 04 01 08 75 6E 73 69 67 6E 65  d int....unsigne
  0000000140014050: 64 20 63 68 61 72 00 0B 0E 01 00 00 1A 19 01 00  d char..........
  0000000140014060: 00 0E C0 00 00 00 00 0B 1E 01 00 00 12 5F 45 58  ............_EX
  0000000140014070: 43 45 50 54 49 4F 4E 5F 52 45 43 4F 52 44 00 98  CEPTION_RECORD..
  0000000140014080: 81 0B C7 01 00 00 01 45 78 63 65 70 74 69 6F 6E  ......Exception
  0000000140014090: 43 6F 64 65 00 82 0B 0D D6 04 00 00 00 01 45 78  Code.........Ex
  00000001400140A0: 63 65 70 74 69 6F 6E 46 6C 61 67 73 00 83 0B 0D  ceptionFlags....
  00000001400140B0: D6 04 00 00 04 13 5F 02 00 00 84 0B 21 19 01 00  ....._.....!...
  00000001400140C0: 00 08 01 45 78 63 65 70 74 69 6F 6E 41 64 64 72  ...ExceptionAddr
  00000001400140D0: 65 73 73 00 85 0B 0D 2B 05 00 00 10 01 4E 75 6D  ess....+.....Num
  00000001400140E0: 62 65 72 50 61 72 61 6D 65 74 65 72 73 00 86 0B  berParameters...
  00000001400140F0: 0D D6 04 00 00 18 01 45 78 63 65 70 74 69 6F 6E  ......Exception
  0000000140014100: 49 6E 66 6F 72 6D 61 74 69 6F 6E 00 87 0B 11 FC  Information....
  0000000140014110: 08 00 00 20 00 1B 08 0B CE 01 00 00 14 5F 43 4F  ... ........_CO
  0000000140014120: 4E 54 45 58 54 00 D0 04 36 07 25 BC 04 00 00 01  NTEXT..6.%....
  0000000140014130: 50 31 48 6F 6D 65 00 37 07 0D 1B 05 00 00 00 01  P1Home.7........
  0000000140014140: 50 32 48 6F 6D 65 00 38 07 0D 1B 05 00 00 08 01  P2Home.8........
  0000000140014150: 50 33 48 6F 6D 65 00 39 07 0D 1B 05 00 00 10 01  P3Home.9........
  0000000140014160: 50 34 48 6F 6D 65 00 3A 07 0D 1B 05 00 00 18 01  P4Home.:........
  0000000140014170: 50 35 48 6F 6D 65 00 3B 07 0D 1B 05 00 00 20 01  P5Home.;...... .
  0000000140014180: 50 36 48 6F 6D 65 00 3C 07 0D 1B 05 00 00 28 01  P6Home.<......(.
  0000000140014190: 43 6F 6E 74 65 78 74 46 6C 61 67 73 00 3D 07 0B  ContextFlags.=..
  00000001400141A0: D6 04 00 00 30 01 4D 78 43 73 72 00 3E 07 0B D6  ...0.MxCsr.>..
  00000001400141B0: 04 00 00 34 01 53 65 67 43 73 00 3F 07 0A C9 04  ...4.SegCs.?...
  00000001400141C0: 00 00 38 01 53 65 67 44 73 00 40 07 0A C9 04 00  ..8.SegDs.@....
  00000001400141D0: 00 3A 01 53 65 67 45 73 00 41 07 0A C9 04 00 00  .:.SegEs.A.....
  00000001400141E0: 3C 01 53 65 67 46 73 00 42 07 0A C9 04 00 00 3E  <.SegFs.B.....>
  00000001400141F0: 01 53 65 67 47 73 00 43 07 0A C9 04 00 00 40 01  .SegGs.C.....@.
  0000000140014200: 53 65 67 53 73 00 44 07 0A C9 04 00 00 42 01 45  SegSs.D.....B.E
  0000000140014210: 46 6C 61 67 73 00 45 07 0B D6 04 00 00 44 01 44  Flags.E.....D.D
  0000000140014220: 72 30 00 46 07 0D 1B 05 00 00 48 01 44 72 31 00  r0.F......H.Dr1.
  0000000140014230: 47 07 0D 1B 05 00 00 50 01 44 72 32 00 48 07 0D  G......P.Dr2.H..
  0000000140014240: 1B 05 00 00 58 01 44 72 33 00 49 07 0D 1B 05 00  ....X.Dr3.I.....
  0000000140014250: 00 60 01 44 72 36 00 4A 07 0D 1B 05 00 00 68 01  .`.Dr6.J......h.
  0000000140014260: 44 72 37 00 4B 07 0D 1B 05 00 00 70 01 52 61 78  Dr7.K......p.Rax
  0000000140014270: 00 4C 07 0D 1B 05 00 00 78 01 52 63 78 00 4D 07  .L......x.Rcx.M.
  0000000140014280: 0D 1B 05 00 00 80 01 52 64 78 00 4E 07 0D 1B 05  .......Rdx.N....
  0000000140014290: 00 00 88 01 52 62 78 00 4F 07 0D 1B 05 00 00 90  ....Rbx.O.......
  00000001400142A0: 01 52 73 70 00 50 07 0D 1B 05 00 00 98 01 52 62  .Rsp.P........Rb
  00000001400142B0: 70 00 51 07 0D 1B 05 00 00 A0 01 52 73 69 00 52  p.Q........Rsi.R
  00000001400142C0: 07 0D 1B 05 00 00 A8 01 52 64 69 00 53 07 0D 1B  .......Rdi.S...
  00000001400142D0: 05 00 00 B0 01 52 38 00 54 07 0D 1B 05 00 00 B8  ....R8.T......
  00000001400142E0: 01 52 39 00 55 07 0D 1B 05 00 00 C0 01 52 31 30  .R9.U.......R10
  00000001400142F0: 00 56 07 0D 1B 05 00 00 C8 01 52 31 31 00 57 07  .V.......R11.W.
  0000000140014300: 0D 1B 05 00 00 D0 01 52 31 32 00 58 07 0D 1B 05  ......R12.X....
  0000000140014310: 00 00 D8 01 52 31 33 00 59 07 0D 1B 05 00 00 E0  ...R13.Y......
  0000000140014320: 01 52 31 34 00 5A 07 0D 1B 05 00 00 E8 01 52 31  .R14.Z.......R1
  0000000140014330: 35 00 5B 07 0D 1B 05 00 00 F0 01 52 69 70 00 5C  5.[.......Rip.\
  0000000140014340: 07 0D 1B 05 00 00 F8 1C A8 08 00 00 10 00 01 05  ..............
  0000000140014350: 56 65 63 74 6F 72 52 65 67 69 73 74 65 72 00 75  VectorRegister.u
  0000000140014360: 07 0B DB 08 00 00 00 03 0C 56 65 63 74 6F 72 43  ........VectorC
  0000000140014370: 6F 6E 74 72 6F 6C 00 76 07 0D 1B 05 00 00 A0 04  ontrol.v........
  0000000140014380: 0C 44 65 62 75 67 43 6F 6E 74 72 6F 6C 00 77 07  .DebugControl.w.
  0000000140014390: 0D 1B 05 00 00 A8 04 0C 4C 61 73 74 42 72 61 6E  .......LastBran
  00000001400143A0: 63 68 54 6F 52 69 70 00 78 07 0D 1B 05 00 00 B0  chToRip.x......
  00000001400143B0: 04 0C 4C 61 73 74 42 72 61 6E 63 68 46 72 6F 6D  ..LastBranchFrom
  00000001400143C0: 52 69 70 00 79 07 0D 1B 05 00 00 B8 04 0C 4C 61  Rip.y........La
  00000001400143D0: 73 74 45 78 63 65 70 74 69 6F 6E 54 6F 52 69 70  stExceptionToRip
  00000001400143E0: 00 7A 07 0D 1B 05 00 00 C0 04 0C 4C 61 73 74 45  .z........LastE
  00000001400143F0: 78 63 65 70 74 69 6F 6E 46 72 6F 6D 52 69 70 00  xceptionFromRip.
  0000000140014400: 7B 07 0D 1B 05 00 00 C8 04 00 07 42 59 54 45 00  {.........BYTE.
  0000000140014410: 03 8B 19 F8 00 00 00 07 57 4F 52 44 00 03 8C 1A  .......WORD....
  0000000140014420: AA 00 00 00 07 44 57 4F 52 44 00 03 8D 1D E3 00  ....DWORD.....
  0000000140014430: 00 00 04 04 04 66 6C 6F 61 74 00 04 01 06 73 69  .....float....si
  0000000140014440: 67 6E 65 64 20 63 68 61 72 00 04 02 05 73 68 6F  gned char....sho
  0000000140014450: 72 74 20 69 6E 74 00 07 55 4C 4F 4E 47 5F 50 54  rt int..ULONG_PT
  0000000140014460: 52 00 04 31 2E 7F 00 00 00 07 44 57 4F 52 44 36  R..1......DWORD6
  0000000140014470: 34 00 04 C2 2E 7F 00 00 00 08 50 56 4F 49 44 00  4........PVOID.
  0000000140014480: 12 01 11 C7 01 00 00 08 4C 4F 4E 47 00 30 01 14  .......LONG.0..
  0000000140014490: C7 00 00 00 08 4C 4F 4E 47 4C 4F 4E 47 00 07 02  ....LONGLONG...
  00000001400144A0: 25 99 00 00 00 08 55 4C 4F 4E 47 4C 4F 4E 47 00  %.....ULONGLONG.
  00000001400144B0: 08 02 2E 7F 00 00 00 1D 5F 4D 31 32 38 41 00 10  ........_M128A..
  00000001400144C0: 10 02 D8 05 28 97 05 00 00 01 4C 6F 77 00 D9 05  ...(.....Low..
  00000001400144D0: 11 57 05 00 00 00 01 48 69 67 68 00 DA 05 10 46  .W.....High...F
  00000001400144E0: 05 00 00 08 00 15 4D 31 32 38 41 00 DB 05 07 69  ......M128A...i
  00000001400144F0: 05 00 00 0F 97 05 00 00 B5 05 00 00 0D 7F 00 00  ...............
  0000000140014500: 00 07 00 0F 97 05 00 00 C5 05 00 00 0D 7F 00 00  ...............
  0000000140014510: 00 0F 00 16 BC 04 00 00 D5 05 00 00 0D 7F 00 00  ..............
  0000000140014520: 00 5F 00 04 08 04 64 6F 75 62 6C 65 00 04 10 04  ._....double....
  0000000140014530: 6C 6F 6E 67 20 64 6F 75 62 6C 65 00 04 02 04 5F  long double...._
  0000000140014540: 46 6C 6F 61 74 31 36 00 04 02 04 5F 5F 62 66 31  Float16....__bf1
  0000000140014550: 36 00 14 5F 58 4D 4D 5F 53 41 56 45 5F 41 52 45  6.._XMM_SAVE_ARE
  0000000140014560: 41 33 32 00 00 02 21 07 12 63 07 00 00 01 43 6F  A32...!..c....Co
  0000000140014570: 6E 74 72 6F 6C 57 6F 72 64 00 22 07 0A C9 04 00  ntrolWord."....
  0000000140014580: 00 00 01 53 74 61 74 75 73 57 6F 72 64 00 23 07  ...StatusWord.#.
  0000000140014590: 0A C9 04 00 00 02 01 54 61 67 57 6F 72 64 00 24  ......TagWord.$
  00000001400145A0: 07 0A BC 04 00 00 04 01 52 65 73 65 72 76 65 64  .......Reserved
  00000001400145B0: 31 00 25 07 0A BC 04 00 00 05 01 45 72 72 6F 72  1.%.......Error
  00000001400145C0: 4F 70 63 6F 64 65 00 26 07 0A C9 04 00 00 06 01  Opcode.&.......
  00000001400145D0: 45 72 72 6F 72 4F 66 66 73 65 74 00 27 07 0B D6  ErrorOffset.'..
  00000001400145E0: 04 00 00 08 01 45 72 72 6F 72 53 65 6C 65 63 74  .....ErrorSelect
  00000001400145F0: 6F 72 00 28 07 0A C9 04 00 00 0C 01 52 65 73 65  or.(.......Rese
  0000000140014600: 72 76 65 64 32 00 29 07 0A C9 04 00 00 0E 01 44  rved2.).......D
  0000000140014610: 61 74 61 4F 66 66 73 65 74 00 2A 07 0B D6 04 00  ataOffset.*....
  0000000140014620: 00 10 01 44 61 74 61 53 65 6C 65 63 74 6F 72 00  ...DataSelector.
  0000000140014630: 2B 07 0A C9 04 00 00 14 01 52 65 73 65 72 76 65  +.......Reserve
  0000000140014640: 64 33 00 2C 07 0A C9 04 00 00 16 01 4D 78 43 73  d3.,.......MxCs
  0000000140014650: 72 00 2D 07 0B D6 04 00 00 18 01 4D 78 43 73 72  r.-.......MxCsr
  0000000140014660: 5F 4D 61 73 6B 00 2E 07 0B D6 04 00 00 1C 06 46  _Mask.........F
  0000000140014670: 6C 6F 61 74 52 65 67 69 73 74 65 72 73 00 2F 07  loatRegisters./.
  0000000140014680: 0B A5 05 00 00 20 06 58 6D 6D 52 65 67 69 73 74  .... .XmmRegist
  0000000140014690: 65 72 73 00 30 07 0B B5 05 00 00 A0 0C 52 65 73  ers.0.......Res
  00000001400146A0: 65 72 76 65 64 34 00 31 07 0A C5 05 00 00 A0 01  erved4.1.......
  00000001400146B0: 00 15 58 4D 4D 5F 53 41 56 45 5F 41 52 45 41 33  ..XMM_SAVE_AREA3
  00000001400146C0: 32 00 32 07 05 04 06 00 00 1E A0 01 10 02 60 07  2.2...........`.
  00000001400146D0: 16 98 08 00 00 06 48 65 61 64 65 72 00 61 07 08  ......Header.a..
  00000001400146E0: 98 08 00 00 00 06 4C 65 67 61 63 79 00 62 07 08  ......Legacy.b..
  00000001400146F0: A5 05 00 00 20 06 58 6D 6D 30 00 63 07 08 97 05  ... .Xmm0.c....
  0000000140014700: 00 00 A0 06 58 6D 6D 31 00 64 07 08 97 05 00 00  ....Xmm1.d......
  0000000140014710: B0 06 58 6D 6D 32 00 65 07 08 97 05 00 00 C0 06  .Xmm2.e.......
  0000000140014720: 58 6D 6D 33 00 66 07 08 97 05 00 00 D0 06 58 6D  Xmm3.f.......Xm
  0000000140014730: 6D 34 00 67 07 08 97 05 00 00 E0 06 58 6D 6D 35  m4.g.......Xmm5
  0000000140014740: 00 68 07 08 97 05 00 00 F0 05 58 6D 6D 36 00 69  .h.......Xmm6.i
  0000000140014750: 07 08 97 05 00 00 00 01 05 58 6D 6D 37 00 6A 07  .........Xmm7.j.
  0000000140014760: 08 97 05 00 00 10 01 05 58 6D 6D 38 00 6B 07 08  ........Xmm8.k..
  0000000140014770: 97 05 00 00 20 01 05 58 6D 6D 39 00 6C 07 08 97  .... ..Xmm9.l...
  0000000140014780: 05 00 00 30 01 05 58 6D 6D 31 30 00 6D 07 08 97  ...0..Xmm10.m...
  0000000140014790: 05 00 00 40 01 05 58 6D 6D 31 31 00 6E 07 08 97  ...@..Xmm11.n...
  00000001400147A0: 05 00 00 50 01 05 58 6D 6D 31 32 00 6F 07 08 97  ...P..Xmm12.o...
  00000001400147B0: 05 00 00 60 01 05 58 6D 6D 31 33 00 70 07 08 97  ...`..Xmm13.p...
  00000001400147C0: 05 00 00 70 01 05 58 6D 6D 31 34 00 71 07 08 97  ...p..Xmm14.q...
  00000001400147D0: 05 00 00 80 01 05 58 6D 6D 31 35 00 72 07 08 97  ......Xmm15.r...
  00000001400147E0: 05 00 00 90 01 00 0F 97 05 00 00 A8 08 00 00 0D  ...............
  00000001400147F0: 7F 00 00 00 01 00 1F 00 02 10 02 5D 07 14 DB 08  ...........]...
  0000000140014800: 00 00 17 46 6C 74 53 61 76 65 00 5E 07 63 07 00  ...FltSave.^.c..
  0000000140014810: 00 17 46 6C 6F 61 74 53 61 76 65 00 5F 07 63 07  ..FloatSave._.c.
  0000000140014820: 00 00 20 7B 07 00 00 10 00 0F 97 05 00 00 EB 08  .. {...........
  0000000140014830: 00 00 0D 7F 00 00 00 19 00 08 50 43 4F 4E 54 45  ..........PCONTE
  0000000140014840: 58 54 00 7C 07 0E C9 01 00 00 16 09 05 00 00 0C  XT.|...........
  0000000140014850: 09 00 00 0D 7F 00 00 00 0E 00 08 45 58 43 45 50  ...........EXCEP
  0000000140014860: 54 49 4F 4E 5F 52 45 43 4F 52 44 00 88 0B 07 1E  TION_RECORD.....
  0000000140014870: 01 00 00 08 50 45 58 43 45 50 54 49 4F 4E 5F 52  ....PEXCEPTION_R
  0000000140014880: 45 43 4F 52 44 00 8A 0B 1F 3F 09 00 00 0B 0C 09  ECORD....?......
  0000000140014890: 00 00 12 5F 45 58 43 45 50 54 49 4F 4E 5F 50 4F  ..._EXCEPTION_PO
  00000001400148A0: 49 4E 54 45 52 53 00 10 9F 0B 85 09 00 00 13 5F  INTERS........._
  00000001400148B0: 02 00 00 A0 0B 19 25 09 00 00 00 01 43 6F 6E 74  ......%.....Cont
  00000001400148C0: 65 78 74 52 65 63 6F 72 64 00 A1 0B 10 EB 08 00  extRecord.....
  00000001400148D0: 00 08 00 08 45 58 43 45 50 54 49 4F 4E 5F 50 4F  ....EXCEPTION_PO
  00000001400148E0: 49 4E 54 45 52 53 00 A2 0B 07 44 09 00 00 0B 44  INTERS...D....D
  00000001400148F0: 09 00 00 18 4A 4F 42 5F 4F 42 4A 45 43 54 5F 4E  ....JOB_OBJECT_N
  0000000140014900: 45 54 5F 52 41 54 45 5F 43 4F 4E 54 52 4F 4C 5F  ET_RATE_CONTROL_
  0000000140014910: 46 4C 41 47 53 00 D3 00 00 00 02 C5 13 12 77 0A  FLAGS.......w.
  0000000140014920: 00 00 02 4A 4F 42 5F 4F 42 4A 45 43 54 5F 4E 45  ...JOB_OBJECT_NE
  0000000140014930: 54 5F 52 41 54 45 5F 43 4F 4E 54 52 4F 4C 5F 45  T_RATE_CONTROL_E
  0000000140014940: 4E 41 42 4C 45 00 01 02 4A 4F 42 5F 4F 42 4A 45  NABLE...JOB_OBJE
  0000000140014950: 43 54 5F 4E 45 54 5F 52 41 54 45 5F 43 4F 4E 54  CT_NET_RATE_CONT
  0000000140014960: 52 4F 4C 5F 4D 41 58 5F 42 41 4E 44 57 49 44 54  ROL_MAX_BANDWIDT
  0000000140014970: 48 00 02 02 4A 4F 42 5F 4F 42 4A 45 43 54 5F 4E  H...JOB_OBJECT_N
  0000000140014980: 45 54 5F 52 41 54 45 5F 43 4F 4E 54 52 4F 4C 5F  ET_RATE_CONTROL_
  0000000140014990: 44 53 43 50 5F 54 41 47 00 04 02 4A 4F 42 5F 4F  DSCP_TAG...JOB_O
  00000001400149A0: 42 4A 45 43 54 5F 4E 45 54 5F 52 41 54 45 5F 43  BJECT_NET_RATE_C
  00000001400149B0: 4F 4E 54 52 4F 4C 5F 56 41 4C 49 44 5F 46 4C 41  ONTROL_VALID_FLA
  00000001400149C0: 47 53 00 07 00 0B 7C 0A 00 00 21 39 05 00 00 8B  GS....|...!9....
  00000001400149D0: 0A 00 00 0E A0 09 00 00 00 07 50 54 4F 50 5F 4C  ..........PTOP_L
  00000001400149E0: 45 56 45 4C 5F 45 58 43 45 50 54 49 4F 4E 5F 46  EVEL_EXCEPTION_F
  00000001400149F0: 49 4C 54 45 52 00 05 11 17 77 0A 00 00 07 4C 50  ILTER....w....LP
  0000000140014A00: 54 4F 50 5F 4C 45 56 45 4C 5F 45 58 43 45 50 54  TOP_LEVEL_EXCEPT
  0000000140014A10: 49 4F 4E 5F 46 49 4C 54 45 52 00 05 12 25 8B 0A  ION_FILTER...%..
  0000000140014A20: 00 00 22 74 61 67 43 4F 49 4E 49 54 42 41 53 45  .."tagCOINITBASE
  0000000140014A30: 00 07 04 D3 00 00 00 06 95 0E 0C 0B 00 00 02 43  ..............C
  0000000140014A40: 4F 49 4E 49 54 42 41 53 45 5F 4D 55 4C 54 49 54  OINITBASE_MULTIT
  0000000140014A50: 48 52 45 41 44 45 44 00 00 00 18 56 41 52 45 4E  HREADED....VAREN
  0000000140014A60: 55 4D 00 D3 00 00 00 07 01 02 06 96 0D 00 00 02  UM.............
  0000000140014A70: 56 54 5F 45 4D 50 54 59 00 00 02 56 54 5F 4E 55  VT_EMPTY...VT_NU
  0000000140014A80: 4C 4C 00 01 02 56 54 5F 49 32 00 02 02 56 54 5F  LL...VT_I2...VT_
  0000000140014A90: 49 34 00 03 02 56 54 5F 52 34 00 04 02 56 54 5F  I4...VT_R4...VT_
  0000000140014AA0: 52 38 00 05 02 56 54 5F 43 59 00 06 02 56 54 5F  R8...VT_CY...VT_
  0000000140014AB0: 44 41 54 45 00 07 02 56 54 5F 42 53 54 52 00 08  DATE...VT_BSTR..
  0000000140014AC0: 02 56 54 5F 44 49 53 50 41 54 43 48 00 09 02 56  .VT_DISPATCH...V
  0000000140014AD0: 54 5F 45 52 52 4F 52 00 0A 02 56 54 5F 42 4F 4F  T_ERROR...VT_BOO
  0000000140014AE0: 4C 00 0B 02 56 54 5F 56 41 52 49 41 4E 54 00 0C  L...VT_VARIANT..
  0000000140014AF0: 02 56 54 5F 55 4E 4B 4E 4F 57 4E 00 0D 02 56 54  .VT_UNKNOWN...VT
  0000000140014B00: 5F 44 45 43 49 4D 41 4C 00 0E 02 56 54 5F 49 31  _DECIMAL...VT_I1
  0000000140014B10: 00 10 02 56 54 5F 55 49 31 00 11 02 56 54 5F 55  ...VT_UI1...VT_U
  0000000140014B20: 49 32 00 12 02 56 54 5F 55 49 34 00 13 02 56 54  I2...VT_UI4...VT
  0000000140014B30: 5F 49 38 00 14 02 56 54 5F 55 49 38 00 15 02 56  _I8...VT_UI8...V
  0000000140014B40: 54 5F 49 4E 54 00 16 02 56 54 5F 55 49 4E 54 00  T_INT...VT_UINT.
  0000000140014B50: 17 02 56 54 5F 56 4F 49 44 00 18 02 56 54 5F 48  ..VT_VOID...VT_H
  0000000140014B60: 52 45 53 55 4C 54 00 19 02 56 54 5F 50 54 52 00  RESULT...VT_PTR.
  0000000140014B70: 1A 02 56 54 5F 53 41 46 45 41 52 52 41 59 00 1B  ..VT_SAFEARRAY..
  0000000140014B80: 02 56 54 5F 43 41 52 52 41 59 00 1C 02 56 54 5F  .VT_CARRAY...VT_
  0000000140014B90: 55 53 45 52 44 45 46 49 4E 45 44 00 1D 02 56 54  USERDEFINED...VT
  0000000140014BA0: 5F 4C 50 53 54 52 00 1E 02 56 54 5F 4C 50 57 53  _LPSTR...VT_LPWS
  0000000140014BB0: 54 52 00 1F 02 56 54 5F 52 45 43 4F 52 44 00 24  TR...VT_RECORD.$
  0000000140014BC0: 02 56 54 5F 49 4E 54 5F 50 54 52 00 25 02 56 54  .VT_INT_PTR.%.VT
  0000000140014BD0: 5F 55 49 4E 54 5F 50 54 52 00 26 02 56 54 5F 46  _UINT_PTR.&.VT_F
  0000000140014BE0: 49 4C 45 54 49 4D 45 00 40 02 56 54 5F 42 4C 4F  ILETIME.@.VT_BLO
  0000000140014BF0: 42 00 41 02 56 54 5F 53 54 52 45 41 4D 00 42 02  B.A.VT_STREAM.B.
  0000000140014C00: 56 54 5F 53 54 4F 52 41 47 45 00 43 02 56 54 5F  VT_STORAGE.C.VT_
  0000000140014C10: 53 54 52 45 41 4D 45 44 5F 4F 42 4A 45 43 54 00  STREAMED_OBJECT.
  0000000140014C20: 44 02 56 54 5F 53 54 4F 52 45 44 5F 4F 42 4A 45  D.VT_STORED_OBJE
  0000000140014C30: 43 54 00 45 02 56 54 5F 42 4C 4F 42 5F 4F 42 4A  CT.E.VT_BLOB_OBJ
  0000000140014C40: 45 43 54 00 46 02 56 54 5F 43 46 00 47 02 56 54  ECT.F.VT_CF.G.VT
  0000000140014C50: 5F 43 4C 53 49 44 00 48 02 56 54 5F 56 45 52 53  _CLSID.H.VT_VERS
  0000000140014C60: 49 4F 4E 45 44 5F 53 54 52 45 41 4D 00 49 09 56  IONED_STREAM.I.V
  0000000140014C70: 54 5F 42 53 54 52 5F 42 4C 4F 42 00 FF 0F 09 56  T_BSTR_BLOB...V
  0000000140014C80: 54 5F 56 45 43 54 4F 52 00 00 10 09 56 54 5F 41  T_VECTOR....VT_A
  0000000140014C90: 52 52 41 59 00 00 20 09 56 54 5F 42 59 52 45 46  RRAY.. .VT_BYREF
  0000000140014CA0: 00 00 40 09 56 54 5F 52 45 53 45 52 56 45 44 00  ..@.VT_RESERVED.
  0000000140014CB0: 00 80 09 56 54 5F 49 4C 4C 45 47 41 4C 00 FF FF  ...VT_ILLEGAL.
  0000000140014CC0: 09 56 54 5F 49 4C 4C 45 47 41 4C 4D 41 53 4B 45  .VT_ILLEGALMASKE
  0000000140014CD0: 44 00 FF 0F 09 56 54 5F 54 59 50 45 4D 41 53 4B  D...VT_TYPEMASK
  0000000140014CE0: 00 FF 0F 00 07 5F 5F 70 5F 73 69 67 5F 66 6E 5F  ....__p_sig_fn_
  0000000140014CF0: 74 00 08 30 12 09 01 00 00 23 5F 5F 6D 69 6E 67  t..0.....#__ming
  0000000140014D00: 77 5F 6F 6C 64 65 78 63 70 74 5F 68 61 6E 64 6C  w_oldexcpt_handl
  0000000140014D10: 65 72 00 01 AC 1E AF 0A 00 00 09 03 D0 70 00 40  er........p.@
  0000000140014D20: 01 00 00 00 24 5F 66 70 72 65 73 65 74 00 01 1F  ....$_fpreset...
  0000000140014D30: 0D 25 73 69 67 6E 61 6C 00 08 3C 18 96 0D 00 00  .%signal..<.....
  0000000140014D40: 01 0E 00 00 0E C0 00 00 00 0E 96 0D 00 00 00 26  ..............&
  0000000140014D50: 5F 67 6E 75 5F 65 78 63 65 70 74 69 6F 6E 5F 68  _gnu_exception_h
  0000000140014D60: 61 6E 64 6C 65 72 00 01 B4 01 C7 00 00 00 F0 1C  andler.......
  0000000140014D70: 00 40 01 00 00 00 BD 01 00 00 00 00 00 00 01 9C  .@.............
  0000000140014D80: DB 0F 00 00 27 65 78 63 65 70 74 69 6F 6E 5F 64  ...'exception_d
  0000000140014D90: 61 74 61 00 01 B4 2D DB 0F 00 00 C9 09 00 00 B7  ata..-......
  0000000140014DA0: 09 00 00 10 6F 6C 64 5F 68 61 6E 64 6C 65 72 00  ....old_handler.
  0000000140014DB0: B6 0A 09 01 00 00 1F 0A 00 00 0F 0A 00 00 10 61  ..............a
  0000000140014DC0: 63 74 69 6F 6E 00 B7 08 C7 00 00 00 72 0A 00 00  ction.....r...
  0000000140014DD0: 56 0A 00 00 10 72 65 73 65 74 5F 66 70 75 00 B8  V....reset_fpu.
  0000000140014DE0: 07 C0 00 00 00 F4 0A 00 00 E6 0A 00 00 0A 4C 1D  ...........L.
  0000000140014DF0: 00 40 01 00 00 00 E3 0D 00 00 BB 0E 00 00 03 01  .@............
  0000000140014E00: 52 01 38 03 01 51 01 30 00 28 76 1D 00 40 01 00  R.8..Q.0.(v..@..
  0000000140014E10: 00 00 D0 0E 00 00 03 01 52 03 A3 01 52 00 0A DA  .......R..R..
  0000000140014E20: 1D 00 40 01 00 00 00 E3 0D 00 00 EC 0E 00 00 03  ..@...........
  0000000140014E30: 01 52 01 34 03 01 51 01 30 00 11 F4 1D 00 40 01  .R.4..Q.0....@.
  0000000140014E40: 00 00 00 FF 0E 00 00 03 01 52 01 34 00 0A 0C 1E  ........R.4....
  0000000140014E50: 00 40 01 00 00 00 E3 0D 00 00 1B 0F 00 00 03 01  .@.............
  0000000140014E60: 52 01 38 03 01 51 01 30 00 0A 25 1E 00 40 01 00  R.8..Q.0..%..@..
  0000000140014E70: 00 00 E3 0D 00 00 37 0F 00 00 03 01 52 01 38 03  .....7.....R.8.
  0000000140014E80: 01 51 01 31 00 0A 3C 1E 00 40 01 00 00 00 E3 0D  .Q.1..<..@.....
  0000000140014E90: 00 00 53 0F 00 00 03 01 52 01 3B 03 01 51 01 30  ..S.....R.;..Q.0
  0000000140014EA0: 00 11 52 1E 00 40 01 00 00 00 66 0F 00 00 03 01  ..R..@....f.....
  0000000140014EB0: 52 01 3B 00 11 67 1E 00 40 01 00 00 00 79 0F 00  R.;..g..@....y..
  0000000140014EC0: 00 03 01 52 01 38 00 0A 7B 1E 00 40 01 00 00 00  ...R.8..{..@....
  0000000140014ED0: E3 0D 00 00 95 0F 00 00 03 01 52 01 3B 03 01 51  .........R.;..Q
  0000000140014EE0: 01 31 00 0A 8F 1E 00 40 01 00 00 00 E3 0D 00 00  .1.....@.......
  0000000140014EF0: B1 0F 00 00 03 01 52 01 34 03 01 51 01 31 00 0A  .....R.4..Q.1..
  0000000140014F00: A3 1E 00 40 01 00 00 00 E3 0D 00 00 CD 0F 00 00  ..@..........
  0000000140014F10: 03 01 52 01 38 03 01 51 01 31 00 29 A8 1E 00 40  ..R.8..Q.1.)..@
  0000000140014F20: 01 00 00 00 D6 0D 00 00 00 0B 85 09 00 00 00 C0  ..............
  0000000140014F30: 0A 00 00 05 00 01 08 EB 13 00 00 18 47 4E 55 20  ...........GNU 
  0000000140014F40: 43 39 39 20 31 34 2E 32 2E 30 20 2D 6D 36 34 20  C99 14.2.0 -m64 
  0000000140014F50: 2D 6D 61 73 6D 3D 61 74 74 20 2D 6D 74 75 6E 65  -masm=att -mtune
  0000000140014F60: 3D 67 65 6E 65 72 69 63 20 2D 6D 61 72 63 68 3D  =generic -march=
  0000000140014F70: 6E 6F 63 6F 6E 61 20 2D 67 20 2D 4F 32 20 2D 73  nocona -g -O2 -s
  0000000140014F80: 74 64 3D 67 6E 75 39 39 00 0C EC 0D 00 00 1D 0E  td=gnu99.......
  0000000140014F90: 00 00 C0 1E 00 40 01 00 00 00 92 02 00 00 00 00  ....@..........
  0000000140014FA0: 00 00 96 11 00 00 02 01 06 63 68 61 72 00 02 08  .........char...
  0000000140014FB0: 07 6C 6F 6E 67 20 6C 6F 6E 67 20 75 6E 73 69 67  .long long unsig
  0000000140014FC0: 6E 65 64 20 69 6E 74 00 02 08 05 6C 6F 6E 67 20  ned int....long 
  0000000140014FD0: 6C 6F 6E 67 20 69 6E 74 00 02 02 07 73 68 6F 72  long int....shor
  0000000140014FE0: 74 20 75 6E 73 69 67 6E 65 64 20 69 6E 74 00 02  t unsigned int..
  0000000140014FF0: 04 05 69 6E 74 00 13 C0 00 00 00 02 04 05 6C 6F  ..int........lo
  0000000140015000: 6E 67 20 69 6E 74 00 02 04 07 75 6E 73 69 67 6E  ng int....unsign
  0000000140015010: 65 64 20 69 6E 74 00 02 04 07 6C 6F 6E 67 20 75  ed int....long u
  0000000140015020: 6E 73 69 67 6E 65 64 20 69 6E 74 00 02 01 08 75  nsigned int....u
  0000000140015030: 6E 73 69 67 6E 65 64 20 63 68 61 72 00 19 08 05  nsigned char....
  0000000140015040: 57 49 4E 42 4F 4F 4C 00 02 7F 0D C0 00 00 00 05  WINBOOL........
  0000000140015050: 57 4F 52 44 00 02 8C 1A AA 00 00 00 05 44 57 4F  WORD........DWO
  0000000140015060: 52 44 00 02 8D 1D E8 00 00 00 02 04 04 66 6C 6F  RD..........flo
  0000000140015070: 61 74 00 05 4C 50 56 4F 49 44 00 02 99 11 0E 01  at..LPVOID......
  0000000140015080: 00 00 02 01 06 73 69 67 6E 65 64 20 63 68 61 72  .....signed char
  0000000140015090: 00 02 02 05 73 68 6F 72 74 20 69 6E 74 00 05 55  ....short int..U
  00000001400150A0: 4C 4F 4E 47 5F 50 54 52 00 03 31 2E 7F 00 00 00  LONG_PTR..1.....
  00000001400150B0: 07 4C 4F 4E 47 00 30 01 14 CC 00 00 00 07 48 41  .LONG.0......HA
  00000001400150C0: 4E 44 4C 45 00 B2 01 11 0E 01 00 00 0F 5F 4C 49  NDLE........_LI
  00000001400150D0: 53 54 5F 45 4E 54 52 59 00 10 84 02 12 D1 01 00  ST_ENTRY.......
  00000001400150E0: 00 01 46 6C 69 6E 6B 00 85 02 19 D1 01 00 00 00  ..Flink........
  00000001400150F0: 01 42 6C 69 6E 6B 00 86 02 19 D1 01 00 00 08 00  .Blink.........
  0000000140015100: 08 9D 01 00 00 07 4C 49 53 54 5F 45 4E 54 52 59  ......LIST_ENTRY
  0000000140015110: 00 87 02 05 9D 01 00 00 02 08 04 64 6F 75 62 6C  ...........doubl
  0000000140015120: 65 00 02 10 04 6C 6F 6E 67 20 64 6F 75 62 6C 65  e....long double
  0000000140015130: 00 02 02 04 5F 46 6C 6F 61 74 31 36 00 02 02 04  ...._Float16....
  0000000140015140: 5F 5F 62 66 31 36 00 1A 4A 4F 42 5F 4F 42 4A 45  __bf16..JOB_OBJE
  0000000140015150: 43 54 5F 4E 45 54 5F 52 41 54 45 5F 43 4F 4E 54  CT_NET_RATE_CONT
  0000000140015160: 52 4F 4C 5F 46 4C 41 47 53 00 07 04 D8 00 00 00  ROL_FLAGS......
  0000000140015170: 04 C5 13 12 EC 02 00 00 0B 4A 4F 42 5F 4F 42 4A  .......JOB_OBJ
  0000000140015180: 45 43 54 5F 4E 45 54 5F 52 41 54 45 5F 43 4F 4E  ECT_NET_RATE_CON
  0000000140015190: 54 52 4F 4C 5F 45 4E 41 42 4C 45 00 01 0B 4A 4F  TROL_ENABLE...JO
  00000001400151A0: 42 5F 4F 42 4A 45 43 54 5F 4E 45 54 5F 52 41 54  B_OBJECT_NET_RAT
  00000001400151B0: 45 5F 43 4F 4E 54 52 4F 4C 5F 4D 41 58 5F 42 41  E_CONTROL_MAX_BA
  00000001400151C0: 4E 44 57 49 44 54 48 00 02 0B 4A 4F 42 5F 4F 42  NDWIDTH...JOB_OB
  00000001400151D0: 4A 45 43 54 5F 4E 45 54 5F 52 41 54 45 5F 43 4F  JECT_NET_RATE_CO
  00000001400151E0: 4E 54 52 4F 4C 5F 44 53 43 50 5F 54 41 47 00 04  NTROL_DSCP_TAG..
  00000001400151F0: 0B 4A 4F 42 5F 4F 42 4A 45 43 54 5F 4E 45 54 5F  .JOB_OBJECT_NET_
  0000000140015200: 52 41 54 45 5F 43 4F 4E 54 52 4F 4C 5F 56 41 4C  RATE_CONTROL_VAL
  0000000140015210: 49 44 5F 46 4C 41 47 53 00 07 00 0F 5F 52 54 4C  ID_FLAGS...._RTL
  0000000140015220: 5F 43 52 49 54 49 43 41 4C 5F 53 45 43 54 49 4F  _CRITICAL_SECTIO
  0000000140015230: 4E 5F 44 45 42 55 47 00 30 A0 24 14 E4 03 00 00  N_DEBUG.0.$....
  0000000140015240: 01 54 79 70 65 00 A1 24 0C 20 01 00 00 00 01 43  .Type.$. .....C
  0000000140015250: 72 65 61 74 6F 72 42 61 63 6B 54 72 61 63 65 49  reatorBackTraceI
  0000000140015260: 6E 64 65 78 00 A2 24 0C 20 01 00 00 02 01 43 72  ndex.$. .....Cr
  0000000140015270: 69 74 69 63 61 6C 53 65 63 74 69 6F 6E 00 A3 24  iticalSection.$
  0000000140015280: 25 82 04 00 00 08 01 50 72 6F 63 65 73 73 4C 6F  %......ProcessLo
  0000000140015290: 63 6B 73 4C 69 73 74 00 A4 24 12 D6 01 00 00 10  cksList.$.....
  00000001400152A0: 01 45 6E 74 72 79 43 6F 75 6E 74 00 A5 24 0D 2D  .EntryCount.$.-
  00000001400152B0: 01 00 00 20 01 43 6F 6E 74 65 6E 74 69 6F 6E 43  ... .ContentionC
  00000001400152C0: 6F 75 6E 74 00 A6 24 0D 2D 01 00 00 24 01 46 6C  ount.$.-...$.Fl
  00000001400152D0: 61 67 73 00 A7 24 0D 2D 01 00 00 28 01 43 72 65  ags.$.-...(.Cre
  00000001400152E0: 61 74 6F 72 42 61 63 6B 54 72 61 63 65 49 6E 64  atorBackTraceInd
  00000001400152F0: 65 78 48 69 67 68 00 A8 24 0C 20 01 00 00 2C 01  exHigh.$. ...,.
  0000000140015300: 53 70 61 72 65 57 4F 52 44 00 A9 24 0C 20 01 00  SpareWORD.$. ..
  0000000140015310: 00 2E 00 0F 5F 52 54 4C 5F 43 52 49 54 49 43 41  ...._RTL_CRITICA
  0000000140015320: 4C 5F 53 45 43 54 49 4F 4E 00 28 BB 24 14 82 04  L_SECTION.($...
  0000000140015330: 00 00 01 44 65 62 75 67 49 6E 66 6F 00 BC 24 23  ...DebugInfo.$#
  0000000140015340: 87 04 00 00 00 01 4C 6F 63 6B 43 6F 75 6E 74 00  ......LockCount.
  0000000140015350: BD 24 0C 81 01 00 00 08 01 52 65 63 75 72 73 69  $.......Recursi
  0000000140015360: 6F 6E 43 6F 75 6E 74 00 BE 24 0C 81 01 00 00 0C  onCount.$......
  0000000140015370: 01 4F 77 6E 69 6E 67 54 68 72 65 61 64 00 BF 24  .OwningThread.$
  0000000140015380: 0E 8E 01 00 00 10 01 4C 6F 63 6B 53 65 6D 61 70  .......LockSemap
  0000000140015390: 68 6F 72 65 00 C0 24 0E 8E 01 00 00 18 01 53 70  hore.$.......Sp
  00000001400153A0: 69 6E 43 6F 75 6E 74 00 C1 24 11 6F 01 00 00 20  inCount.$.o... 
  00000001400153B0: 00 08 E4 03 00 00 07 50 52 54 4C 5F 43 52 49 54  ......PRTL_CRIT
  00000001400153C0: 49 43 41 4C 5F 53 45 43 54 49 4F 4E 5F 44 45 42  ICAL_SECTION_DEB
  00000001400153D0: 55 47 00 AA 24 23 AB 04 00 00 08 EC 02 00 00 07  UG.$#........
  00000001400153E0: 52 54 4C 5F 43 52 49 54 49 43 41 4C 5F 53 45 43  RTL_CRITICAL_SEC
  00000001400153F0: 54 49 4F 4E 00 C2 24 07 E4 03 00 00 07 50 52 54  TION.$.....PRT
  0000000140015400: 4C 5F 43 52 49 54 49 43 41 4C 5F 53 45 43 54 49  L_CRITICAL_SECTI
  0000000140015410: 4F 4E 00 C2 24 1D 82 04 00 00 05 43 52 49 54 49  ON.$......CRITI
  0000000140015420: 43 41 4C 5F 53 45 43 54 49 4F 4E 00 05 BB 20 B0  CAL_SECTION.. 
  0000000140015430: 04 00 00 05 4C 50 43 52 49 54 49 43 41 4C 5F 53  ....LPCRITICAL_S
  0000000140015440: 45 43 54 49 4F 4E 00 05 BD 21 CD 04 00 00 08 24  ECTION..!....$
  0000000140015450: 05 00 00 1B 2F 05 00 00 04 0E 01 00 00 00 10 5F  ..../.........._
  0000000140015460: 5F 6D 69 6E 67 77 74 68 72 5F 63 73 00 1A 19 EB  _mingwthr_cs...
  0000000140015470: 04 00 00 09 03 00 71 00 40 01 00 00 00 10 5F 5F  ......q.@.....__
  0000000140015480: 6D 69 6E 67 77 74 68 72 5F 63 73 5F 69 6E 69 74  mingwthr_cs_init
  0000000140015490: 00 1B 15 C7 00 00 00 09 03 E8 70 00 40 01 00 00  ........p.@...
  00000001400154A0: 00 05 5F 5F 6D 69 6E 67 77 74 68 72 5F 6B 65 79  ..__mingwthr_key
  00000001400154B0: 5F 74 00 01 1D 1F 90 05 00 00 13 72 05 00 00 1C  _t.........r....
  00000001400154C0: 5F 5F 6D 69 6E 67 77 74 68 72 5F 6B 65 79 00 18  __mingwthr_key..
  00000001400154D0: 01 20 08 CF 05 00 00 11 6B 65 79 00 21 09 2D 01  . .....key.!.-.
  00000001400154E0: 00 00 00 11 64 74 6F 72 00 22 0A 1F 05 00 00 08  ....dtor."......
  00000001400154F0: 11 6E 65 78 74 00 23 1E CF 05 00 00 10 00 08 8B  .next.#........
  0000000140015500: 05 00 00 10 6B 65 79 5F 64 74 6F 72 5F 6C 69 73  ....key_dtor_lis
  0000000140015510: 74 00 27 23 CF 05 00 00 09 03 E0 70 00 40 01 00  t.'#.....p.@..
  0000000140015520: 00 00 1D 47 65 74 4C 61 73 74 45 72 72 6F 72 00  ...GetLastError.
  0000000140015530: 09 31 1B 2D 01 00 00 14 54 6C 73 47 65 74 56 61  .1.-....TlsGetVa
  0000000140015540: 6C 75 65 00 08 43 01 1C 44 01 00 00 27 06 00 00  lue..C..D...'...
  0000000140015550: 04 2D 01 00 00 00 1E 5F 66 70 72 65 73 65 74 00  .-....._fpreset.
  0000000140015560: 01 14 25 0C 44 65 6C 65 74 65 43 72 69 74 69 63  ..%.DeleteCritic
  0000000140015570: 61 6C 53 65 63 74 69 6F 6E 00 2E 56 06 00 00 04  alSection..V....
  0000000140015580: 04 05 00 00 00 0C 49 6E 69 74 69 61 6C 69 7A 65  ......Initialize
  0000000140015590: 43 72 69 74 69 63 61 6C 53 65 63 74 69 6F 6E 00  CriticalSection.
  00000001400155A0: 70 7C 06 00 00 04 04 05 00 00 00 1F 66 72 65 65  p|..........free
  00000001400155B0: 00 07 A7 01 10 90 06 00 00 04 0E 01 00 00 00 0C  ...............
  00000001400155C0: 4C 65 61 76 65 43 72 69 74 69 63 61 6C 53 65 63  LeaveCriticalSec
  00000001400155D0: 74 69 6F 6E 00 2C B1 06 00 00 04 04 05 00 00 00  tion.,.........
  00000001400155E0: 0C 45 6E 74 65 72 43 72 69 74 69 63 61 6C 53 65  .EnterCriticalSe
  00000001400155F0: 63 74 69 6F 6E 00 2B D2 06 00 00 04 04 05 00 00  ction.+........
  0000000140015600: 00 14 63 61 6C 6C 6F 63 00 07 A6 01 11 0E 01 00  ..calloc.......
  0000000140015610: 00 F1 06 00 00 04 7F 00 00 00 04 7F 00 00 00 00  ...............
  0000000140015620: 12 5F 5F 6D 69 6E 67 77 5F 54 4C 53 63 61 6C 6C  .__mingw_TLScall
  0000000140015630: 62 61 63 6B 00 7A 10 01 00 00 50 20 00 40 01 00  back.z....P .@..
  0000000140015640: 00 00 02 01 00 00 00 00 00 00 01 9C 5F 08 00 00  ............_...
  0000000140015650: 09 68 44 6C 6C 48 61 6E 64 6C 65 00 7A 1D 8E 01  .hDllHandle.z...
  0000000140015660: 00 00 4D 0B 00 00 35 0B 00 00 09 72 65 61 73 6F  ..M...5....reaso
  0000000140015670: 6E 00 7B 0E 2D 01 00 00 CC 0B 00 00 B4 0B 00 00  n.{.-.........
  0000000140015680: 09 72 65 73 65 72 76 65 64 00 7C 0F 44 01 00 00  .reserved.|.D...
  0000000140015690: 4B 0C 00 00 33 0C 00 00 20 C5 20 00 40 01 00 00  K...3...  .@...
  00000001400156A0: 00 5B 00 00 00 00 00 00 00 CC 07 00 00 0A 6B 65  .[...........ke
  00000001400156B0: 79 70 00 89 26 CF 05 00 00 B8 0C 00 00 B2 0C 00  yp..&........
  00000001400156C0: 00 0A 74 00 89 2D CF 05 00 00 D0 0C 00 00 CE 0C  ..t..-.......
  00000001400156D0: 00 00 06 EC 20 00 40 01 00 00 00 7C 06 00 00 0D  ... .@....|....
  00000001400156E0: 13 21 00 40 01 00 00 00 34 06 00 00 03 01 52 09  .!.@....4.....R.
  00000001400156F0: 03 00 71 00 40 01 00 00 00 00 00 21 5F 08 00 00  ..q.@......!_...
  0000000140015700: 95 20 00 40 01 00 00 00 01 95 20 00 40 01 00 00  . .@...... .@...
  0000000140015710: 00 1B 00 00 00 00 00 00 00 01 99 07 04 08 00 00  ................
  0000000140015720: 15 81 08 00 00 06 A4 20 00 40 01 00 00 00 1A 0A  ...... .@......
  0000000140015730: 00 00 00 22 5F 08 00 00 B0 20 00 40 01 00 00 00  ..."_... .@....
  0000000140015740: 02 98 00 00 00 01 86 07 36 08 00 00 23 98 00 00  ........6...#...
  0000000140015750: 00 15 81 08 00 00 06 35 21 00 40 01 00 00 00 1A  .......5!.@.....
  0000000140015760: 0A 00 00 00 00 06 25 21 00 40 01 00 00 00 27 06  ......%!.@....'.
  0000000140015770: 00 00 0D 4D 21 00 40 01 00 00 00 56 06 00 00 03  ...M!.@....V....
  0000000140015780: 01 52 09 03 00 71 00 40 01 00 00 00 00 00 24 5F  .R...q.@......$_
  0000000140015790: 5F 6D 69 6E 67 77 74 68 72 5F 72 75 6E 5F 6B 65  _mingwthr_run_ke
  00000001400157A0: 79 5F 64 74 6F 72 73 00 01 63 01 01 9D 08 00 00  y_dtors..c......
  00000001400157B0: 16 6B 65 79 70 00 65 1E CF 05 00 00 25 16 76 61  .keyp.e....%.va
  00000001400157C0: 6C 75 65 00 6D 0E 44 01 00 00 00 00 12 5F 5F 5F  lue.m.D......___
  00000001400157D0: 77 36 34 5F 6D 69 6E 67 77 74 68 72 5F 72 65 6D  w64_mingwthr_rem
  00000001400157E0: 6F 76 65 5F 6B 65 79 5F 64 74 6F 72 00 41 C0 00  ove_key_dtor.A.
  00000001400157F0: 00 00 B0 1F 00 40 01 00 00 00 91 00 00 00 00 00  ....@..........
  0000000140015800: 00 00 01 9C 55 09 00 00 09 6B 65 79 00 41 28 2D  ....U....key.A(-
  0000000140015810: 01 00 00 E0 0C 00 00 D8 0C 00 00 0A 70 72 65 76  ..........prev
  0000000140015820: 5F 6B 65 79 00 43 1E CF 05 00 00 06 0D 00 00 00  _key.C.........
  0000000140015830: 0D 00 00 0A 63 75 72 5F 6B 65 79 00 44 1E CF 05  ....cur_key.D..
  0000000140015840: 00 00 25 0D 00 00 1D 0D 00 00 0E E0 1F 00 40 01  ..%..........@.
  0000000140015850: 00 00 00 B1 06 00 00 33 09 00 00 03 01 52 02 74  ......3.....R.t
  0000000140015860: 00 00 06 23 20 00 40 01 00 00 00 7C 06 00 00 0D  ...# .@....|....
  0000000140015870: 2C 20 00 40 01 00 00 00 90 06 00 00 03 01 52 02  , .@..........R.
  0000000140015880: 74 00 00 00 12 5F 5F 5F 77 36 34 5F 6D 69 6E 67  t....___w64_ming
  0000000140015890: 77 74 68 72 5F 61 64 64 5F 6B 65 79 5F 64 74 6F  wthr_add_key_dto
  00000001400158A0: 72 00 2A C0 00 00 00 40 1F 00 40 01 00 00 00 6F  r.*...@..@....o
  00000001400158B0: 00 00 00 00 00 00 00 01 9C 15 0A 00 00 09 6B 65  ..............ke
  00000001400158C0: 79 00 2A 25 2D 01 00 00 4C 0D 00 00 42 0D 00 00  y.*%-...L...B...
  00000001400158D0: 09 64 74 6F 72 00 2A 31 1F 05 00 00 81 0D 00 00  .dtor.*1........
  00000001400158E0: 73 0D 00 00 0A 6E 65 77 5F 6B 65 79 00 2C 15 15  s....new_key.,..
  00000001400158F0: 0A 00 00 C2 0D 00 00 BA 0D 00 00 0E 6F 1F 00 40  ..........o..@
  0000000140015900: 01 00 00 00 D2 06 00 00 E8 09 00 00 03 01 52 01  ............R.
  0000000140015910: 31 03 01 51 01 48 00 0E 8D 1F 00 40 01 00 00 00  1..Q.H.....@....
  0000000140015920: B1 06 00 00 00 0A 00 00 03 01 52 02 74 00 00 0D  .........R.t...
  0000000140015930: A8 1F 00 40 01 00 00 00 90 06 00 00 03 01 52 02  ..@..........R.
  0000000140015940: 74 00 00 00 08 72 05 00 00 26 5F 08 00 00 C0 1E  t....r...&_....
  0000000140015950: 00 40 01 00 00 00 78 00 00 00 00 00 00 00 01 9C  .@....x.........
  0000000140015960: 17 81 08 00 00 E1 0D 00 00 DF 0D 00 00 27 8D 08  ...........'..
  0000000140015970: 00 00 00 1F 00 40 01 00 00 00 1F 00 00 00 00 00  .....@..........
  0000000140015980: 00 00 8F 0A 00 00 17 8E 08 00 00 EB 0D 00 00 E7  ..............
  0000000140015990: 0D 00 00 06 04 1F 00 40 01 00 00 00 08 06 00 00  .......@........
  00000001400159A0: 06 09 1F 00 40 01 00 00 00 F3 05 00 00 28 1B 1F  ....@.......(..
  00000001400159B0: 00 40 01 00 00 00 03 01 52 02 74 00 00 00 0E DA  .@......R.t....
  00000001400159C0: 1E 00 40 01 00 00 00 B1 06 00 00 A7 0A 00 00 03  ..@...........
  00000001400159D0: 01 52 02 7C 00 00 29 38 1F 00 40 01 00 00 00 90  .R.|..)8..@.....
  00000001400159E0: 06 00 00 03 01 52 09 03 00 71 00 40 01 00 00 00  .....R...q.@....
  00000001400159F0: 00 00 00 85 00 00 00 05 00 01 08 4C 16 00 00 01  ...........L....
  0000000140015A00: 47 4E 55 20 43 39 39 20 31 34 2E 32 2E 30 20 2D  GNU C99 14.2.0 -
  0000000140015A10: 6D 36 34 20 2D 6D 61 73 6D 3D 61 74 74 20 2D 6D  m64 -masm=att -m
  0000000140015A20: 74 75 6E 65 3D 67 65 6E 65 72 69 63 20 2D 6D 61  tune=generic -ma
  0000000140015A30: 72 63 68 3D 6E 6F 63 6F 6E 61 20 2D 67 20 2D 4F  rch=nocona -g -O
  0000000140015A40: 32 20 2D 73 74 64 3D 67 6E 75 39 39 00 0C 23 0F  2 -std=gnu99..#.
  0000000140015A50: 00 00 0A 0F 00 00 0C 14 00 00 02 5F 43 52 54 5F  ..........._CRT_
  0000000140015A60: 4D 54 00 01 0C 05 81 00 00 00 09 03 20 30 00 40  MT.......... 0.@
  0000000140015A70: 01 00 00 00 03 04 05 69 6E 74 00 00 CC 00 00 00  .......int.....
  0000000140015A80: 05 00 01 08 7A 16 00 00 02 47 4E 55 20 43 39 39  ....z....GNU C99
  0000000140015A90: 20 31 34 2E 32 2E 30 20 2D 6D 36 34 20 2D 6D 61   14.2.0 -m64 -ma
  0000000140015AA0: 73 6D 3D 61 74 74 20 2D 6D 74 75 6E 65 3D 67 65  sm=att -mtune=ge
  0000000140015AB0: 6E 65 72 69 63 20 2D 6D 61 72 63 68 3D 6E 6F 63  neric -march=noc
  0000000140015AC0: 6F 6E 61 20 2D 67 20 2D 4F 32 20 2D 73 74 64 3D  ona -g -O2 -std=
  0000000140015AD0: 67 6E 75 39 39 00 0C A8 0F 00 00 E3 0F 00 00 46  gnu99........F
  0000000140015AE0: 14 00 00 01 5F 5F 52 55 4E 54 49 4D 45 5F 50 53  ....__RUNTIME_PS
  0000000140015AF0: 45 55 44 4F 5F 52 45 4C 4F 43 5F 4C 49 53 54 5F  EUDO_RELOC_LIST_
  0000000140015B00: 45 4E 44 5F 5F 00 07 99 00 00 00 09 03 41 71 00  END__........Aq.
  0000000140015B10: 40 01 00 00 00 03 01 06 63 68 61 72 00 01 5F 5F  @.......char..__
  0000000140015B20: 52 55 4E 54 49 4D 45 5F 50 53 45 55 44 4F 5F 52  RUNTIME_PSEUDO_R
  0000000140015B30: 45 4C 4F 43 5F 4C 49 53 54 5F 5F 00 08 99 00 00  ELOC_LIST__.....
  0000000140015B40: 00 09 03 40 71 00 40 01 00 00 00 00 D2 14 00 00  ...@q.@........
  0000000140015B50: 05 00 01 08 AA 16 00 00 1E 47 4E 55 20 43 39 39  ........GNU C99
  0000000140015B60: 20 31 34 2E 32 2E 30 20 2D 6D 36 34 20 2D 6D 61   14.2.0 -m64 -ma
  0000000140015B70: 73 6D 3D 61 74 74 20 2D 6D 74 75 6E 65 3D 67 65  sm=att -mtune=ge
  0000000140015B80: 6E 65 72 69 63 20 2D 6D 61 72 63 68 3D 6E 6F 63  neric -march=noc
  0000000140015B90: 6F 6E 61 20 2D 67 20 2D 4F 32 20 2D 73 74 64 3D  ona -g -O2 -std=
  0000000140015BA0: 67 6E 75 39 39 00 0C 7D 10 00 00 64 10 00 00 60  gnu99..}...d...`
  0000000140015BB0: 21 00 40 01 00 00 00 F6 03 00 00 00 00 00 00 80  !.@............
  0000000140015BC0: 14 00 00 05 08 07 6C 6F 6E 67 20 6C 6F 6E 67 20  ......long long 
  0000000140015BD0: 75 6E 73 69 67 6E 65 64 20 69 6E 74 00 05 01 06  unsigned int....
  0000000140015BE0: 63 68 61 72 00 1F 91 00 00 00 0A 73 69 7A 65 5F  char.......size_
  0000000140015BF0: 74 00 02 23 2C 77 00 00 00 05 08 05 6C 6F 6E 67  t..#,w......long
  0000000140015C00: 20 6C 6F 6E 67 20 69 6E 74 00 05 02 07 73 68 6F   long int....sho
  0000000140015C10: 72 74 20 75 6E 73 69 67 6E 65 64 20 69 6E 74 00  rt unsigned int.
  0000000140015C20: 05 04 05 69 6E 74 00 05 04 05 6C 6F 6E 67 20 69  ...int....long i
  0000000140015C30: 6E 74 00 05 04 07 75 6E 73 69 67 6E 65 64 20 69  nt....unsigned i
  0000000140015C40: 6E 74 00 05 04 07 6C 6F 6E 67 20 75 6E 73 69 67  nt....long unsig
  0000000140015C50: 6E 65 64 20 69 6E 74 00 05 01 08 75 6E 73 69 67  ned int....unsig
  0000000140015C60: 6E 65 64 20 63 68 61 72 00 20 08 0A 57 49 4E 42  ned char. ..WINB
  0000000140015C70: 4F 4F 4C 00 03 7F 0D D4 00 00 00 0A 42 59 54 45  OOL........BYTE
  0000000140015C80: 00 03 8B 19 0C 01 00 00 0A 57 4F 52 44 00 03 8C  .........WORD...
  0000000140015C90: 1A BE 00 00 00 0A 44 57 4F 52 44 00 03 8D 1D F7  .....DWORD....
  0000000140015CA0: 00 00 00 05 04 04 66 6C 6F 61 74 00 0A 50 42 59  ......float..PBY
  0000000140015CB0: 54 45 00 03 90 11 6E 01 00 00 0C 2F 01 00 00 0A  TE....n..../....
  0000000140015CC0: 4C 50 56 4F 49 44 00 03 99 11 1D 01 00 00 05 01  LPVOID..........
  0000000140015CD0: 06 73 69 67 6E 65 64 20 63 68 61 72 00 05 02 05  .signed char....
  0000000140015CE0: 73 68 6F 72 74 20 69 6E 74 00 0A 55 4C 4F 4E 47  short int..ULONG
  0000000140015CF0: 5F 50 54 52 00 04 31 2E 77 00 00 00 0A 44 57 4F  _PTR..1.w....DWO
  0000000140015D00: 52 44 5F 50 54 52 00 04 BF 27 9E 01 00 00 07 4C  RD_PTR..'.....L
  0000000140015D10: 4F 4E 47 00 30 01 14 DB 00 00 00 07 55 4C 4F 4E  ONG.0......ULON
  0000000140015D20: 47 4C 4F 4E 47 00 08 02 2E 77 00 00 00 05 08 04  GLONG....w......
  0000000140015D30: 64 6F 75 62 6C 65 00 05 10 04 6C 6F 6E 67 20 64  double....long d
  0000000140015D40: 6F 75 62 6C 65 00 05 02 04 5F 46 6C 6F 61 74 31  ouble...._Float1
  0000000140015D50: 36 00 05 02 04 5F 5F 62 66 31 36 00 12 2F 01 00  6....__bf16../..
  0000000140015D60: 00 20 02 00 00 13 77 00 00 00 07 00 0E 5F 49 4D  . ....w......_IM
  0000000140015D70: 41 47 45 5F 44 4F 53 5F 48 45 41 44 45 52 00 40  AGE_DOS_HEADER.@
  0000000140015D80: 7F 1C 74 03 00 00 01 65 5F 6D 61 67 69 63 00 80  ..t....e_magic..
  0000000140015D90: 1C 0C 3C 01 00 00 00 01 65 5F 63 62 6C 70 00 81  ..<.....e_cblp..
  0000000140015DA0: 1C 0C 3C 01 00 00 02 01 65 5F 63 70 00 82 1C 0C  ..<.....e_cp....
  0000000140015DB0: 3C 01 00 00 04 01 65 5F 63 72 6C 63 00 83 1C 0C  <.....e_crlc....
  0000000140015DC0: 3C 01 00 00 06 01 65 5F 63 70 61 72 68 64 72 00  <.....e_cparhdr.
  0000000140015DD0: 84 1C 0C 3C 01 00 00 08 01 65 5F 6D 69 6E 61 6C  ...<.....e_minal
  0000000140015DE0: 6C 6F 63 00 85 1C 0C 3C 01 00 00 0A 01 65 5F 6D  loc....<.....e_m
  0000000140015DF0: 61 78 61 6C 6C 6F 63 00 86 1C 0C 3C 01 00 00 0C  axalloc....<....
  0000000140015E00: 01 65 5F 73 73 00 87 1C 0C 3C 01 00 00 0E 01 65  .e_ss....<.....e
  0000000140015E10: 5F 73 70 00 88 1C 0C 3C 01 00 00 10 01 65 5F 63  _sp....<.....e_c
  0000000140015E20: 73 75 6D 00 89 1C 0C 3C 01 00 00 12 01 65 5F 69  sum....<.....e_i
  0000000140015E30: 70 00 8A 1C 0C 3C 01 00 00 14 01 65 5F 63 73 00  p....<.....e_cs.
  0000000140015E40: 8B 1C 0C 3C 01 00 00 16 01 65 5F 6C 66 61 72 6C  ...<.....e_lfarl
  0000000140015E50: 63 00 8C 1C 0C 3C 01 00 00 18 01 65 5F 6F 76 6E  c....<.....e_ovn
  0000000140015E60: 6F 00 8D 1C 0C 3C 01 00 00 1A 01 65 5F 72 65 73  o....<.....e_res
  0000000140015E70: 00 8E 1C 0C 74 03 00 00 1C 01 65 5F 6F 65 6D 69  ....t.....e_oemi
  0000000140015E80: 64 00 8F 1C 0C 3C 01 00 00 24 01 65 5F 6F 65 6D  d....<...$.e_oem
  0000000140015E90: 69 6E 66 6F 00 90 1C 0C 3C 01 00 00 26 01 65 5F  info....<...&.e_
  0000000140015EA0: 72 65 73 32 00 91 1C 0C 84 03 00 00 28 01 65 5F  res2........(.e_
  0000000140015EB0: 6C 66 61 6E 65 77 00 92 1C 0C C2 01 00 00 3C 00  lfanew.......<.
  0000000140015EC0: 12 3C 01 00 00 84 03 00 00 13 77 00 00 00 03 00  .<........w.....
  0000000140015ED0: 12 3C 01 00 00 94 03 00 00 13 77 00 00 00 09 00  .<........w.....
  0000000140015EE0: 07 49 4D 41 47 45 5F 44 4F 53 5F 48 45 41 44 45  .IMAGE_DOS_HEADE
  0000000140015EF0: 52 00 93 1C 07 20 02 00 00 07 50 49 4D 41 47 45  R.... ....PIMAGE
  0000000140015F00: 5F 44 4F 53 5F 48 45 41 44 45 52 00 93 1C 19 C7  _DOS_HEADER....
  0000000140015F10: 03 00 00 0C 20 02 00 00 0E 5F 49 4D 41 47 45 5F  .... ...._IMAGE_
  0000000140015F20: 46 49 4C 45 5F 48 45 41 44 45 52 00 14 EE 1C 82  FILE_HEADER....
  0000000140015F30: 04 00 00 01 4D 61 63 68 69 6E 65 00 EF 1C 0C 3C  ....Machine...<
  0000000140015F40: 01 00 00 00 01 4E 75 6D 62 65 72 4F 66 53 65 63  .....NumberOfSec
  0000000140015F50: 74 69 6F 6E 73 00 F0 1C 0C 3C 01 00 00 02 0F 78  tions...<.....x
  0000000140015F60: 02 00 00 F1 1C 0D 49 01 00 00 04 01 50 6F 69 6E  .....I.....Poin
  0000000140015F70: 74 65 72 54 6F 53 79 6D 62 6F 6C 54 61 62 6C 65  terToSymbolTable
  0000000140015F80: 00 F2 1C 0D 49 01 00 00 08 01 4E 75 6D 62 65 72  ...I.....Number
  0000000140015F90: 4F 66 53 79 6D 62 6F 6C 73 00 F3 1C 0D 49 01 00  OfSymbols...I..
  0000000140015FA0: 00 0C 01 53 69 7A 65 4F 66 4F 70 74 69 6F 6E 61  ...SizeOfOptiona
  0000000140015FB0: 6C 48 65 61 64 65 72 00 F4 1C 0C 3C 01 00 00 10  lHeader...<....
  0000000140015FC0: 0F 90 02 00 00 F5 1C 0C 3C 01 00 00 12 00 07 49  .......<......I
  0000000140015FD0: 4D 41 47 45 5F 46 49 4C 45 5F 48 45 41 44 45 52  MAGE_FILE_HEADER
  0000000140015FE0: 00 F6 1C 07 CC 03 00 00 0E 5F 49 4D 41 47 45 5F  ......._IMAGE_
  0000000140015FF0: 44 41 54 41 5F 44 49 52 45 43 54 4F 52 59 00 08  DATA_DIRECTORY..
  0000000140016000: 2B 1D D6 04 00 00 0F AB 02 00 00 2C 1D 0D 49 01  +........,..I.
  0000000140016010: 00 00 00 01 53 69 7A 65 00 2D 1D 0D 49 01 00 00  ....Size.-..I...
  0000000140016020: 04 00 07 49 4D 41 47 45 5F 44 41 54 41 5F 44 49  ...IMAGE_DATA_DI
  0000000140016030: 52 45 43 54 4F 52 59 00 2E 1D 07 9C 04 00 00 12  RECTORY.........
  0000000140016040: D6 04 00 00 03 05 00 00 13 77 00 00 00 0F 00 0E  ........w......
  0000000140016050: 5F 49 4D 41 47 45 5F 4F 50 54 49 4F 4E 41 4C 5F  _IMAGE_OPTIONAL_
  0000000140016060: 48 45 41 44 45 52 36 34 00 F0 65 1D 30 08 00 00  HEADER64.e.0...
  0000000140016070: 01 4D 61 67 69 63 00 66 1D 0C 3C 01 00 00 00 01  .Magic.f..<.....
  0000000140016080: 4D 61 6A 6F 72 4C 69 6E 6B 65 72 56 65 72 73 69  MajorLinkerVersi
  0000000140016090: 6F 6E 00 67 1D 0C 2F 01 00 00 02 01 4D 69 6E 6F  on.g../.....Mino
  00000001400160A0: 72 4C 69 6E 6B 65 72 56 65 72 73 69 6F 6E 00 68  rLinkerVersion.h
  00000001400160B0: 1D 0C 2F 01 00 00 03 01 53 69 7A 65 4F 66 43 6F  ../.....SizeOfCo
  00000001400160C0: 64 65 00 69 1D 0D 49 01 00 00 04 01 53 69 7A 65  de.i..I.....Size
  00000001400160D0: 4F 66 49 6E 69 74 69 61 6C 69 7A 65 64 44 61 74  OfInitializedDat
  00000001400160E0: 61 00 6A 1D 0D 49 01 00 00 08 01 53 69 7A 65 4F  a.j..I.....SizeO
  00000001400160F0: 66 55 6E 69 6E 69 74 69 61 6C 69 7A 65 64 44 61  fUninitializedDa
  0000000140016100: 74 61 00 6B 1D 0D 49 01 00 00 0C 01 41 64 64 72  ta.k..I.....Addr
  0000000140016110: 65 73 73 4F 66 45 6E 74 72 79 50 6F 69 6E 74 00  essOfEntryPoint.
  0000000140016120: 6C 1D 0D 49 01 00 00 10 01 42 61 73 65 4F 66 43  l..I.....BaseOfC
  0000000140016130: 6F 64 65 00 6D 1D 0D 49 01 00 00 14 01 49 6D 61  ode.m..I.....Ima
  0000000140016140: 67 65 42 61 73 65 00 6E 1D 11 CF 01 00 00 18 01  geBase.n.......
  0000000140016150: 53 65 63 74 69 6F 6E 41 6C 69 67 6E 6D 65 6E 74  SectionAlignment
  0000000140016160: 00 6F 1D 0D 49 01 00 00 20 01 46 69 6C 65 41 6C  .o..I... .FileAl
  0000000140016170: 69 67 6E 6D 65 6E 74 00 70 1D 0D 49 01 00 00 24  ignment.p..I...$
  0000000140016180: 01 4D 61 6A 6F 72 4F 70 65 72 61 74 69 6E 67 53  .MajorOperatingS
  0000000140016190: 79 73 74 65 6D 56 65 72 73 69 6F 6E 00 71 1D 0C  ystemVersion.q..
  00000001400161A0: 3C 01 00 00 28 01 4D 69 6E 6F 72 4F 70 65 72 61  <...(.MinorOpera
  00000001400161B0: 74 69 6E 67 53 79 73 74 65 6D 56 65 72 73 69 6F  tingSystemVersio
  00000001400161C0: 6E 00 72 1D 0C 3C 01 00 00 2A 01 4D 61 6A 6F 72  n.r..<...*.Major
  00000001400161D0: 49 6D 61 67 65 56 65 72 73 69 6F 6E 00 73 1D 0C  ImageVersion.s..
  00000001400161E0: 3C 01 00 00 2C 01 4D 69 6E 6F 72 49 6D 61 67 65  <...,.MinorImage
  00000001400161F0: 56 65 72 73 69 6F 6E 00 74 1D 0C 3C 01 00 00 2E  Version.t..<....
  0000000140016200: 01 4D 61 6A 6F 72 53 75 62 73 79 73 74 65 6D 56  .MajorSubsystemV
  0000000140016210: 65 72 73 69 6F 6E 00 75 1D 0C 3C 01 00 00 30 01  ersion.u..<...0.
  0000000140016220: 4D 69 6E 6F 72 53 75 62 73 79 73 74 65 6D 56 65  MinorSubsystemVe
  0000000140016230: 72 73 69 6F 6E 00 76 1D 0C 3C 01 00 00 32 01 57  rsion.v..<...2.W
  0000000140016240: 69 6E 33 32 56 65 72 73 69 6F 6E 56 61 6C 75 65  in32VersionValue
  0000000140016250: 00 77 1D 0D 49 01 00 00 34 01 53 69 7A 65 4F 66  .w..I...4.SizeOf
  0000000140016260: 49 6D 61 67 65 00 78 1D 0D 49 01 00 00 38 01 53  Image.x..I...8.S
  0000000140016270: 69 7A 65 4F 66 48 65 61 64 65 72 73 00 79 1D 0D  izeOfHeaders.y..
  0000000140016280: 49 01 00 00 3C 01 43 68 65 63 6B 53 75 6D 00 7A  I...<.CheckSum.z
  0000000140016290: 1D 0D 49 01 00 00 40 01 53 75 62 73 79 73 74 65  ..I...@.Subsyste
  00000001400162A0: 6D 00 7B 1D 0C 3C 01 00 00 44 01 44 6C 6C 43 68  m.{..<...D.DllCh
  00000001400162B0: 61 72 61 63 74 65 72 69 73 74 69 63 73 00 7C 1D  aracteristics.|.
  00000001400162C0: 0C 3C 01 00 00 46 01 53 69 7A 65 4F 66 53 74 61  .<...F.SizeOfSta
  00000001400162D0: 63 6B 52 65 73 65 72 76 65 00 7D 1D 11 CF 01 00  ckReserve.}....
  00000001400162E0: 00 48 01 53 69 7A 65 4F 66 53 74 61 63 6B 43 6F  .H.SizeOfStackCo
  00000001400162F0: 6D 6D 69 74 00 7E 1D 11 CF 01 00 00 50 01 53 69  mmit.~.....P.Si
  0000000140016300: 7A 65 4F 66 48 65 61 70 52 65 73 65 72 76 65 00  zeOfHeapReserve.
  0000000140016310: 7F 1D 11 CF 01 00 00 58 01 53 69 7A 65 4F 66 48  ......X.SizeOfH
  0000000140016320: 65 61 70 43 6F 6D 6D 69 74 00 80 1D 11 CF 01 00  eapCommit......
  0000000140016330: 00 60 01 4C 6F 61 64 65 72 46 6C 61 67 73 00 81  .`.LoaderFlags..
  0000000140016340: 1D 0D 49 01 00 00 68 01 4E 75 6D 62 65 72 4F 66  ..I...h.NumberOf
  0000000140016350: 52 76 61 41 6E 64 53 69 7A 65 73 00 82 1D 0D 49  RvaAndSizes....I
  0000000140016360: 01 00 00 6C 01 44 61 74 61 44 69 72 65 63 74 6F  ...l.DataDirecto
  0000000140016370: 72 79 00 83 1D 1C F3 04 00 00 70 00 07 49 4D 41  ry.......p..IMA
  0000000140016380: 47 45 5F 4F 50 54 49 4F 4E 41 4C 5F 48 45 41 44  GE_OPTIONAL_HEAD
  0000000140016390: 45 52 36 34 00 84 1D 07 03 05 00 00 07 50 49 4D  ER64.........PIM
  00000001400163A0: 41 47 45 5F 4F 50 54 49 4F 4E 41 4C 5F 48 45 41  AGE_OPTIONAL_HEA
  00000001400163B0: 44 45 52 36 34 00 84 1D 20 71 08 00 00 0C 03 05  DER64... q......
  00000001400163C0: 00 00 07 50 49 4D 41 47 45 5F 4F 50 54 49 4F 4E  ...PIMAGE_OPTION
  00000001400163D0: 41 4C 5F 48 45 41 44 45 52 00 91 1D 26 50 08 00  AL_HEADER...&P..
  00000001400163E0: 00 21 5F 49 4D 41 47 45 5F 4E 54 5F 48 45 41 44  .!_IMAGE_NT_HEAD
  00000001400163F0: 45 52 53 36 34 00 08 01 05 9B 1D 14 F4 08 00 00  ERS64..........
  0000000140016400: 01 53 69 67 6E 61 74 75 72 65 00 9C 1D 0D 49 01  .Signature....I.
  0000000140016410: 00 00 00 01 46 69 6C 65 48 65 61 64 65 72 00 9D  ....FileHeader..
  0000000140016420: 1D 19 82 04 00 00 04 01 4F 70 74 69 6F 6E 61 6C  ........Optional
  0000000140016430: 48 65 61 64 65 72 00 9E 1D 1F 30 08 00 00 18 00  Header....0.....
  0000000140016440: 07 50 49 4D 41 47 45 5F 4E 54 5F 48 45 41 44 45  .PIMAGE_NT_HEADE
  0000000140016450: 52 53 36 34 00 9F 1D 1B 10 09 00 00 0C 95 08 00  RS64............
  0000000140016460: 00 07 50 49 4D 41 47 45 5F 4E 54 5F 48 45 41 44  ..PIMAGE_NT_HEAD
  0000000140016470: 45 52 53 00 AE 1D 21 F4 08 00 00 22 04 05 0C 1E  ERS..!..."....
  0000000140016480: 07 64 09 00 00 18 50 68 79 73 69 63 61 6C 41 64  .d....PhysicalAd
  0000000140016490: 64 72 65 73 73 00 0D 1E 49 01 00 00 18 56 69 72  dress...I....Vir
  00000001400164A0: 74 75 61 6C 53 69 7A 65 00 0E 1E 49 01 00 00 00  tualSize...I....
  00000001400164B0: 0E 5F 49 4D 41 47 45 5F 53 45 43 54 49 4F 4E 5F  ._IMAGE_SECTION_
  00000001400164C0: 48 45 41 44 45 52 00 28 0A 1E 60 0A 00 00 01 4E  HEADER.(..`....N
  00000001400164D0: 61 6D 65 00 0B 1E 0C 10 02 00 00 00 01 4D 69 73  ame..........Mis
  00000001400164E0: 63 00 0F 1E 09 2F 09 00 00 08 0F AB 02 00 00 10  c..../.........
  00000001400164F0: 1E 0D 49 01 00 00 0C 01 53 69 7A 65 4F 66 52 61  ..I.....SizeOfRa
  0000000140016500: 77 44 61 74 61 00 11 1E 0D 49 01 00 00 10 01 50  wData....I.....P
  0000000140016510: 6F 69 6E 74 65 72 54 6F 52 61 77 44 61 74 61 00  ointerToRawData.
  0000000140016520: 12 1E 0D 49 01 00 00 14 01 50 6F 69 6E 74 65 72  ...I.....Pointer
  0000000140016530: 54 6F 52 65 6C 6F 63 61 74 69 6F 6E 73 00 13 1E  ToRelocations...
  0000000140016540: 0D 49 01 00 00 18 01 50 6F 69 6E 74 65 72 54 6F  .I.....PointerTo
  0000000140016550: 4C 69 6E 65 6E 75 6D 62 65 72 73 00 14 1E 0D 49  Linenumbers....I
  0000000140016560: 01 00 00 1C 01 4E 75 6D 62 65 72 4F 66 52 65 6C  .....NumberOfRel
  0000000140016570: 6F 63 61 74 69 6F 6E 73 00 15 1E 0C 3C 01 00 00  ocations....<...
  0000000140016580: 20 01 4E 75 6D 62 65 72 4F 66 4C 69 6E 65 6E 75   .NumberOfLinenu
  0000000140016590: 6D 62 65 72 73 00 16 1E 0C 3C 01 00 00 22 0F 90  mbers....<..."..
  00000001400165A0: 02 00 00 17 1E 0D 49 01 00 00 24 00 07 50 49 4D  ......I...$..PIM
  00000001400165B0: 41 47 45 5F 53 45 43 54 49 4F 4E 5F 48 45 41 44  AGE_SECTION_HEAD
  00000001400165C0: 45 52 00 18 1E 1D 7E 0A 00 00 0C 64 09 00 00 23  ER....~....d...#
  00000001400165D0: 04 05 08 21 16 B5 0A 00 00 24 90 02 00 00 05 09  ...!....$......
  00000001400165E0: 21 08 49 01 00 00 18 4F 72 69 67 69 6E 61 6C 46  !.I....OriginalF
  00000001400165F0: 69 72 73 74 54 68 75 6E 6B 00 0A 21 49 01 00 00  irstThunk..!I...
  0000000140016600: 00 0E 5F 49 4D 41 47 45 5F 49 4D 50 4F 52 54 5F  .._IMAGE_IMPORT_
  0000000140016610: 44 45 53 43 52 49 50 54 4F 52 00 14 07 21 24 0B  DESCRIPTOR...!$.
  0000000140016620: 00 00 25 83 0A 00 00 00 0F 78 02 00 00 0C 21 0D  ..%......x....!.
  0000000140016630: 49 01 00 00 04 01 46 6F 72 77 61 72 64 65 72 43  I.....ForwarderC
  0000000140016640: 68 61 69 6E 00 0E 21 0D 49 01 00 00 08 01 4E 61  hain..!.I.....Na
  0000000140016650: 6D 65 00 0F 21 0D 49 01 00 00 0C 01 46 69 72 73  me..!.I.....Firs
  0000000140016660: 74 54 68 75 6E 6B 00 10 21 0D 49 01 00 00 10 00  tThunk..!.I.....
  0000000140016670: 07 49 4D 41 47 45 5F 49 4D 50 4F 52 54 5F 44 45  .IMAGE_IMPORT_DE
  0000000140016680: 53 43 52 49 50 54 4F 52 00 11 21 07 B5 0A 00 00  SCRIPTOR..!....
  0000000140016690: 07 50 49 4D 41 47 45 5F 49 4D 50 4F 52 54 5F 44  .PIMAGE_IMPORT_D
  00000001400166A0: 45 53 43 52 49 50 54 4F 52 00 12 21 30 65 0B 00  ESCRIPTOR..!0e..
  00000001400166B0: 00 0C 24 0B 00 00 26 5F 5F 49 6D 61 67 65 42 61  ..$...&__ImageBa
  00000001400166C0: 73 65 00 01 0A 19 94 03 00 00 1A 73 74 72 6E 63  se.........strnc
  00000001400166D0: 6D 70 00 56 0F D4 00 00 00 A1 0B 00 00 14 A1 0B  mp.V.........
  00000001400166E0: 00 00 14 A1 0B 00 00 14 77 00 00 00 00 0C 99 00  .......w.......
  00000001400166F0: 00 00 1A 73 74 72 6C 65 6E 00 40 12 9E 00 00 00  ...strlen.@.....
  0000000140016700: BE 0B 00 00 14 A1 0B 00 00 00 0D 5F 5F 6D 69 6E  .........__min
  0000000140016710: 67 77 5F 65 6E 75 6D 5F 69 6D 70 6F 72 74 5F 6C  gw_enum_import_l
  0000000140016720: 69 62 72 61 72 79 5F 6E 61 6D 65 73 00 B7 A1 0B  ibrary_names..
  0000000140016730: 00 00 90 24 00 40 01 00 00 00 C6 00 00 00 00 00  ...$.@.........
  0000000140016740: 00 00 01 9C 3B 0D 00 00 11 69 00 B7 28 D4 00 00  ....;....i.(..
  0000000140016750: 00 06 0E 00 00 02 0E 00 00 08 A0 02 00 00 B9 09  ...............
  0000000140016760: 60 01 00 00 0B 86 02 00 00 BA 15 15 09 00 00 19  `..............
  0000000140016770: 0E 00 00 15 0E 00 00 15 69 6D 70 6F 72 74 44 65  ........importDe
  0000000140016780: 73 63 00 BB 1C 44 0B 00 00 37 0E 00 00 35 0E 00  sc..D...7...5..
  0000000140016790: 00 08 6F 02 00 00 BC 19 60 0A 00 00 15 69 6D 70  ..o....`....imp
  00000001400167A0: 6F 72 74 73 53 74 61 72 74 52 56 41 00 BD 09 49  ortsStartRVA..I
  00000001400167B0: 01 00 00 47 0E 00 00 3F 0E 00 00 16 A3 13 00 00  ...G...?.......
  00000001400167C0: 90 24 00 40 01 00 00 00 09 53 01 00 00 C0 E0 0C  .$.@.....S....
  00000001400167D0: 00 00 04 C0 13 00 00 06 53 01 00 00 02 CB 13 00  .......S......
  00000001400167E0: 00 02 DD 13 00 00 02 E8 13 00 00 09 A3 13 00 00  .............
  00000001400167F0: A2 24 00 40 01 00 00 00 00 63 01 00 00 0F 01 04  $.@.....c......
  0000000140016800: C0 13 00 00 06 63 01 00 00 02 CB 13 00 00 03 DD  ....c........
  0000000140016810: 13 00 00 86 0E 00 00 82 0E 00 00 03 E8 13 00 00  ...............
  0000000140016820: 97 0E 00 00 95 0E 00 00 00 00 00 00 19 51 13 00  .............Q..
  0000000140016830: 00 D4 24 00 40 01 00 00 00 01 D4 24 00 40 01 00  .$.@.....$.@..
  0000000140016840: 00 00 4A 00 00 00 00 00 00 00 C9 0E 04 6A 13 00  ..J.........j..
  0000000140016850: 00 10 75 13 00 00 A3 0E 00 00 A1 0E 00 00 03 81  ..u...........
  0000000140016860: 13 00 00 AF 0E 00 00 AB 0E 00 00 03 8C 13 00 00  ..............
  0000000140016870: D1 0E 00 00 CB 0E 00 00 03 97 13 00 00 EB 0E 00  .............
  0000000140016880: 00 E9 0E 00 00 00 00 0D 5F 49 73 4E 6F 6E 77 72  ......._IsNonwr
  0000000140016890: 69 74 61 62 6C 65 49 6E 43 75 72 72 65 6E 74 49  itableInCurrentI
  00000001400168A0: 6D 61 67 65 00 A3 1F 01 00 00 00 24 00 40 01 00  mage......$.@..
  00000001400168B0: 00 00 89 00 00 00 00 00 00 00 01 9C 8E 0E 00 00  ................
  00000001400168C0: 11 70 54 61 72 67 65 74 00 A3 25 60 01 00 00 FC  .pTarget.%`...
  00000001400168D0: 0E 00 00 F4 0E 00 00 08 A0 02 00 00 A5 09 60 01  ............`.
  00000001400168E0: 00 00 15 72 76 61 54 61 72 67 65 74 00 A6 0D B0  ...rvaTarget..
  00000001400168F0: 01 00 00 21 0F 00 00 1F 0F 00 00 0B 6F 02 00 00  ...!........o...
  0000000140016900: A7 19 60 0A 00 00 2B 0F 00 00 29 0F 00 00 16 A3  .`...+...)....
  0000000140016910: 13 00 00 00 24 00 40 01 00 00 00 07 38 01 00 00  ....$.@.....8...
  0000000140016920: AA 33 0E 00 00 04 C0 13 00 00 06 38 01 00 00 02  3........8....
  0000000140016930: CB 13 00 00 02 DD 13 00 00 02 E8 13 00 00 09 A3  ............
  0000000140016940: 13 00 00 10 24 00 40 01 00 00 00 00 48 01 00 00  ....$.@.....H...
  0000000140016950: 0F 01 04 C0 13 00 00 06 48 01 00 00 02 CB 13 00  .......H......
  0000000140016960: 00 03 DD 13 00 00 37 0F 00 00 33 0F 00 00 03 E8  .....7...3....
  0000000140016970: 13 00 00 48 0F 00 00 46 0F 00 00 00 00 00 00 19  ...H...F........
  0000000140016980: 51 13 00 00 34 24 00 40 01 00 00 00 01 34 24 00  Q...4$.@.....4$.
  0000000140016990: 40 01 00 00 00 49 00 00 00 00 00 00 00 AD 0E 04  @....I.........
  00000001400169A0: 6A 13 00 00 10 75 13 00 00 54 0F 00 00 52 0F 00  j....u...T...R..
  00000001400169B0: 00 03 81 13 00 00 5E 0F 00 00 5C 0F 00 00 03 8C  ......^...\.....
  00000001400169C0: 13 00 00 68 0F 00 00 66 0F 00 00 03 97 13 00 00  ...h...f........
  00000001400169D0: 72 0F 00 00 70 0F 00 00 00 00 0D 5F 47 65 74 50  r...p......_GetP
  00000001400169E0: 45 49 6D 61 67 65 42 61 73 65 00 97 60 01 00 00  EImageBase..`...
  00000001400169F0: C0 23 00 40 01 00 00 00 36 00 00 00 00 00 00 00  #.@....6.......
  0000000140016A00: 01 9C 34 0F 00 00 08 A0 02 00 00 99 09 60 01 00  ..4..........`..
  0000000140016A10: 00 09 A3 13 00 00 C0 23 00 40 01 00 00 00 04 1D  .....#.@......
  0000000140016A20: 01 00 00 9B 09 04 C0 13 00 00 06 1D 01 00 00 02  ...............
  0000000140016A30: CB 13 00 00 02 DD 13 00 00 02 E8 13 00 00 09 A3  ............
  0000000140016A40: 13 00 00 D0 23 00 40 01 00 00 00 00 2D 01 00 00  ...#.@.....-...
  0000000140016A50: 0F 01 04 C0 13 00 00 06 2D 01 00 00 02 CB 13 00  .......-......
  0000000140016A60: 00 03 DD 13 00 00 7F 0F 00 00 7B 0F 00 00 03 E8  .........{....
  0000000140016A70: 13 00 00 90 0F 00 00 8E 0F 00 00 00 00 00 00 00  ................
  0000000140016A80: 0D 5F 46 69 6E 64 50 45 53 65 63 74 69 6F 6E 45  ._FindPESectionE
  0000000140016A90: 78 65 63 00 79 60 0A 00 00 40 23 00 40 01 00 00  xec.y`...@#.@...
  0000000140016AA0: 00 7B 00 00 00 00 00 00 00 01 9C 29 10 00 00 11  .{.........)....
  0000000140016AB0: 65 4E 6F 00 79 1C 9E 00 00 00 9E 0F 00 00 9A 0F  eNo.y...........
  0000000140016AC0: 00 00 08 A0 02 00 00 7B 09 60 01 00 00 0B 86 02  .......{.`......
  0000000140016AD0: 00 00 7C 15 15 09 00 00 AF 0F 00 00 AD 0F 00 00  ..|...........
  0000000140016AE0: 0B 6F 02 00 00 7D 19 60 0A 00 00 B9 0F 00 00 B7  .o...}.`......
  0000000140016AF0: 0F 00 00 0B BA 02 00 00 7E 10 E7 00 00 00 C3 0F  .......~.....
  0000000140016B00: 00 00 C1 0F 00 00 09 A3 13 00 00 40 23 00 40 01  .........@#.@.
  0000000140016B10: 00 00 00 08 02 01 00 00 81 09 04 C0 13 00 00 06  ...............
  0000000140016B20: 02 01 00 00 02 CB 13 00 00 02 DD 13 00 00 02 E8  .............
  0000000140016B30: 13 00 00 09 A3 13 00 00 51 23 00 40 01 00 00 00  .......Q#.@....
  0000000140016B40: 00 12 01 00 00 0F 01 04 C0 13 00 00 06 12 01 00  ...............
  0000000140016B50: 00 02 CB 13 00 00 03 DD 13 00 00 D0 0F 00 00 CC  ............
  0000000140016B60: 0F 00 00 03 E8 13 00 00 E1 0F 00 00 DF 0F 00 00  .............
  0000000140016B70: 00 00 00 00 00 0D 5F 5F 6D 69 6E 67 77 5F 47 65  ......__mingw_Ge
  0000000140016B80: 74 53 65 63 74 69 6F 6E 43 6F 75 6E 74 00 67 D4  tSectionCount.g
  0000000140016B90: 00 00 00 00 23 00 40 01 00 00 00 37 00 00 00 00  ....#.@....7....
  0000000140016BA0: 00 00 00 01 9C EA 10 00 00 08 A0 02 00 00 69 09  .............i.
  0000000140016BB0: 60 01 00 00 0B 86 02 00 00 6A 15 15 09 00 00 ED  `........j.....
  0000000140016BC0: 0F 00 00 EB 0F 00 00 09 A3 13 00 00 00 23 00 40  ...........#.@
  0000000140016BD0: 01 00 00 00 05 E7 00 00 00 6D 09 04 C0 13 00 00  ........m.....
  0000000140016BE0: 06 E7 00 00 00 02 CB 13 00 00 02 DD 13 00 00 02  .............
  0000000140016BF0: E8 13 00 00 09 A3 13 00 00 10 23 00 40 01 00 00  ........#.@...
  0000000140016C00: 00 00 F7 00 00 00 0F 01 04 C0 13 00 00 06 F7 00  .............
  0000000140016C10: 00 00 02 CB 13 00 00 03 DD 13 00 00 F9 0F 00 00  .............
  0000000140016C20: F5 0F 00 00 03 E8 13 00 00 0A 10 00 00 08 10 00  ..............
  0000000140016C30: 00 00 00 00 00 00 0D 5F 5F 6D 69 6E 67 77 5F 47  .......__mingw_G
  0000000140016C40: 65 74 53 65 63 74 69 6F 6E 46 6F 72 41 64 64 72  etSectionForAddr
  0000000140016C50: 65 73 73 00 59 60 0A 00 00 80 22 00 40 01 00 00  ess.Y`....".@...
  0000000140016C60: 00 80 00 00 00 00 00 00 00 01 9C 18 12 00 00 11  ................
  0000000140016C70: 70 00 59 26 73 01 00 00 1C 10 00 00 14 10 00 00  p.Y&s...........
  0000000140016C80: 08 A0 02 00 00 5B 09 60 01 00 00 15 72 76 61 00  .....[.`....rva.
  0000000140016C90: 5C 0D B0 01 00 00 41 10 00 00 3F 10 00 00 16 A3  \....A...?....
  0000000140016CA0: 13 00 00 80 22 00 40 01 00 00 00 06 C1 00 00 00  ....".@........
  0000000140016CB0: 5F C3 11 00 00 04 C0 13 00 00 06 C1 00 00 00 02  _............
  0000000140016CC0: CB 13 00 00 02 DD 13 00 00 02 E8 13 00 00 09 A3  ............
  0000000140016CD0: 13 00 00 90 22 00 40 01 00 00 00 00 D1 00 00 00  ....".@........
  0000000140016CE0: 0F 01 04 C0 13 00 00 06 D1 00 00 00 02 CB 13 00  .............
  0000000140016CF0: 00 03 DD 13 00 00 4D 10 00 00 49 10 00 00 03 E8  .....M...I....
  0000000140016D00: 13 00 00 5E 10 00 00 5C 10 00 00 00 00 00 00 09  ...^...\........
  0000000140016D10: 51 13 00 00 B9 22 00 40 01 00 00 00 01 DC 00 00  Q...".@.......
  0000000140016D20: 00 63 0A 04 6A 13 00 00 10 75 13 00 00 6A 10 00  .c..j....u...j..
  0000000140016D30: 00 68 10 00 00 06 DC 00 00 00 03 81 13 00 00 76  .h............v
  0000000140016D40: 10 00 00 72 10 00 00 03 8C 13 00 00 94 10 00 00  ...r............
  0000000140016D50: 92 10 00 00 03 97 13 00 00 9E 10 00 00 9C 10 00  ................
  0000000140016D60: 00 00 00 00 0D 5F 46 69 6E 64 50 45 53 65 63 74  ....._FindPESect
  0000000140016D70: 69 6F 6E 42 79 4E 61 6D 65 00 3A 60 0A 00 00 E0  ionByName.:`...
  0000000140016D80: 21 00 40 01 00 00 00 9D 00 00 00 00 00 00 00 01  !.@.............
  0000000140016D90: 9C 51 13 00 00 11 70 4E 61 6D 65 00 3A 23 A1 0B  .Q....pName.:#.
  0000000140016DA0: 00 00 B1 10 00 00 A7 10 00 00 08 A0 02 00 00 3C  .............<
  0000000140016DB0: 09 60 01 00 00 0B 86 02 00 00 3D 15 15 09 00 00  .`........=.....
  0000000140016DC0: DD 10 00 00 DB 10 00 00 0B 6F 02 00 00 3E 19 60  .......o...>.`
  0000000140016DD0: 0A 00 00 E7 10 00 00 E5 10 00 00 0B BA 02 00 00  .............
  0000000140016DE0: 3F 10 E7 00 00 00 F1 10 00 00 EF 10 00 00 16 A3  ?...........
  0000000140016DF0: 13 00 00 F5 21 00 40 01 00 00 00 02 B6 00 00 00  ...!.@........
  0000000140016E00: 46 19 13 00 00 04 C0 13 00 00 06 B6 00 00 00 02  F.............
  0000000140016E10: CB 13 00 00 02 DD 13 00 00 02 E8 13 00 00 19 A3  ............
  0000000140016E20: 13 00 00 05 22 00 40 01 00 00 00 00 05 22 00 40  ....".@......".@
  0000000140016E30: 01 00 00 00 17 00 00 00 00 00 00 00 0F 01 04 C0  ...............
  0000000140016E40: 13 00 00 02 CB 13 00 00 03 DD 13 00 00 FC 10 00  .............
  0000000140016E50: 00 FA 10 00 00 03 E8 13 00 00 06 11 00 00 04 11  ..............
  0000000140016E60: 00 00 00 00 00 27 EF 21 00 40 01 00 00 00 A6 0B  .....'!.@.....
  0000000140016E70: 00 00 31 13 00 00 17 01 52 02 74 00 00 28 5A 22  ..1.....R.t..(Z"
  0000000140016E80: 00 40 01 00 00 00 7E 0B 00 00 17 01 52 02 73 00  .@....~.....R.s.
  0000000140016E90: 17 01 51 02 74 00 17 01 58 01 38 00 00 1B 5F 46  ..Q.t...X.8..._F
  0000000140016EA0: 69 6E 64 50 45 53 65 63 74 69 6F 6E 00 24 60 0A  indPESection.$`.
  0000000140016EB0: 00 00 A3 13 00 00 1C A0 02 00 00 24 17 60 01 00  ..........$.`..
  0000000140016EC0: 00 29 72 76 61 00 01 24 2D B0 01 00 00 08 86 02  .)rva..$-......
  0000000140016ED0: 00 00 26 15 15 09 00 00 08 6F 02 00 00 27 19 60  ..&......o...'.`
  0000000140016EE0: 0A 00 00 08 BA 02 00 00 28 10 E7 00 00 00 00 1B  .......(......
  0000000140016EF0: 5F 56 61 6C 69 64 61 74 65 49 6D 61 67 65 42 61  _ValidateImageBa
  0000000140016F00: 73 65 00 0F 1F 01 00 00 FB 13 00 00 1C A0 02 00  se.............
  0000000140016F10: 00 0F 1B 60 01 00 00 1D 70 44 4F 53 48 65 61 64  ...`....pDOSHead
  0000000140016F20: 65 72 00 11 15 AD 03 00 00 08 86 02 00 00 12 15  er.............
  0000000140016F30: 15 09 00 00 1D 70 4F 70 74 48 65 61 64 65 72 00  .....pOptHeader.
  0000000140016F40: 13 1A 76 08 00 00 00 2A A3 13 00 00 60 21 00 40  ..v....*...`!.@
  0000000140016F50: 01 00 00 00 2C 00 00 00 00 00 00 00 01 9C 82 14  ....,...........
  0000000140016F60: 00 00 10 C0 13 00 00 14 11 00 00 10 11 00 00 03  ...............
  0000000140016F70: CB 13 00 00 26 11 00 00 22 11 00 00 02 DD 13 00  ...&..."......
  0000000140016F80: 00 02 E8 13 00 00 09 A3 13 00 00 69 21 00 40 01  .........i!.@.
  0000000140016F90: 00 00 00 00 AF 00 00 00 0F 01 10 C0 13 00 00 3A  .............:
  0000000140016FA0: 11 00 00 34 11 00 00 06 AF 00 00 00 02 CB 13 00  ...4..........
  0000000140016FB0: 00 03 DD 13 00 00 54 11 00 00 50 11 00 00 03 E8  .....T...P....
  0000000140016FC0: 13 00 00 61 11 00 00 5F 11 00 00 00 00 00 2B 51  ...a..._......+Q
  0000000140016FD0: 13 00 00 90 21 00 40 01 00 00 00 50 00 00 00 00  ....!.@....P....
  0000000140016FE0: 00 00 00 01 9C 10 6A 13 00 00 6D 11 00 00 69 11  ......j...m...i.
  0000000140016FF0: 00 00 2C 75 13 00 00 01 51 03 81 13 00 00 80 11  ..,u....Q.......
  0000000140017000: 00 00 7C 11 00 00 03 8C 13 00 00 9F 11 00 00 9D  ..|.............
  0000000140017010: 11 00 00 03 97 13 00 00 A9 11 00 00 A5 11 00 00  ..............
  0000000140017020: 00 00 9A 00 00 00 05 00 01 08 44 19 00 00 01 47  ..........D....G
  0000000140017030: 4E 55 20 43 39 39 20 31 34 2E 32 2E 30 20 2D 6D  NU C99 14.2.0 -m
  0000000140017040: 36 34 20 2D 6D 61 73 6D 3D 61 74 74 20 2D 6D 74  64 -masm=att -mt
  0000000140017050: 75 6E 65 3D 67 65 6E 65 72 69 63 20 2D 6D 61 72  une=generic -mar
  0000000140017060: 63 68 3D 6E 6F 63 6F 6E 61 20 2D 67 20 2D 4F 32  ch=nocona -g -O2
  0000000140017070: 20 2D 73 74 64 3D 67 6E 75 39 39 00 0C 65 11 00   -std=gnu99..e..
  0000000140017080: 00 4C 11 00 00 CC 19 00 00 02 5F 4D 49 4E 47 57  .L......._MINGW
  0000000140017090: 5F 49 4E 53 54 41 4C 4C 5F 44 45 42 55 47 5F 4D  _INSTALL_DEBUG_M
  00000001400170A0: 41 54 48 45 52 52 00 01 01 05 96 00 00 00 09 03  ATHERR..........
  00000001400170B0: 30 30 00 40 01 00 00 00 03 04 05 69 6E 74 00 00  00.@.......int..
  00000001400170C0: DF 01 00 00 05 00 01 08 72 19 00 00 06 47 4E 55  .......r....GNU
  00000001400170D0: 20 43 39 39 20 31 34 2E 32 2E 30 20 2D 6D 36 34   C99 14.2.0 -m64
  00000001400170E0: 20 2D 6D 61 73 6D 3D 61 74 74 20 2D 6D 74 75 6E   -masm=att -mtun
  00000001400170F0: 65 3D 67 65 6E 65 72 69 63 20 2D 6D 61 72 63 68  e=generic -march
  0000000140017100: 3D 6E 6F 63 6F 6E 61 20 2D 67 20 2D 4F 32 20 2D  =nocona -g -O2 -
  0000000140017110: 73 74 64 3D 67 6E 75 39 39 00 0C FE 11 00 00 34  std=gnu99.....4
  0000000140017120: 12 00 00 A0 25 00 40 01 00 00 00 40 00 00 00 00  ....%.@....@....
  0000000140017130: 00 00 00 06 1A 00 00 01 01 06 63 68 61 72 00 01  ..........char..
  0000000140017140: 08 07 6C 6F 6E 67 20 6C 6F 6E 67 20 75 6E 73 69  ..long long unsi
  0000000140017150: 67 6E 65 64 20 69 6E 74 00 01 08 05 6C 6F 6E 67  gned int....long
  0000000140017160: 20 6C 6F 6E 67 20 69 6E 74 00 01 02 07 73 68 6F   long int....sho
  0000000140017170: 72 74 20 75 6E 73 69 67 6E 65 64 20 69 6E 74 00  rt unsigned int.
  0000000140017180: 01 04 05 69 6E 74 00 01 04 05 6C 6F 6E 67 20 69  ...int....long i
  0000000140017190: 6E 74 00 01 04 07 75 6E 73 69 67 6E 65 64 20 69  nt....unsigned i
  00000001400171A0: 6E 74 00 01 04 07 6C 6F 6E 67 20 75 6E 73 69 67  nt....long unsig
  00000001400171B0: 6E 65 64 20 69 6E 74 00 01 01 08 75 6E 73 69 67  ned int....unsig
  00000001400171C0: 6E 65 64 20 63 68 61 72 00 07 5F 50 49 46 56 00  ned char.._PIFV.
  00000001400171D0: 02 32 17 17 01 00 00 02 1C 01 00 00 08 C0 00 00  .2.............
  00000001400171E0: 00 09 C0 00 00 00 35 01 00 00 03 35 01 00 00 03  .....5....5....
  00000001400171F0: 35 01 00 00 00 02 09 01 00 00 0A 5F 5F 69 6D 70  5..........__imp
  0000000140017200: 5F 5F 69 6E 69 74 74 65 72 6D 5F 65 00 01 19 0F  __initterm_e....
  0000000140017210: 5E 01 00 00 09 03 40 30 00 40 01 00 00 00 02 21  ^.....@0.@.....!
  0000000140017220: 01 00 00 0B 5F 69 6E 69 74 74 65 72 6D 5F 65 00  ...._initterm_e.
  0000000140017230: 02 36 15 C0 00 00 00 A0 25 00 40 01 00 00 00 40  .6.....%.@....@
  0000000140017240: 00 00 00 00 00 00 00 01 9C 04 66 69 72 73 74 5F  ..........first_
  0000000140017250: 66 75 6E 63 00 21 35 01 00 00 FE 11 00 00 FA 11  func.!5.......
  0000000140017260: 00 00 04 6C 61 73 74 5F 66 75 6E 63 00 35 35 01  ...last_func.55.
  0000000140017270: 00 00 12 12 00 00 0C 12 00 00 05 66 75 6E 63 00  ...........func.
  0000000140017280: 0B 0D 35 01 00 00 29 12 00 00 25 12 00 00 05 72  ..5...)...%....r
  0000000140017290: 65 74 00 0C 09 C0 00 00 00 36 12 00 00 34 12 00  et......6...4..
  00000001400172A0: 00 00 00 EF 00 00 00 05 00 01 08 1E 1A 00 00 03  ...............
  00000001400172B0: 47 4E 55 20 43 39 39 20 31 34 2E 32 2E 30 20 2D  GNU C99 14.2.0 -
  00000001400172C0: 6D 36 34 20 2D 6D 61 73 6D 3D 61 74 74 20 2D 6D  m64 -masm=att -m
  00000001400172D0: 74 75 6E 65 3D 67 65 6E 65 72 69 63 20 2D 6D 61  tune=generic -ma
  00000001400172E0: 72 63 68 3D 6E 6F 63 6F 6E 61 20 2D 67 20 2D 4F  rch=nocona -g -O
  00000001400172F0: 32 20 2D 73 74 64 3D 67 6E 75 39 39 00 0C F1 12  2 -std=gnu99...
  0000000140017300: 00 00 D8 12 00 00 E0 25 00 40 01 00 00 00 0B 00  .....%.@......
  0000000140017310: 00 00 00 00 00 00 AE 1A 00 00 01 01 06 63 68 61  ............cha
  0000000140017320: 72 00 04 5F 5F 69 6D 70 5F 5F 66 6D 6F 64 65 00  r..__imp__fmode.
  0000000140017330: 01 09 0E 94 00 00 00 02 99 00 00 00 01 04 05 69  ...............i
  0000000140017340: 6E 74 00 05 94 00 00 00 06 5F 5F 69 6D 70 5F 5F  nt.......__imp__
  0000000140017350: 5F 70 5F 5F 66 6D 6F 64 65 00 01 11 15 C8 00 00  _p__fmode......
  0000000140017360: 00 09 03 50 30 00 40 01 00 00 00 02 A0 00 00 00  ...P0.@.........
  0000000140017370: 07 5F 5F 70 5F 5F 66 6D 6F 64 65 00 01 0C 0E 94  .__p__fmode.....
  0000000140017380: 00 00 00 E0 25 00 40 01 00 00 00 0B 00 00 00 00  ...%.@.........
  0000000140017390: 00 00 00 01 9C 00 F5 00 00 00 05 00 01 08 91 1A  ...............
  00000001400173A0: 00 00 03 47 4E 55 20 43 39 39 20 31 34 2E 32 2E  ...GNU C99 14.2.
  00000001400173B0: 30 20 2D 6D 36 34 20 2D 6D 61 73 6D 3D 61 74 74  0 -m64 -masm=att
  00000001400173C0: 20 2D 6D 74 75 6E 65 3D 67 65 6E 65 72 69 63 20   -mtune=generic 
  00000001400173D0: 2D 6D 61 72 63 68 3D 6E 6F 63 6F 6E 61 20 2D 67  -march=nocona -g
  00000001400173E0: 20 2D 4F 32 20 2D 73 74 64 3D 67 6E 75 39 39 00   -O2 -std=gnu99.
  00000001400173F0: 0C 9A 13 00 00 81 13 00 00 F0 25 00 40 01 00 00  .........%.@...
  0000000140017400: 00 0B 00 00 00 00 00 00 00 0C 1B 00 00 01 01 06  ................
  0000000140017410: 63 68 61 72 00 04 5F 5F 69 6D 70 5F 5F 63 6F 6D  char..__imp__com
  0000000140017420: 6D 6F 64 65 00 01 09 0E 96 00 00 00 02 9B 00 00  mode............
  0000000140017430: 00 01 04 05 69 6E 74 00 05 96 00 00 00 06 5F 5F  ....int.......__
  0000000140017440: 69 6D 70 5F 5F 5F 70 5F 5F 63 6F 6D 6D 6F 64 65  imp___p__commode
  0000000140017450: 00 01 11 17 CC 00 00 00 09 03 60 30 00 40 01 00  .........`0.@..
  0000000140017460: 00 00 02 A2 00 00 00 07 5F 5F 70 5F 5F 63 6F 6D  .......__p__com
  0000000140017470: 6D 6F 64 65 00 01 0C 0E 96 00 00 00 F0 25 00 40  mode........%.@
  0000000140017480: 01 00 00 00 0B 00 00 00 00 00 00 00 01 9C 00 FB  ...............
  0000000140017490: 00 00 00 05 00 01 08 04 1B 00 00 02 47 4E 55 20  ............GNU 
  00000001400174A0: 43 39 39 20 31 34 2E 32 2E 30 20 2D 6D 36 34 20  C99 14.2.0 -m64 
  00000001400174B0: 2D 6D 61 73 6D 3D 61 74 74 20 2D 6D 74 75 6E 65  -masm=att -mtune
  00000001400174C0: 3D 67 65 6E 65 72 69 63 20 2D 6D 61 72 63 68 3D  =generic -march=
  00000001400174D0: 6E 6F 63 6F 6E 61 20 2D 67 20 2D 4F 32 20 2D 73  nocona -g -O2 -s
  00000001400174E0: 74 64 3D 67 6E 75 39 39 00 0C 49 14 00 00 30 14  td=gnu99..I...0.
  00000001400174F0: 00 00 00 26 00 40 01 00 00 00 0B 00 00 00 00 00  ...&.@..........
  0000000140017500: 00 00 6A 1B 00 00 03 01 06 63 68 61 72 00 04 5F  ..j......char.._
  0000000140017510: 5F 69 6D 70 5F 5F 5F 69 6E 69 74 65 6E 76 00 01  _imp___initenv..
  0000000140017520: 09 10 97 00 00 00 01 9C 00 00 00 01 A1 00 00 00  ...............
  0000000140017530: 01 77 00 00 00 05 97 00 00 00 06 5F 5F 69 6D 70  .w.........__imp
  0000000140017540: 5F 5F 5F 70 5F 5F 5F 69 6E 69 74 65 6E 76 00 01  ___p___initenv..
  0000000140017550: 10 13 D1 00 00 00 09 03 70 30 00 40 01 00 00 00  .......p0.@....
  0000000140017560: 01 A6 00 00 00 07 5F 5F 70 5F 5F 5F 69 6E 69 74  .....__p___init
  0000000140017570: 65 6E 76 00 01 0C 11 97 00 00 00 00 26 00 40 01  env.........&.@.
  0000000140017580: 00 00 00 0B 00 00 00 00 00 00 00 01 9C 00 26 07  ..............&.
  0000000140017590: 00 00 05 00 01 08 77 1B 00 00 0B 47 4E 55 20 43  ......w....GNU C
  00000001400175A0: 39 39 20 31 34 2E 32 2E 30 20 2D 6D 36 34 20 2D  99 14.2.0 -m64 -
  00000001400175B0: 6D 61 73 6D 3D 61 74 74 20 2D 6D 74 75 6E 65 3D  masm=att -mtune=
  00000001400175C0: 67 65 6E 65 72 69 63 20 2D 6D 61 72 63 68 3D 6E  generic -march=n
  00000001400175D0: 6F 63 6F 6E 61 20 2D 67 20 2D 4F 32 20 2D 73 74  ocona -g -O2 -st
  00000001400175E0: 64 3D 67 6E 75 39 39 00 0C E2 14 00 00 26 15 00  d=gnu99.....&..
  00000001400175F0: 00 10 26 00 40 01 00 00 00 1B 00 00 00 00 00 00  ..&.@...........
  0000000140017600: 00 C8 1B 00 00 02 01 06 63 68 61 72 00 02 08 07  .......char....
  0000000140017610: 6C 6F 6E 67 20 6C 6F 6E 67 20 75 6E 73 69 67 6E  long long unsign
  0000000140017620: 65 64 20 69 6E 74 00 02 08 05 6C 6F 6E 67 20 6C  ed int....long l
  0000000140017630: 6F 6E 67 20 69 6E 74 00 06 75 69 6E 74 70 74 72  ong int..uintptr
  0000000140017640: 5F 74 00 03 4B 2C 7F 00 00 00 06 77 63 68 61 72  _t..K,.....wchar
  0000000140017650: 5F 74 00 03 62 18 D1 00 00 00 0C BC 00 00 00 02  _t..b.........
  0000000140017660: 02 07 73 68 6F 72 74 20 75 6E 73 69 67 6E 65 64  ..short unsigned
  0000000140017670: 20 69 6E 74 00 02 04 05 69 6E 74 00 02 04 05 6C   int....int....l
  0000000140017680: 6F 6E 67 20 69 6E 74 00 02 04 07 75 6E 73 69 67  ong int....unsig
  0000000140017690: 6E 65 64 20 69 6E 74 00 02 04 07 6C 6F 6E 67 20  ned int....long 
  00000001400176A0: 75 6E 73 69 67 6E 65 64 20 69 6E 74 00 02 01 08  unsigned int....
  00000001400176B0: 75 6E 73 69 67 6E 65 64 20 63 68 61 72 00 0D 08  unsigned char...
  00000001400176C0: 0E 30 01 00 00 02 04 04 66 6C 6F 61 74 00 02 01  .0......float...
  00000001400176D0: 06 73 69 67 6E 65 64 20 63 68 61 72 00 02 02 05  .signed char....
  00000001400176E0: 73 68 6F 72 74 20 69 6E 74 00 02 08 04 64 6F 75  short int....dou
  00000001400176F0: 62 6C 65 00 02 10 04 6C 6F 6E 67 20 64 6F 75 62  ble....long doub
  0000000140017700: 6C 65 00 06 5F 69 6E 76 61 6C 69 64 5F 70 61 72  le.._invalid_par
  0000000140017710: 61 6D 65 74 65 72 5F 68 61 6E 64 6C 65 72 00 04  ameter_handler..
  0000000140017720: 8C 1A 98 01 00 00 05 9D 01 00 00 0F BC 01 00 00  ...............
  0000000140017730: 04 BC 01 00 00 04 BC 01 00 00 04 BC 01 00 00 04  .............
  0000000140017740: FA 00 00 00 04 AA 00 00 00 00 05 CC 00 00 00 02  .............
  0000000140017750: 02 04 5F 46 6C 6F 61 74 31 36 00 02 02 04 5F 5F  .._Float16....__
  0000000140017760: 62 66 31 36 00 07 4A 4F 42 5F 4F 42 4A 45 43 54  bf16..JOB_OBJECT
  0000000140017770: 5F 4E 45 54 5F 52 41 54 45 5F 43 4F 4E 54 52 4F  _NET_RATE_CONTRO
  0000000140017780: 4C 5F 46 4C 41 47 53 00 FA 00 00 00 05 C5 13 12  L_FLAGS.......
  0000000140017790: A9 02 00 00 01 4A 4F 42 5F 4F 42 4A 45 43 54 5F  ....JOB_OBJECT_
  00000001400177A0: 4E 45 54 5F 52 41 54 45 5F 43 4F 4E 54 52 4F 4C  NET_RATE_CONTROL
  00000001400177B0: 5F 45 4E 41 42 4C 45 00 01 01 4A 4F 42 5F 4F 42  _ENABLE...JOB_OB
  00000001400177C0: 4A 45 43 54 5F 4E 45 54 5F 52 41 54 45 5F 43 4F  JECT_NET_RATE_CO
  00000001400177D0: 4E 54 52 4F 4C 5F 4D 41 58 5F 42 41 4E 44 57 49  NTROL_MAX_BANDWI
  00000001400177E0: 44 54 48 00 02 01 4A 4F 42 5F 4F 42 4A 45 43 54  DTH...JOB_OBJECT
  00000001400177F0: 5F 4E 45 54 5F 52 41 54 45 5F 43 4F 4E 54 52 4F  _NET_RATE_CONTRO
  0000000140017800: 4C 5F 44 53 43 50 5F 54 41 47 00 04 01 4A 4F 42  L_DSCP_TAG...JOB
  0000000140017810: 5F 4F 42 4A 45 43 54 5F 4E 45 54 5F 52 41 54 45  _OBJECT_NET_RATE
  0000000140017820: 5F 43 4F 4E 54 52 4F 4C 5F 56 41 4C 49 44 5F 46  _CONTROL_VALID_F
  0000000140017830: 4C 41 47 53 00 07 00 10 74 61 67 43 4F 49 4E 49  LAGS....tagCOINI
  0000000140017840: 54 42 41 53 45 00 07 04 FA 00 00 00 06 95 0E E1  TBASE.........
  0000000140017850: 02 00 00 01 43 4F 49 4E 49 54 42 41 53 45 5F 4D  ....COINITBASE_M
  0000000140017860: 55 4C 54 49 54 48 52 45 41 44 45 44 00 00 00 07  ULTITHREADED....
  0000000140017870: 56 41 52 45 4E 55 4D 00 FA 00 00 00 07 01 02 06  VARENUM........
  0000000140017880: 6B 05 00 00 01 56 54 5F 45 4D 50 54 59 00 00 01  k....VT_EMPTY...
  0000000140017890: 56 54 5F 4E 55 4C 4C 00 01 01 56 54 5F 49 32 00  VT_NULL...VT_I2.
  00000001400178A0: 02 01 56 54 5F 49 34 00 03 01 56 54 5F 52 34 00  ..VT_I4...VT_R4.
  00000001400178B0: 04 01 56 54 5F 52 38 00 05 01 56 54 5F 43 59 00  ..VT_R8...VT_CY.
  00000001400178C0: 06 01 56 54 5F 44 41 54 45 00 07 01 56 54 5F 42  ..VT_DATE...VT_B
  00000001400178D0: 53 54 52 00 08 01 56 54 5F 44 49 53 50 41 54 43  STR...VT_DISPATC
  00000001400178E0: 48 00 09 01 56 54 5F 45 52 52 4F 52 00 0A 01 56  H...VT_ERROR...V
  00000001400178F0: 54 5F 42 4F 4F 4C 00 0B 01 56 54 5F 56 41 52 49  T_BOOL...VT_VARI
  0000000140017900: 41 4E 54 00 0C 01 56 54 5F 55 4E 4B 4E 4F 57 4E  ANT...VT_UNKNOWN
  0000000140017910: 00 0D 01 56 54 5F 44 45 43 49 4D 41 4C 00 0E 01  ...VT_DECIMAL...
  0000000140017920: 56 54 5F 49 31 00 10 01 56 54 5F 55 49 31 00 11  VT_I1...VT_UI1..
  0000000140017930: 01 56 54 5F 55 49 32 00 12 01 56 54 5F 55 49 34  .VT_UI2...VT_UI4
  0000000140017940: 00 13 01 56 54 5F 49 38 00 14 01 56 54 5F 55 49  ...VT_I8...VT_UI
  0000000140017950: 38 00 15 01 56 54 5F 49 4E 54 00 16 01 56 54 5F  8...VT_INT...VT_
  0000000140017960: 55 49 4E 54 00 17 01 56 54 5F 56 4F 49 44 00 18  UINT...VT_VOID..
  0000000140017970: 01 56 54 5F 48 52 45 53 55 4C 54 00 19 01 56 54  .VT_HRESULT...VT
  0000000140017980: 5F 50 54 52 00 1A 01 56 54 5F 53 41 46 45 41 52  _PTR...VT_SAFEAR
  0000000140017990: 52 41 59 00 1B 01 56 54 5F 43 41 52 52 41 59 00  RAY...VT_CARRAY.
  00000001400179A0: 1C 01 56 54 5F 55 53 45 52 44 45 46 49 4E 45 44  ..VT_USERDEFINED
  00000001400179B0: 00 1D 01 56 54 5F 4C 50 53 54 52 00 1E 01 56 54  ...VT_LPSTR...VT
  00000001400179C0: 5F 4C 50 57 53 54 52 00 1F 01 56 54 5F 52 45 43  _LPWSTR...VT_REC
  00000001400179D0: 4F 52 44 00 24 01 56 54 5F 49 4E 54 5F 50 54 52  ORD.$.VT_INT_PTR
  00000001400179E0: 00 25 01 56 54 5F 55 49 4E 54 5F 50 54 52 00 26  .%.VT_UINT_PTR.&
  00000001400179F0: 01 56 54 5F 46 49 4C 45 54 49 4D 45 00 40 01 56  .VT_FILETIME.@.V
  0000000140017A00: 54 5F 42 4C 4F 42 00 41 01 56 54 5F 53 54 52 45  T_BLOB.A.VT_STRE
  0000000140017A10: 41 4D 00 42 01 56 54 5F 53 54 4F 52 41 47 45 00  AM.B.VT_STORAGE.
  0000000140017A20: 43 01 56 54 5F 53 54 52 45 41 4D 45 44 5F 4F 42  C.VT_STREAMED_OB
  0000000140017A30: 4A 45 43 54 00 44 01 56 54 5F 53 54 4F 52 45 44  JECT.D.VT_STORED
  0000000140017A40: 5F 4F 42 4A 45 43 54 00 45 01 56 54 5F 42 4C 4F  _OBJECT.E.VT_BLO
  0000000140017A50: 42 5F 4F 42 4A 45 43 54 00 46 01 56 54 5F 43 46  B_OBJECT.F.VT_CF
  0000000140017A60: 00 47 01 56 54 5F 43 4C 53 49 44 00 48 01 56 54  .G.VT_CLSID.H.VT
  0000000140017A70: 5F 56 45 52 53 49 4F 4E 45 44 5F 53 54 52 45 41  _VERSIONED_STREA
  0000000140017A80: 4D 00 49 03 56 54 5F 42 53 54 52 5F 42 4C 4F 42  M.I.VT_BSTR_BLOB
  0000000140017A90: 00 FF 0F 03 56 54 5F 56 45 43 54 4F 52 00 00 10  ...VT_VECTOR...
  0000000140017AA0: 03 56 54 5F 41 52 52 41 59 00 00 20 03 56 54 5F  .VT_ARRAY.. .VT_
  0000000140017AB0: 42 59 52 45 46 00 00 40 03 56 54 5F 52 45 53 45  BYREF..@.VT_RESE
  0000000140017AC0: 52 56 45 44 00 00 80 03 56 54 5F 49 4C 4C 45 47  RVED....VT_ILLEG
  0000000140017AD0: 41 4C 00 FF FF 03 56 54 5F 49 4C 4C 45 47 41 4C  AL..VT_ILLEGAL
  0000000140017AE0: 4D 41 53 4B 45 44 00 FF 0F 03 56 54 5F 54 59 50  MASKED...VT_TYP
  0000000140017AF0: 45 4D 41 53 4B 00 FF 0F 00 11 68 61 6E 64 6C 65  EMASK....handle
  0000000140017B00: 72 00 01 05 23 75 01 00 00 09 03 70 71 00 40 01  r...#u.....pq.@.
  0000000140017B10: 00 00 00 12 75 01 00 00 94 05 00 00 04 75 01 00  ....u........u..
  0000000140017B20: 00 00 08 5F 5F 69 6D 70 5F 5F 73 65 74 5F 69 6E  ...__imp__set_in
  0000000140017B30: 76 61 6C 69 64 5F 70 61 72 61 6D 65 74 65 72 5F  valid_parameter_
  0000000140017B40: 68 61 6E 64 6C 65 72 00 0C C9 05 00 00 09 03 88  handler........
  0000000140017B50: 30 00 40 01 00 00 00 05 85 05 00 00 13 75 01 00  0.@..........u..
  0000000140017B60: 00 08 5F 5F 69 6D 70 5F 5F 67 65 74 5F 69 6E 76  ..__imp__get_inv
  0000000140017B70: 61 6C 69 64 5F 70 61 72 61 6D 65 74 65 72 5F 68  alid_parameter_h
  0000000140017B80: 61 6E 64 6C 65 72 00 14 08 06 00 00 09 03 80 30  andler.........0
  0000000140017B90: 00 40 01 00 00 00 05 CE 05 00 00 14 6D 69 6E 67  .@.........ming
  0000000140017BA0: 77 5F 67 65 74 5F 69 6E 76 61 6C 69 64 5F 70 61  w_get_invalid_pa
  0000000140017BB0: 72 61 6D 65 74 65 72 5F 68 61 6E 64 6C 65 72 00  rameter_handler.
  0000000140017BC0: 01 0F 2B 75 01 00 00 10 26 00 40 01 00 00 00 08  ..+u....&.@.....
  0000000140017BD0: 00 00 00 00 00 00 00 01 9C 15 6D 69 6E 67 77 5F  ..........mingw_
  0000000140017BE0: 73 65 74 5F 69 6E 76 61 6C 69 64 5F 70 61 72 61  set_invalid_para
  0000000140017BF0: 6D 65 74 65 72 5F 68 61 6E 64 6C 65 72 00 01 07  meter_handler...
  0000000140017C00: 2B 75 01 00 00 20 26 00 40 01 00 00 00 0B 00 00  +u... &.@.......
  0000000140017C10: 00 00 00 00 00 01 9C E0 06 00 00 16 6E 65 77 5F  ...........new_
  0000000140017C20: 68 61 6E 64 6C 65 72 00 01 07 6A 75 01 00 00 01  handler...ju....
  0000000140017C30: 52 17 E0 06 00 00 23 26 00 40 01 00 00 00 00 23  R....#&.@.....#
  0000000140017C40: 26 00 40 01 00 00 00 07 00 00 00 00 00 00 00 01  &.@.............
  0000000140017C50: 09 0C 09 0A 07 00 00 4A 12 00 00 48 12 00 00 09  .......J...H....
  0000000140017C60: 17 07 00 00 5B 12 00 00 59 12 00 00 00 00 18 5F  ....[...Y......_
  0000000140017C70: 49 6E 74 65 72 6C 6F 63 6B 65 64 45 78 63 68 61  InterlockedExcha
  0000000140017C80: 6E 67 65 50 6F 69 6E 74 65 72 00 02 EB 06 07 30  ngePointer....0
  0000000140017C90: 01 00 00 03 24 07 00 00 0A 54 61 72 67 65 74 00  ....$....Target.
  0000000140017CA0: 33 24 07 00 00 0A 56 61 6C 75 65 00 40 30 01 00  3$....Value.@0..
  0000000140017CB0: 00 00 05 32 01 00 00 00 5A 02 00 00 05 00 01 08  ...2....Z.......
  0000000140017CC0: DC 1C 00 00 05 47 4E 55 20 43 39 39 20 31 34 2E  ....GNU C99 14.
  0000000140017CD0: 32 2E 30 20 2D 6D 36 34 20 2D 6D 61 73 6D 3D 61  2.0 -m64 -masm=a
  0000000140017CE0: 74 74 20 2D 6D 74 75 6E 65 3D 67 65 6E 65 72 69  tt -mtune=generi
  0000000140017CF0: 63 20 2D 6D 61 72 63 68 3D 6E 6F 63 6F 6E 61 20  c -march=nocona 
  0000000140017D00: 2D 67 20 2D 4F 32 20 2D 73 74 64 3D 67 6E 75 39  -g -O2 -std=gnu9
  0000000140017D10: 39 00 0C 38 16 00 00 71 16 00 00 30 26 00 40 01  9..8...q...0&.@.
  0000000140017D20: 00 00 00 1F 00 00 00 00 00 00 00 6B 1C 00 00 01  ...........k....
  0000000140017D30: 01 06 63 68 61 72 00 01 08 07 6C 6F 6E 67 20 6C  ..char....long l
  0000000140017D40: 6F 6E 67 20 75 6E 73 69 67 6E 65 64 20 69 6E 74  ong unsigned int
  0000000140017D50: 00 01 08 05 6C 6F 6E 67 20 6C 6F 6E 67 20 69 6E  ....long long in
  0000000140017D60: 74 00 01 02 07 73 68 6F 72 74 20 75 6E 73 69 67  t....short unsig
  0000000140017D70: 6E 65 64 20 69 6E 74 00 01 04 05 69 6E 74 00 01  ned int....int..
  0000000140017D80: 04 05 6C 6F 6E 67 20 69 6E 74 00 03 77 00 00 00  ..long int..w...
  0000000140017D90: 01 04 07 75 6E 73 69 67 6E 65 64 20 69 6E 74 00  ...unsigned int.
  0000000140017DA0: 01 04 07 6C 6F 6E 67 20 75 6E 73 69 67 6E 65 64  ...long unsigned
  0000000140017DB0: 20 69 6E 74 00 01 01 08 75 6E 73 69 67 6E 65 64   int....unsigned
  0000000140017DC0: 20 63 68 61 72 00 06 5F 69 6F 62 75 66 00 30 02   char.._iobuf.0.
  0000000140017DD0: 21 0A 96 01 00 00 02 5F 70 74 72 00 25 0B D3 00  !......_ptr.%..
  0000000140017DE0: 00 00 00 02 5F 63 6E 74 00 26 09 C0 00 00 00 08  ...._cnt.&.....
  0000000140017DF0: 02 5F 62 61 73 65 00 27 0B D3 00 00 00 10 02 5F  ._base.'......_
  0000000140017E00: 66 6C 61 67 00 28 09 C0 00 00 00 18 02 5F 66 69  flag.(......_fi
  0000000140017E10: 6C 65 00 29 09 C0 00 00 00 1C 02 5F 63 68 61 72  le.)......_char
  0000000140017E20: 62 75 66 00 2A 09 C0 00 00 00 20 02 5F 62 75 66  buf.*.... ._buf
  0000000140017E30: 73 69 7A 00 2B 09 C0 00 00 00 24 02 5F 74 6D 70  siz.+....$._tmp
  0000000140017E40: 66 6E 61 6D 65 00 2C 0B D3 00 00 00 28 00 04 46  fname.,....(..F
  0000000140017E50: 49 4C 45 00 02 2F 0E 01 00 00 04 5F 66 5F 5F 61  ILE../....._f__a
  0000000140017E60: 63 72 74 5F 69 6F 62 5F 66 75 6E 63 00 01 0E BB  crt_iob_func...
  0000000140017E70: 01 00 00 03 C0 01 00 00 07 CF 01 00 00 CF 01 00  .............
  0000000140017E80: 00 08 D8 00 00 00 00 03 96 01 00 00 09 5F 5F 69  ............__i
  0000000140017E90: 6D 70 5F 5F 5F 61 63 72 74 5F 69 6F 62 5F 66 75  mp___acrt_iob_fu
  0000000140017EA0: 6E 63 00 01 0F 13 A2 01 00 00 09 03 90 30 00 40  nc..........0.@
  0000000140017EB0: 01 00 00 00 0A 5F 5F 69 6F 62 5F 66 75 6E 63 00  .....__iob_func.
  0000000140017EC0: 02 67 19 CF 01 00 00 0B 5F 5F 61 63 72 74 5F 69  .g.....__acrt_i
  0000000140017ED0: 6F 62 5F 66 75 6E 63 00 02 65 17 CF 01 00 00 30  ob_func..e....0
  0000000140017EE0: 26 00 40 01 00 00 00 1F 00 00 00 00 00 00 00 01  &.@.............
  0000000140017EF0: 9C 0C 69 6E 64 65 78 00 01 09 28 D8 00 00 00 73  ..index...(...s
  0000000140017F00: 12 00 00 6D 12 00 00 0D 3C 26 00 40 01 00 00 00  ...m....<&.@....
  0000000140017F10: FC 01 00 00 00 00                                .....

RAW DATA #E
  0000000140018000: 01 0D 00 03 08 3A 21 02 3B 05 39 0B 49 13 38 0B  .....:!.;.9.I.8.
  0000000140018010: 00 00 02 0D 00 03 0E 3A 21 02 3B 05 39 0B 49 13  .......:!.;.9.I.
  0000000140018020: 38 0B 00 00 03 28 00 03 08 1C 0B 00 00 04 05 00  8....(..........
  0000000140018030: 49 13 00 00 05 0F 00 0B 21 08 49 13 00 00 06 16  I.......!.I.....
  0000000140018040: 00 03 08 3A 0B 3B 05 39 0B 49 13 00 00 07 49 00  ...:.;.9.I....I.
  0000000140018050: 02 18 7E 18 00 00 08 24 00 0B 0B 3E 0B 03 08 00  ..~....$...>....
  0000000140018060: 00 09 34 00 03 08 3A 0B 3B 0B 39 0B 49 13 3F 19  ..4...:.;.9.I.?.
  0000000140018070: 3C 19 00 00 0A 16 00 03 08 3A 0B 3B 0B 39 0B 49  <........:.;.9.I
  0000000140018080: 13 00 00 0B 48 00 7D 01 7F 13 00 00 0C 0D 00 03  ....H.}.........
  0000000140018090: 08 3A 21 02 3B 05 39 0B 49 13 88 01 21 10 38 05  .:!.;.9.I...!.8.
  00000001400180A0: 00 00 0D 0D 00 03 08 3A 21 02 3B 05 39 0B 49 13  .......:!.;.9.I.
  00000001400180B0: 88 01 21 10 38 0B 00 00 0E 13 01 03 08 0B 0B 3A  ..!.8..........:
  00000001400180C0: 21 02 3B 05 39 0B 01 13 00 00 0F 21 00 49 13 2F  !.;.9......!.I./
  00000001400180D0: 0B 00 00 10 2E 01 3F 19 03 08 3A 0B 3B 0B 39 0B  ......?...:.;.9.
  00000001400180E0: 27 19 49 13 3C 19 01 13 00 00 11 34 00 03 08 3A  '.I.<......4...:
  00000001400180F0: 0B 3B 05 39 0B 49 13 00 00 12 34 00 31 13 02 17  .;.9.I....4.1...
  0000000140018100: B7 42 17 00 00 13 48 01 7D 01 7F 13 01 13 00 00  B....H.}.......
  0000000140018110: 14 28 00 03 08 1C 05 00 00 15 05 00 03 08 3A 0B  .(............:.
  0000000140018120: 3B 05 39 0B 49 13 00 00 16 0D 00 03 08 3A 21 02  ;.9.I........:!.
  0000000140018130: 3B 05 39 0B 49 13 38 05 00 00 17 01 01 49 13 01  ;.9.I.8......I..
  0000000140018140: 13 00 00 18 0D 00 03 08 3A 21 02 3B 05 39 0B 49  ........:!.;.9.I
  0000000140018150: 13 00 00 19 0D 00 03 08 3A 0B 3B 0B 39 0B 49 13  ........:.;.9.I.
  0000000140018160: 38 0B 00 00 1A 34 00 03 08 3A 21 01 3B 0B 39 0B  8....4...:!.;.9.
  0000000140018170: 49 13 02 18 00 00 1B 05 00 31 13 02 17 B7 42 17  I........1...B.
  0000000140018180: 00 00 1C 48 01 7D 01 7F 13 00 00 1D 49 00 02 18  ...H.}......I...
  0000000140018190: 00 00 1E 34 00 03 08 3A 21 01 3B 0B 39 0B 49 13  ...4...:!.;.9.I.
  00000001400181A0: 02 17 B7 42 17 00 00 1F 05 00 03 08 3A 21 01 3B  ..B........:!.;
  00000001400181B0: 0B 39 0B 49 13 02 18 00 00 20 01 01 49 13 88 01  .9.I..... ..I...
  00000001400181C0: 21 10 01 13 00 00 21 2E 00 3F 19 03 08 3A 0B 3B  !.....!..?...:.;
  00000001400181D0: 0B 39 0B 27 19 3C 19 00 00 22 2E 00 3F 19 03 08  .9.'.<..."..?...
  00000001400181E0: 3A 0B 3B 0B 39 0B 27 19 49 13 3C 19 00 00 23 2E  :.;.9.'.I.<...#.
  00000001400181F0: 01 3F 19 03 08 3A 0B 3B 0B 39 0B 27 19 3C 19 01  .?...:.;.9.'.<..
  0000000140018200: 13 00 00 24 1D 01 31 13 52 01 B8 42 0B 11 01 12  ...$..1.R.B....
  0000000140018210: 07 58 21 01 59 0B 57 0B 01 13 00 00 25 26 00 49  .X!.Y.W.....%&.I
  0000000140018220: 13 00 00 26 15 01 27 19 49 13 01 13 00 00 27 17  ...&..'.I.....'.
  0000000140018230: 01 0B 21 08 3A 21 02 3B 05 39 21 16 89 01 19 01  ..!.:!.;.9!.....
  0000000140018240: 13 00 00 28 0D 00 49 13 38 0B 00 00 29 34 00 03  ...(..I.8...)4..
  0000000140018250: 08 3A 21 01 3B 05 39 21 0C 49 13 3F 19 3C 19 00  .:!.;.9!.I.?.<..
  0000000140018260: 00 2A 34 00 31 13 00 00 2B 2E 01 3F 19 03 08 3A  .*4.1...+..?...:
  0000000140018270: 21 03 3B 05 39 0B 27 19 49 13 20 21 03 01 13 00  !.;.9.'.I. !....
  0000000140018280: 00 2C 35 00 49 13 00 00 2D 13 01 03 08 0B 05 88  .,5.I...-.......
  0000000140018290: 01 21 10 3A 21 02 3B 05 39 0B 01 13 00 00 2E 16  .!.:!.;.9.......
  00000001400182A0: 00 03 08 3A 21 02 3B 05 39 0B 49 13 88 01 21 10  ...:!.;.9.I...!.
  00000001400182B0: 00 00 2F 15 01 27 19 01 13 00 00 30 0D 00 03 08  ../..'.....0....
  00000001400182C0: 3A 21 02 3B 05 39 21 17 49 13 88 01 21 10 00 00  :!.;.9!.I...!...
  00000001400182D0: 31 04 01 03 08 3E 21 07 0B 21 04 49 13 3A 0B 3B  1....>!..!.I.:.;
  00000001400182E0: 05 39 0B 01 13 00 00 32 21 00 00 00 33 34 00 03  .9.....2!...34..
  00000001400182F0: 08 3A 21 01 3B 0B 39 21 1E 49 13 3F 19 02 18 00  .:!.;.9!.I.?....
  0000000140018300: 00 34 2E 01 3F 19 03 08 3A 0B 3B 05 39 0B 27 19  .4..?...:.;.9.'.
  0000000140018310: 49 13 3C 19 01 13 00 00 35 2E 01 03 08 3A 21 01  I.<.....5....:!.
  0000000140018320: 3B 0B 39 21 01 27 19 49 13 11 01 12 07 40 18 7A  ;.9!.'.I.....@.z
  0000000140018330: 19 01 13 00 00 36 05 00 31 13 00 00 37 0B 01 55  .....6..1...7..U
  0000000140018340: 17 00 00 38 2E 01 3F 19 03 08 3A 21 01 3B 0B 39  ...8..?...:!.;.9
  0000000140018350: 21 05 27 19 49 13 11 01 12 07 40 18 7A 19 01 13  !.'.I.....@.z...
  0000000140018360: 00 00 39 34 00 03 08 3A 21 01 3B 0B 39 0B 49 13  ..94...:!.;.9.I.
  0000000140018370: 00 00 3A 11 01 25 08 13 0B 03 1F 1B 1F 11 01 12  ..:..%..........
  0000000140018380: 07 10 17 00 00 3B 0F 00 0B 0B 00 00 3C 0D 00 49  .....;......<..I
  0000000140018390: 13 88 01 0B 38 05 00 00 3D 26 00 00 00 3E 13 01  ....8...=&...>..
  00000001400183A0: 03 08 0B 0B 88 01 0B 3A 0B 3B 05 39 0B 01 13 00  .......:.;.9....
  00000001400183B0: 00 3F 15 00 27 19 49 13 00 00 40 15 00 27 19 00  .?..'.I...@..'..
  00000001400183C0: 00 41 13 01 0B 05 88 01 0B 3A 0B 3B 05 39 0B 89  .A.......:.;.9..
  00000001400183D0: 01 19 01 13 00 00 42 17 01 0B 05 88 01 0B 3A 0B  ......B.......:.
  00000001400183E0: 3B 05 39 0B 89 01 19 01 13 00 00 43 0D 00 49 13  ;.9........C..I.
  00000001400183F0: 88 01 0B 00 00 44 13 01 03 08 0B 05 3A 0B 3B 05  .....D......:.;.
  0000000140018400: 39 0B 01 13 00 00 45 04 01 03 08 3E 0B 0B 0B 49  9.....E....>...I
  0000000140018410: 13 3A 0B 3B 0B 39 0B 01 13 00 00 46 13 01 0B 0B  .:.;.9.....F....
  0000000140018420: 3A 0B 3B 0B 39 0B 01 13 00 00 47 04 01 03 0E 3E  :.;.9.....G....>
  0000000140018430: 0B 0B 0B 49 13 3A 0B 3B 0B 39 0B 01 13 00 00 48  ...I.:.;.9.....H
  0000000140018440: 16 00 03 0E 3A 0B 3B 0B 39 0B 49 13 00 00 49 35  ....:.;.9.I...I5
  0000000140018450: 00 00 00 4A 13 01 03 08 0B 0B 3A 0B 3B 0B 39 0B  ...J......:.;.9.
  0000000140018460: 01 13 00 00 4B 34 00 03 08 3A 0B 3B 05 39 0B 49  ....K4...:.;.9.I
  0000000140018470: 13 3F 19 02 18 00 00 4C 2E 01 3F 19 03 08 3A 0B  .?.....L..?...:.
  0000000140018480: 3B 05 39 0B 27 19 87 01 19 3C 19 01 13 00 00 4D  ;.9.'....<.....M
  0000000140018490: 2E 01 3F 19 03 08 3A 0B 3B 0B 39 0B 27 19 87 01  ..?...:.;.9.'...
  00000001400184A0: 19 3C 19 01 13 00 00 4E 2E 01 3F 19 03 08 3A 0B  .<.....N..?...:.
  00000001400184B0: 3B 05 39 0B 27 19 49 13 11 01 12 07 40 18 7A 19  ;.9.'.I.....@.z.
  00000001400184C0: 01 13 00 00 4F 05 00 03 08 3A 0B 3B 05 39 0B 49  ....O....:.;.9.I
  00000001400184D0: 13 02 17 B7 42 17 00 00 50 48 01 7D 01 82 01 19  ...B...PH.}....
  00000001400184E0: 7F 13 00 00 51 2E 01 03 08 3A 0B 3B 05 39 0B 27  ....Q....:.;.9.'
  00000001400184F0: 19 20 0B 01 13 00 00 52 0B 01 00 00 53 2E 01 03  . .....R....S...
  0000000140018500: 08 3A 0B 3B 05 39 0B 27 19 49 13 20 0B 01 13 00  .:.;.9.'.I. ....
  0000000140018510: 00 54 34 00 03 08 3A 0B 3B 0B 39 0B 49 13 1C 0B  .T4...:.;.9.I...
  0000000140018520: 00 00 55 1D 01 31 13 52 01 B8 42 0B 11 01 12 07  ..U..1.R.B.....
  0000000140018530: 58 0B 59 05 57 0B 00 00 56 1D 01 31 13 52 01 B8  X.Y.W...V..1.R.
  0000000140018540: 42 0B 55 17 58 0B 59 05 57 0B 01 13 00 00 57 0B  B.U.X.Y.W.....W.
  0000000140018550: 01 31 13 55 17 01 13 00 00 58 48 01 7D 01 01 13  .1.U.....XH.}...
  0000000140018560: 00 00 59 2E 01 03 08 3A 0B 3B 0B 39 0B 27 19 20  ..Y....:.;.9.'. 
  0000000140018570: 0B 01 13 00 00 5A 1D 01 31 13 52 01 B8 42 0B 55  .....Z..1.R.B.U
  0000000140018580: 17 58 0B 59 0B 57 0B 01 13 00 00 5B 2E 01 03 08  .X.Y.W.....[....
  0000000140018590: 3A 0B 3B 0B 39 0B 27 19 11 01 12 07 40 18 7A 19  :.;.9.'.....@.z.
  00000001400185A0: 01 13 00 00 5C 13 00 03 08 3C 19 00 00 5D 2E 00  ....\....<...]..
  00000001400185B0: 3F 19 03 08 3A 0B 3B 05 39 0B 27 19 49 13 20 0B  ?...:.;.9.'.I. .
  00000001400185C0: 00 00 5E 2E 01 31 13 11 01 12 07 40 18 7A 19 01  ..^..1.....@.z..
  00000001400185D0: 13 00 00 5F 34 00 31 13 02 18 00 00 60 2E 00 3F  ..._4.1.....`..?
  00000001400185E0: 19 3C 19 6E 08 03 08 3A 0B 3B 0B 00 00 00 01 28  .<.n...:.;.....(
  00000001400185F0: 00 03 08 1C 0B 00 00 02 24 00 0B 0B 3E 0B 03 08  ........$...>...
  0000000140018600: 00 00 03 28 00 03 08 1C 05 00 00 04 16 00 03 08  ...(............
  0000000140018610: 3A 0B 3B 0B 39 0B 49 13 00 00 05 0F 00 0B 21 08  :.;.9.I.......!.
  0000000140018620: 49 13 00 00 06 04 01 03 08 3E 21 07 0B 21 04 49  I........>!..!.I
  0000000140018630: 13 3A 0B 3B 05 39 0B 01 13 00 00 07 34 00 03 08  .:.;.9......4...
  0000000140018640: 3A 21 01 3B 0B 39 21 11 49 13 3F 19 3C 19 00 00  :!.;.9!.I.?.<...
  0000000140018650: 08 34 00 03 08 3A 21 01 3B 0B 39 0B 49 13 02 18  .4...:!.;.9.I...
  0000000140018660: 00 00 09 2E 01 3F 19 03 08 3A 21 01 3B 0B 39 21  .....?...:!.;.9!
  0000000140018670: 01 27 19 11 01 12 07 40 18 7C 19 01 13 00 00 0A  .'.....@.|......
  0000000140018680: 34 00 03 08 3A 21 01 3B 0B 39 21 11 49 13 02 17  4...:!.;.9!.I...
  0000000140018690: B7 42 17 00 00 0B 11 01 25 08 13 0B 03 1F 1B 1F  B......%.......
  00000001400186A0: 11 01 12 07 10 17 00 00 0C 15 00 27 19 00 00 0D  ...........'....
  00000001400186B0: 04 01 03 08 3E 0B 0B 0B 49 13 3A 0B 3B 0B 39 0B  ....>...I.:.;.9.
  00000001400186C0: 01 13 00 00 0E 01 01 49 13 01 13 00 00 0F 21 00  .......I......!.
  00000001400186D0: 00 00 10 2E 01 3F 19 03 08 3A 0B 3B 05 39 0B 27  .....?...:.;.9.'
  00000001400186E0: 19 49 13 3C 19 01 13 00 00 11 05 00 49 13 00 00  .I.<........I...
  00000001400186F0: 12 2E 01 3F 19 03 08 3A 0B 3B 0B 39 0B 27 19 11  ...?...:.;.9.'..
  0000000140018700: 01 12 07 40 18 7A 19 01 13 00 00 13 48 00 7D 01  ...@.z......H.}.
  0000000140018710: 82 01 19 7F 13 00 00 14 48 01 7D 01 82 01 19 7F  ........H.}.....
  0000000140018720: 13 00 00 15 49 00 02 18 7E 18 00 00 00 01 28 00  ....I...~.....(.
  0000000140018730: 03 08 1C 0B 00 00 02 24 00 0B 0B 3E 0B 03 08 00  .......$...>....
  0000000140018740: 00 03 28 00 03 08 1C 05 00 00 04 34 00 03 08 3A  ..(........4...:
  0000000140018750: 21 04 3B 0B 39 0B 49 13 3F 19 3C 19 00 00 05 34  !.;.9.I.?.<....4
  0000000140018760: 00 47 13 3A 21 05 3B 0B 39 0B 02 18 00 00 06 35  .G.:!.;.9......5
  0000000140018770: 00 49 13 00 00 07 04 01 03 08 3E 21 07 0B 21 04  .I........>!..!.
  0000000140018780: 49 13 3A 0B 3B 05 39 0B 01 13 00 00 08 11 01 25  I.:.;.9........%
  0000000140018790: 08 13 0B 03 1F 1B 1F 10 17 00 00 09 04 01 03 08  ................
  00000001400187A0: 3E 0B 0B 0B 49 13 3A 0B 3B 0B 39 0B 01 13 00 00  >...I.:.;.9.....
  00000001400187B0: 0A 04 01 03 0E 3E 0B 0B 0B 49 13 3A 0B 3B 0B 39  .....>...I.:.;.9
  00000001400187C0: 0B 01 13 00 00 0B 16 00 03 0E 3A 0B 3B 0B 39 0B  ..........:.;.9.
  00000001400187D0: 49 13 00 00 0C 0F 00 0B 0B 49 13 00 00 0D 35 00  I........I....5.
  00000001400187E0: 00 00 00 01 11 01 25 08 13 0B 03 1F 1B 1F 10 17  ......%.........
  00000001400187F0: 00 00 02 34 00 03 08 3A 0B 3B 0B 39 0B 49 13 3F  ...4...:.;.9.I.?
  0000000140018800: 19 02 18 00 00 03 24 00 0B 0B 3E 0B 03 08 00 00  ......$...>.....
  0000000140018810: 00 01 24 00 0B 0B 3E 0B 03 08 00 00 02 11 01 25  ..$...>........%
  0000000140018820: 08 13 0B 03 1F 1B 1F 11 01 12 07 10 17 00 00 03  ................
  0000000140018830: 2E 00 3F 19 03 08 3A 0B 3B 0B 39 0B 27 19 49 13  ..?...:.;.9.'.I.
  0000000140018840: 11 01 12 07 40 18 7A 19 00 00 00 01 11 01 25 08  ....@.z.......%.
  0000000140018850: 13 0B 03 1F 1B 1F 10 17 00 00 02 34 00 03 08 3A  ...........4...:
  0000000140018860: 0B 3B 0B 39 0B 49 13 3F 19 02 18 00 00 03 24 00  .;.9.I.?......$.
  0000000140018870: 0B 0B 3E 0B 03 08 00 00 00 01 24 00 0B 0B 3E 0B  ..>.......$...>.
  0000000140018880: 03 08 00 00 02 34 00 03 08 3A 21 01 3B 0B 39 0B  .....4...:!.;.9.
  0000000140018890: 49 13 3F 19 02 18 00 00 03 16 00 03 08 3A 0B 3B  I.?..........:.;
  00000001400188A0: 0B 39 0B 49 13 00 00 04 16 00 03 08 3A 21 05 3B  .9.I........:!.;
  00000001400188B0: 05 39 0B 49 13 00 00 05 05 00 49 13 00 00 06 0D  .9.I......I.....
  00000001400188C0: 00 03 08 3A 21 05 3B 05 39 0B 49 13 38 0B 00 00  ...:!.;.9.I.8...
  00000001400188D0: 07 05 00 31 13 02 17 B7 42 17 00 00 08 0F 00 0B  ...1...B.......
  00000001400188E0: 21 08 49 13 00 00 09 28 00 03 08 1C 0B 00 00 0A  !.I....(........
  00000001400188F0: 05 00 03 0E 3A 21 01 3B 21 89 01 39 0B 49 13 02  ....:!.;!..9.I..
  0000000140018900: 17 B7 42 17 00 00 0B 05 00 03 0E 3A 21 01 3B 21  .B........:!.;!
  0000000140018910: CE 00 39 0B 49 13 00 00 0C 26 00 49 13 00 00 0D  .9.I....&.I....
  0000000140018920: 34 00 03 08 3A 21 01 3B 0B 39 21 24 49 13 02 18  4...:!.;.9!$I...
  0000000140018930: 00 00 0E 48 00 7D 01 82 01 19 7F 13 00 00 0F 34  ...H.}.........4
  0000000140018940: 00 03 08 3A 21 01 3B 0B 39 0B 49 13 00 00 10 34  ...:!.;.9.I....4
  0000000140018950: 00 31 13 00 00 11 34 00 31 13 02 17 B7 42 17 00  .1....4.1...B..
  0000000140018960: 00 12 11 01 25 08 13 0B 03 1F 1B 1F 11 01 12 07  ....%...........
  0000000140018970: 10 17 00 00 13 0F 00 0B 0B 00 00 14 15 00 27 19  ..............'.
  0000000140018980: 00 00 15 04 01 03 08 3E 0B 0B 0B 49 13 3A 0B 3B  .......>...I.:.;
  0000000140018990: 05 39 0B 01 13 00 00 16 15 01 27 19 01 13 00 00  .9........'.....
  00000001400189A0: 17 13 01 03 08 0B 0B 3A 0B 3B 05 39 0B 01 13 00  .......:.;.9....
  00000001400189B0: 00 18 34 00 03 08 3A 0B 3B 0B 39 0B 49 13 3F 19  ..4...:.;.9.I.?.
  00000001400189C0: 3C 19 00 00 19 2E 01 3F 19 03 08 3A 0B 3B 0B 39  <......?...:.;.9
  00000001400189D0: 0B 27 19 49 13 3C 19 01 13 00 00 1A 2E 01 3F 19  .'.I.<........?.
  00000001400189E0: 03 08 3A 0B 3B 0B 39 0B 27 19 11 01 12 07 40 18  ..:.;.9.'.....@.
  00000001400189F0: 7A 19 01 13 00 00 1B 2E 01 3F 19 03 08 3A 0B 3B  z........?...:.;
  0000000140018A00: 0B 39 0B 27 19 49 13 11 01 12 07 40 18 7A 19 01  .9.'.I.....@.z..
  0000000140018A10: 13 00 00 1C 05 00 03 08 3A 0B 3B 0B 39 0B 49 13  ........:.;.9.I.
  0000000140018A20: 02 18 00 00 1D 2E 01 3F 19 03 08 3A 0B 3B 0B 39  .......?...:.;.9
  0000000140018A30: 0B 27 19 20 0B 01 13 00 00 1E 2E 01 31 13 11 01  .'. ........1...
  0000000140018A40: 12 07 40 18 7C 19 00 00 1F 1D 01 31 13 52 01 B8  ..@.|......1.R.
  0000000140018A50: 42 0B 11 01 12 07 58 0B 59 0B 57 0B 01 13 00 00  B.....X.Y.W.....
  0000000140018A60: 00 01 11 01 25 08 13 0B 03 1F 1B 1F 10 17 00 00  ....%...........
  0000000140018A70: 02 34 00 03 08 3A 0B 3B 0B 39 0B 49 13 3F 19 02  .4...:.;.9.I.?..
  0000000140018A80: 18 00 00 03 24 00 0B 0B 3E 0B 03 08 00 00 00 01  ....$...>.......
  0000000140018A90: 24 00 0B 0B 3E 0B 03 08 00 00 02 34 00 03 08 3A  $...>......4...:
  0000000140018AA0: 21 02 3B 0B 39 21 1D 49 13 3F 19 02 18 00 00 03  !.;.9!.I.?......
  0000000140018AB0: 16 00 03 08 3A 21 01 3B 0B 39 0B 49 13 00 00 04  ....:!.;.9.I....
  0000000140018AC0: 0F 00 0B 21 08 49 13 00 00 05 01 01 49 13 01 13  ...!.I......I...
  0000000140018AD0: 00 00 06 21 00 49 13 2F 21 00 00 00 07 11 01 25  ...!.I./!......%
  0000000140018AE0: 08 13 0B 03 1F 1B 1F 10 17 00 00 08 15 00 27 19  ..............'.
  0000000140018AF0: 00 00 09 15 00 27 19 49 13 00 00 00 01 0D 00 03  .....'.I........
  0000000140018B00: 08 3A 0B 3B 0B 39 0B 49 13 38 0B 00 00 02 24 00  .:.;.9.I.8....$.
  0000000140018B10: 0B 0B 3E 0B 03 08 00 00 03 49 00 02 18 7E 18 00  ..>......I...~..
  0000000140018B20: 00 04 0F 00 0B 21 08 49 13 00 00 05 05 00 49 13  .....!.I......I.
  0000000140018B30: 00 00 06 13 01 03 08 0B 0B 3A 0B 3B 0B 39 21 0A  .........:.;.9!.
  0000000140018B40: 01 13 00 00 07 11 01 25 08 13 0B 03 1F 1B 1F 11  .......%........
  0000000140018B50: 01 12 07 10 17 00 00 08 26 00 49 13 00 00 09 16  ........&.I.....
  0000000140018B60: 00 03 08 3A 0B 3B 0B 39 0B 49 13 00 00 0A 2E 01  ...:.;.9.I......
  0000000140018B70: 3F 19 03 08 3A 0B 3B 05 39 0B 27 19 49 13 3C 19  ?...:.;.9.'.I.<.
  0000000140018B80: 01 13 00 00 0B 18 00 00 00 0C 2E 01 3F 19 03 08  ............?...
  0000000140018B90: 3A 0B 3B 0B 39 0B 27 19 49 13 3C 19 01 13 00 00  :.;.9.'.I.<.....
  0000000140018BA0: 0D 2E 01 3F 19 03 08 3A 0B 3B 05 39 0B 27 19 49  ...?...:.;.9.'.I
  0000000140018BB0: 13 11 01 12 07 40 18 7A 19 01 13 00 00 0E 05 00  .....@.z........
  0000000140018BC0: 03 08 3A 0B 3B 0B 39 0B 49 13 02 17 B7 42 17 00  ..:.;.9.I...B..
  0000000140018BD0: 00 0F 34 00 03 08 3A 0B 3B 0B 39 0B 49 13 02 17  ..4...:.;.9.I...
  0000000140018BE0: B7 42 17 00 00 10 48 01 7D 01 7F 13 01 13 00 00  B....H.}.......
  0000000140018BF0: 11 48 01 7D 01 7F 13 00 00 00 01 11 01 25 08 13  .H.}.........%..
  0000000140018C00: 0B 03 1F 1B 1F 11 01 12 07 10 17 00 00 02 2E 00  ................
  0000000140018C10: 3F 19 03 08 3A 0B 3B 0B 39 0B 27 19 11 01 12 07  ?...:.;.9.'.....
  0000000140018C20: 40 18 7A 19 00 00 00 01 11 01 25 08 13 0B 03 1F  @.z.......%.....
  0000000140018C30: 1B 1F 10 17 00 00 02 34 00 03 08 3A 0B 3B 0B 39  .......4...:.;.9
  0000000140018C40: 0B 49 13 3F 19 02 18 00 00 03 24 00 0B 0B 3E 0B  .I.?......$...>.
  0000000140018C50: 03 08 00 00 00 01 28 00 03 08 1C 0B 00 00 02 0D  ......(.........
  0000000140018C60: 00 03 08 3A 21 06 3B 05 39 0B 49 13 38 0B 00 00  ...:!.;.9.I.8...
  0000000140018C70: 03 05 00 31 13 02 17 B7 42 17 00 00 04 49 00 02  ...1...B....I..
  0000000140018C80: 18 7E 18 00 00 05 0D 00 03 08 3A 0B 3B 0B 39 0B  .~........:.;.9.
  0000000140018C90: 49 13 38 0B 00 00 06 16 00 03 08 3A 0B 3B 0B 39  I.8........:.;.9
  0000000140018CA0: 0B 49 13 00 00 07 24 00 0B 0B 3E 0B 03 08 00 00  .I....$...>.....
  0000000140018CB0: 08 05 00 49 13 00 00 09 0F 00 0B 21 08 49 13 00  ...I.......!.I..
  0000000140018CC0: 00 0A 34 00 31 13 02 17 B7 42 17 00 00 0B 48 01  ..4.1...B....H.
  0000000140018CD0: 7D 01 7F 13 00 00 0C 34 00 03 08 3A 21 01 3B 05  }......4...:!.;.
  0000000140018CE0: 39 0B 49 13 00 00 0D 48 01 7D 01 7F 13 01 13 00  9.I....H.}......
  0000000140018CF0: 00 0E 28 00 03 08 1C 05 00 00 0F 16 00 03 08 3A  ..(............:
  0000000140018D00: 21 06 3B 05 39 0B 49 13 00 00 10 05 00 03 08 3A  !.;.9.I........:
  0000000140018D10: 21 01 3B 05 39 0B 49 13 00 00 11 2E 01 3F 19 03  !.;.9.I......?..
  0000000140018D20: 08 3A 0B 3B 0B 39 0B 27 19 49 13 3C 19 01 13 00  .:.;.9.'.I.<....
  0000000140018D30: 00 12 1D 01 31 13 52 01 B8 42 0B 11 01 12 07 58  ....1.R.B.....X
  0000000140018D40: 21 01 59 05 57 0B 00 00 13 34 00 03 08 3A 21 01  !.Y.W....4...:!.
  0000000140018D50: 3B 0B 39 0B 49 13 02 18 00 00 14 48 00 7D 01 7F  ;.9.I......H.}..
  0000000140018D60: 13 00 00 15 13 01 03 08 0B 0B 3A 21 06 3B 05 39  ..........:!.;.9
  0000000140018D70: 21 14 01 13 00 00 16 01 01 49 13 01 13 00 00 17  !........I......
  0000000140018D80: 21 00 49 13 2F 0B 00 00 18 34 00 03 08 3A 21 01  !.I./....4...:!.
  0000000140018D90: 3B 0B 39 0B 49 13 3F 19 3C 19 00 00 19 13 01 0B  ;.9.I.?.<.......
  0000000140018DA0: 0B 3A 21 01 3B 0B 39 21 09 01 13 00 00 1A 2E 00  .:!.;.9!........
  0000000140018DB0: 3F 19 03 08 3A 0B 3B 0B 39 0B 27 19 49 13 3C 19  ?...:.;.9.'.I.<.
  0000000140018DC0: 00 00 1B 05 00 31 13 00 00 1C 1D 01 31 13 52 01  .....1......1.R.
  0000000140018DD0: B8 42 0B 11 01 12 07 58 21 01 59 05 57 21 0C 01  B.....X!.Y.W!..
  0000000140018DE0: 13 00 00 1D 34 00 03 08 3A 21 01 3B 0B 39 0B 49  ....4...:!.;.9.I
  0000000140018DF0: 13 02 17 B7 42 17 00 00 1E 0F 00 0B 21 08 03 08  ...B.......!...
  0000000140018E00: 49 13 00 00 1F 04 01 03 08 3E 21 07 0B 21 04 49  I........>!..!.I
  0000000140018E10: 13 3A 0B 3B 05 39 0B 01 13 00 00 20 0D 00 03 08  .:.;.9..... ....
  0000000140018E20: 3A 21 06 3B 05 39 21 08 49 13 00 00 21 1D 01 31  :!.;.9!.I...!..1
  0000000140018E30: 13 52 01 B8 42 0B 55 17 58 21 01 59 05 57 0B 01  .R.B.U.X!.Y.W..
  0000000140018E40: 13 00 00 22 0B 01 31 13 55 17 01 13 00 00 23 2E  ..."..1.U.....#.
  0000000140018E50: 01 03 08 3A 21 01 3B 05 39 21 01 27 19 20 21 01  ...:!.;.9!.'. !.
  0000000140018E60: 01 13 00 00 24 0B 01 00 00 25 34 00 03 08 3A 21  ....$....%4...:!
  0000000140018E70: 01 3B 0B 39 0B 49 13 00 00 26 05 00 03 08 3A 21  .;.9.I...&....:!
  0000000140018E80: 01 3B 0B 39 0B 49 13 02 17 B7 42 17 00 00 27 11  .;.9.I...B...'.
  0000000140018E90: 01 25 08 13 0B 03 1F 1B 1F 11 01 12 07 10 17 00  .%..............
  0000000140018EA0: 00 28 26 00 49 13 00 00 29 0F 00 0B 0B 00 00 2A  .(&.I...)......*
  0000000140018EB0: 26 00 00 00 2B 17 01 0B 0B 3A 0B 3B 05 39 0B 01  &...+....:.;.9..
  0000000140018EC0: 13 00 00 2C 04 01 03 08 3E 0B 0B 0B 49 13 3A 0B  ...,....>...I.:.
  0000000140018ED0: 3B 0B 39 0B 01 13 00 00 2D 13 01 03 08 0B 0B 3A  ;.9.....-......:
  0000000140018EE0: 0B 3B 0B 39 0B 01 13 00 00 2E 13 01 03 0E 0B 0B  .;.9............
  0000000140018EF0: 3A 0B 3B 0B 39 0B 01 13 00 00 2F 16 00 03 0E 3A  :.;.9...../....:
  0000000140018F00: 0B 3B 0B 39 0B 49 13 00 00 30 2E 00 3F 19 03 08  .;.9.I...0..?...
  0000000140018F10: 3A 0B 3B 05 39 0B 27 19 87 01 19 3C 19 00 00 31  :.;.9.'....<...1
  0000000140018F20: 2E 01 3F 19 03 08 3A 0B 3B 05 39 0B 27 19 49 13  ..?...:.;.9.'.I.
  0000000140018F30: 3C 19 01 13 00 00 32 2E 01 3F 19 03 08 3A 0B 3B  <.....2..?...:.;
  0000000140018F40: 05 39 0B 27 19 11 01 12 07 40 18 7A 19 01 13 00  .9.'.....@.z....
  0000000140018F50: 00 33 34 00 03 08 3A 0B 3B 05 39 0B 49 13 02 18  .34...:.;.9.I...
  0000000140018F60: 00 00 34 34 00 03 08 3A 0B 3B 05 39 0B 49 13 02  ..44...:.;.9.I..
  0000000140018F70: 17 B7 42 17 00 00 35 0B 01 55 17 00 00 36 1D 01  .B...5..U...6..
  0000000140018F80: 31 13 52 01 B8 42 0B 55 17 58 0B 59 05 57 0B 00  1.R.B.U.X.Y.W..
  0000000140018F90: 00 37 0B 01 31 13 55 17 00 00 38 1D 01 31 13 11  .7..1.U...8..1..
  0000000140018FA0: 01 12 07 58 0B 59 05 57 0B 01 13 00 00 39 34 00  ...X.Y.W.....94.
  0000000140018FB0: 31 13 02 18 00 00 3A 0B 01 01 13 00 00 3B 2E 01  1.....:......;..
  0000000140018FC0: 03 08 3A 0B 3B 0B 39 0B 27 19 20 0B 01 13 00 00  ..:.;.9.'. .....
  0000000140018FD0: 3C 2E 01 03 08 3A 0B 3B 0B 39 0B 27 19 11 01 12  <....:.;.9.'....
  0000000140018FE0: 07 40 18 7A 19 01 13 00 00 3D 0B 01 11 01 12 07  .@.z.....=......
  0000000140018FF0: 01 13 00 00 3E 2E 01 03 08 3A 0B 3B 0B 39 0B 27  ....>....:.;.9.'
  0000000140019000: 19 87 01 19 11 01 12 07 40 18 7A 19 01 13 00 00  ........@.z.....
  0000000140019010: 3F 18 00 00 00 40 2E 00 3F 19 3C 19 6E 08 03 08  ?....@..?.<.n...
  0000000140019020: 3A 0B 3B 0B 00 00 00 01 24 00 0B 0B 3E 0B 03 08  :.;.....$...>...
  0000000140019030: 00 00 02 0D 00 03 08 3A 21 02 3B 0B 39 0B 49 13  .......:!.;.9.I.
  0000000140019040: 38 0B 00 00 03 05 00 03 08 3A 21 01 3B 0B 39 0B  8........:!.;.9.
  0000000140019050: 49 13 02 17 B7 42 17 00 00 04 0F 00 0B 21 08 49  I...B.......!.I
  0000000140019060: 13 00 00 05 05 00 49 13 00 00 06 34 00 03 08 3A  ......I....4...:
  0000000140019070: 21 01 3B 0B 39 21 15 49 13 02 18 00 00 07 49 00  !.;.9!.I......I.
  0000000140019080: 02 18 7E 18 00 00 08 11 01 25 08 13 0B 03 1F 1B  ..~......%......
  0000000140019090: 1F 11 01 12 07 10 17 00 00 09 26 00 49 13 00 00  ..........&.I...
  00000001400190A0: 0A 13 01 03 08 0B 0B 3A 0B 3B 0B 39 0B 01 13 00  .......:.;.9....
  00000001400190B0: 00 0B 16 00 03 08 3A 0B 3B 0B 39 0B 49 13 00 00  ......:.;.9.I...
  00000001400190C0: 0C 15 01 27 19 49 13 01 13 00 00 0D 2E 01 3F 19  ...'.I........?.
  00000001400190D0: 03 08 3A 0B 3B 0B 39 0B 27 19 3C 19 01 13 00 00  ..:.;.9.'.<.....
  00000001400190E0: 0E 2E 01 3F 19 03 08 3A 0B 3B 0B 39 0B 27 19 11  ...?...:.;.9.'..
  00000001400190F0: 01 12 07 40 18 7A 19 01 13 00 00 0F 48 01 7D 01  ...@.z......H.}.
  0000000140019100: 82 01 19 7F 13 00 00 10 2E 01 3F 19 03 08 3A 0B  ..........?...:.
  0000000140019110: 3B 0B 39 0B 27 19 11 01 12 07 40 18 7A 19 00 00  ;.9.'.....@.z...
  0000000140019120: 11 05 00 03 08 3A 0B 3B 0B 39 0B 49 13 02 18 00  .....:.;.9.I....
  0000000140019130: 00 12 48 01 7D 01 00 00 00 01 11 01 25 08 13 0B  ..H.}.......%...
  0000000140019140: 03 1F 1B 1F 10 17 00 00 02 34 00 03 08 3A 0B 3B  .........4...:.;
  0000000140019150: 0B 39 0B 49 13 3F 19 02 18 00 00 03 24 00 0B 0B  .9.I.?......$...
  0000000140019160: 3E 0B 03 08 00 00 00 01 0D 00 03 08 3A 21 02 3B  >...........:!.;
  0000000140019170: 05 39 0B 49 13 38 0B 00 00 02 28 00 03 08 1C 0B  .9.I.8....(.....
  0000000140019180: 00 00 03 49 00 02 18 7E 18 00 00 04 24 00 0B 0B  ...I...~....$...
  0000000140019190: 3E 0B 03 08 00 00 05 0D 00 03 08 3A 21 02 3B 05  >..........:!.;.
  00000001400191A0: 39 0B 49 13 88 01 21 10 38 05 00 00 06 0D 00 03  9.I...!.8.......
  00000001400191B0: 08 3A 21 02 3B 05 39 0B 49 13 88 01 21 10 38 0B  .:!.;.9.I...!.8.
  00000001400191C0: 00 00 07 16 00 03 08 3A 0B 3B 0B 39 0B 49 13 00  .......:.;.9.I..
  00000001400191D0: 00 08 16 00 03 08 3A 21 02 3B 05 39 0B 49 13 00  ......:!.;.9.I..
  00000001400191E0: 00 09 28 00 03 08 1C 05 00 00 0A 48 01 7D 01 7F  ..(........H.}..
  00000001400191F0: 13 01 13 00 00 0B 0F 00 0B 21 08 49 13 00 00 0C  .........!.I....
  0000000140019200: 0D 00 03 08 3A 21 02 3B 05 39 0B 49 13 38 05 00  ....:!.;.9.I.8..
  0000000140019210: 00 0D 21 00 49 13 2F 0B 00 00 0E 05 00 49 13 00  ..!.I./......I..
  0000000140019220: 00 0F 01 01 49 13 88 01 21 10 01 13 00 00 10 34  ....I...!......4
  0000000140019230: 00 03 08 3A 21 01 3B 0B 39 0B 49 13 02 17 B7 42  ...:!.;.9.I...B
  0000000140019240: 17 00 00 11 48 01 7D 01 01 13 00 00 12 13 01 03  ....H.}.........
  0000000140019250: 08 0B 0B 3A 21 02 3B 05 39 21 14 01 13 00 00 13  ...:!.;.9!......
  0000000140019260: 0D 00 03 0E 3A 21 02 3B 05 39 0B 49 13 38 0B 00  ....:!.;.9.I.8..
  0000000140019270: 00 14 13 01 03 08 0B 05 88 01 21 10 3A 21 02 3B  ..........!.:!.;
  0000000140019280: 05 39 0B 01 13 00 00 15 16 00 03 08 3A 21 02 3B  .9..........:!.;
  0000000140019290: 05 39 0B 49 13 88 01 21 10 00 00 16 01 01 49 13  .9.I...!......I.
  00000001400192A0: 01 13 00 00 17 0D 00 03 08 3A 21 02 3B 05 39 21  .........:!.;.9!
  00000001400192B0: 17 49 13 88 01 21 10 00 00 18 04 01 03 08 3E 21  .I...!........>!
  00000001400192C0: 07 0B 21 04 49 13 3A 0B 3B 05 39 0B 01 13 00 00  ..!.I.:.;.9.....
  00000001400192D0: 19 11 01 25 08 13 0B 03 1F 1B 1F 11 01 12 07 10  ...%............
  00000001400192E0: 17 00 00 1A 15 01 27 19 01 13 00 00 1B 0F 00 0B  ......'.........
  00000001400192F0: 0B 00 00 1C 0D 00 49 13 88 01 0B 38 05 00 00 1D  ......I....8....
  0000000140019300: 13 01 03 08 0B 0B 88 01 0B 3A 0B 3B 05 39 0B 01  .........:.;.9..
  0000000140019310: 13 00 00 1E 13 01 0B 05 88 01 0B 3A 0B 3B 05 39  ...........:.;.9
  0000000140019320: 0B 89 01 19 01 13 00 00 1F 17 01 0B 05 88 01 0B  ................
  0000000140019330: 3A 0B 3B 05 39 0B 89 01 19 01 13 00 00 20 0D 00  :.;.9........ ..
  0000000140019340: 49 13 88 01 0B 00 00 21 15 01 27 19 49 13 01 13  I......!..'.I...
  0000000140019350: 00 00 22 04 01 03 08 3E 0B 0B 0B 49 13 3A 0B 3B  .."....>...I.:.;
  0000000140019360: 0B 39 0B 01 13 00 00 23 34 00 03 08 3A 0B 3B 0B  .9.....#4...:.;.
  0000000140019370: 39 0B 49 13 3F 19 02 18 00 00 24 2E 00 3F 19 03  9.I.?.....$..?..
  0000000140019380: 08 3A 0B 3B 0B 39 0B 27 19 3C 19 00 00 25 2E 01  .:.;.9.'.<...%..
  0000000140019390: 3F 19 03 08 3A 0B 3B 0B 39 0B 27 19 49 13 3C 19  ?...:.;.9.'.I.<.
  00000001400193A0: 01 13 00 00 26 2E 01 3F 19 03 08 3A 0B 3B 0B 39  ....&..?...:.;.9
  00000001400193B0: 0B 27 19 49 13 11 01 12 07 40 18 7A 19 01 13 00  .'.I.....@.z....
  00000001400193C0: 00 27 05 00 03 08 3A 0B 3B 0B 39 0B 49 13 02 17  .'....:.;.9.I...
  00000001400193D0: B7 42 17 00 00 28 48 01 7D 01 82 01 19 01 13 00  B...(H.}.......
  00000001400193E0: 00 29 48 00 7D 01 7F 13 00 00 00 01 0D 00 03 08  .)H.}...........
  00000001400193F0: 3A 21 04 3B 05 39 0B 49 13 38 0B 00 00 02 24 00  :!.;.9.I.8....$.
  0000000140019400: 0B 0B 3E 0B 03 08 00 00 03 49 00 02 18 7E 18 00  ..>......I...~..
  0000000140019410: 00 04 05 00 49 13 00 00 05 16 00 03 08 3A 0B 3B  ....I........:.;
  0000000140019420: 0B 39 0B 49 13 00 00 06 48 00 7D 01 7F 13 00 00  .9.I....H.}.....
  0000000140019430: 07 16 00 03 08 3A 21 04 3B 05 39 0B 49 13 00 00  .....:!.;.9.I...
  0000000140019440: 08 0F 00 0B 21 08 49 13 00 00 09 05 00 03 08 3A  ....!.I........:
  0000000140019450: 21 01 3B 0B 39 0B 49 13 02 17 B7 42 17 00 00 0A  !.;.9.I...B....
  0000000140019460: 34 00 03 08 3A 21 01 3B 0B 39 0B 49 13 02 17 B7  4...:!.;.9.I...
  0000000140019470: 42 17 00 00 0B 28 00 03 08 1C 0B 00 00 0C 2E 01  B....(..........
  0000000140019480: 3F 19 03 08 3A 21 06 3B 0B 39 21 1A 27 19 3C 19  ?...:!.;.9!.'.<.
  0000000140019490: 01 13 00 00 0D 48 01 7D 01 7F 13 00 00 0E 48 01  .....H.}......H.
  00000001400194A0: 7D 01 7F 13 01 13 00 00 0F 13 01 03 08 0B 0B 3A  }..............:
  00000001400194B0: 21 04 3B 05 39 0B 01 13 00 00 10 34 00 03 08 3A  !.;.9......4...:
  00000001400194C0: 21 01 3B 0B 39 0B 49 13 02 18 00 00 11 0D 00 03  !.;.9.I.........
  00000001400194D0: 08 3A 21 01 3B 0B 39 0B 49 13 38 0B 00 00 12 2E  .:!.;.9.I.8.....
  00000001400194E0: 01 3F 19 03 08 3A 21 01 3B 0B 39 21 01 27 19 49  .?...:!.;.9!.'.I
  00000001400194F0: 13 11 01 12 07 40 18 7A 19 01 13 00 00 13 35 00  .....@.z......5.
  0000000140019500: 49 13 00 00 14 2E 01 3F 19 03 08 3A 0B 3B 05 39  I......?...:.;.9
  0000000140019510: 0B 27 19 49 13 3C 19 01 13 00 00 15 34 00 31 13  .'.I.<......4.1.
  0000000140019520: 00 00 16 34 00 03 08 3A 21 01 3B 0B 39 0B 49 13  ...4...:!.;.9.I.
  0000000140019530: 00 00 17 34 00 31 13 02 17 B7 42 17 00 00 18 11  ...4.1...B.....
  0000000140019540: 01 25 08 13 0B 03 1F 1B 1F 11 01 12 07 10 17 00  .%..............
  0000000140019550: 00 19 0F 00 0B 0B 00 00 1A 04 01 03 08 3E 0B 0B  .............>..
  0000000140019560: 0B 49 13 3A 0B 3B 05 39 0B 01 13 00 00 1B 15 01  .I.:.;.9........
  0000000140019570: 27 19 01 13 00 00 1C 13 01 03 08 0B 0B 3A 0B 3B  '............:.;
  0000000140019580: 0B 39 0B 01 13 00 00 1D 2E 00 3F 19 03 08 3A 0B  .9........?...:.
  0000000140019590: 3B 0B 39 0B 27 19 49 13 3C 19 00 00 1E 2E 00 3F  ;.9.'.I.<......?
  00000001400195A0: 19 03 08 3A 0B 3B 0B 39 0B 27 19 3C 19 00 00 1F  ...:.;.9.'.<....
  00000001400195B0: 2E 01 3F 19 03 08 3A 0B 3B 05 39 0B 27 19 3C 19  ..?...:.;.9.'.<.
  00000001400195C0: 01 13 00 00 20 0B 01 11 01 12 07 01 13 00 00 21  .... ..........!
  00000001400195D0: 1D 01 31 13 52 01 B8 42 0B 11 01 12 07 58 0B 59  ..1.R.B.....X.Y
  00000001400195E0: 0B 57 0B 01 13 00 00 22 1D 01 31 13 52 01 B8 42  .W....."..1.R.B
  00000001400195F0: 0B 55 17 58 0B 59 0B 57 0B 01 13 00 00 23 0B 01  .U.X.Y.W.....#..
  0000000140019600: 55 17 00 00 24 2E 01 03 08 3A 0B 3B 0B 39 0B 27  U...$....:.;.9.'
  0000000140019610: 19 20 0B 01 13 00 00 25 0B 01 00 00 26 2E 01 31  . .....%....&..1
  0000000140019620: 13 11 01 12 07 40 18 7A 19 00 00 27 0B 01 31 13  .....@.z...'..1.
  0000000140019630: 11 01 12 07 01 13 00 00 28 48 01 7D 01 00 00 29  ........(H.}...)
  0000000140019640: 48 01 7D 01 82 01 19 7F 13 00 00 00 01 11 01 25  H.}............%
  0000000140019650: 08 13 0B 03 1F 1B 1F 10 17 00 00 02 34 00 03 08  ............4...
  0000000140019660: 3A 0B 3B 0B 39 0B 49 13 3F 19 02 18 00 00 03 24  :.;.9.I.?......$
  0000000140019670: 00 0B 0B 3E 0B 03 08 00 00 00 01 34 00 03 08 3A  ...>.......4...:
  0000000140019680: 21 01 3B 0B 39 21 06 49 13 3F 19 02 18 00 00 02  !.;.9!.I.?......
  0000000140019690: 11 01 25 08 13 0B 03 1F 1B 1F 10 17 00 00 03 24  ..%............$
  00000001400196A0: 00 0B 0B 3E 0B 03 08 00 00 00 01 0D 00 03 08 3A  ...>...........:
  00000001400196B0: 21 05 3B 05 39 0B 49 13 38 0B 00 00 02 34 00 31  !.;.9.I.8....4.1
  00000001400196C0: 13 00 00 03 34 00 31 13 02 17 B7 42 17 00 00 04  ....4.1...B....
  00000001400196D0: 05 00 31 13 00 00 05 24 00 0B 0B 3E 0B 03 08 00  ..1....$...>....
  00000001400196E0: 00 06 0B 01 55 17 00 00 07 16 00 03 08 3A 21 05  ....U........:!.
  00000001400196F0: 3B 05 39 0B 49 13 00 00 08 34 00 03 0E 3A 21 01  ;.9.I....4...:!.
  0000000140019700: 3B 0B 39 0B 49 13 00 00 09 1D 01 31 13 52 01 B8  ;.9.I......1.R.
  0000000140019710: 42 0B 55 17 58 21 01 59 0B 57 0B 00 00 0A 16 00  B.U.X!.Y.W......
  0000000140019720: 03 08 3A 0B 3B 0B 39 0B 49 13 00 00 0B 34 00 03  ..:.;.9.I....4..
  0000000140019730: 0E 3A 21 01 3B 0B 39 0B 49 13 02 17 B7 42 17 00  .:!.;.9.I...B..
  0000000140019740: 00 0C 0F 00 0B 21 08 49 13 00 00 0D 2E 01 3F 19  .....!.I......?.
  0000000140019750: 03 08 3A 21 01 3B 0B 39 21 01 27 19 49 13 11 01  ..:!.;.9!.'.I...
  0000000140019760: 12 07 40 18 7A 19 01 13 00 00 0E 13 01 03 08 0B  ..@.z...........
  0000000140019770: 0B 3A 21 05 3B 05 39 21 14 01 13 00 00 0F 0D 00  .:!.;.9!........
  0000000140019780: 03 0E 3A 21 05 3B 05 39 0B 49 13 38 0B 00 00 10  ..:!.;.9.I.8....
  0000000140019790: 05 00 31 13 02 17 B7 42 17 00 00 11 05 00 03 08  ..1...B........
  00000001400197A0: 3A 21 01 3B 0B 39 0B 49 13 02 17 B7 42 17 00 00  :!.;.9.I...B...
  00000001400197B0: 12 01 01 49 13 01 13 00 00 13 21 00 49 13 2F 0B  ...I......!.I./.
  00000001400197C0: 00 00 14 05 00 49 13 00 00 15 34 00 03 08 3A 21  .....I....4...:!
  00000001400197D0: 01 3B 0B 39 0B 49 13 02 17 B7 42 17 00 00 16 1D  .;.9.I...B.....
  00000001400197E0: 01 31 13 52 01 B8 42 0B 55 17 58 21 01 59 0B 57  .1.R.B.U.X!.Y.W
  00000001400197F0: 21 09 01 13 00 00 17 49 00 02 18 7E 18 00 00 18  !......I...~....
  0000000140019800: 0D 00 03 08 3A 21 05 3B 05 39 21 08 49 13 00 00  ....:!.;.9!.I...
  0000000140019810: 19 1D 01 31 13 52 01 B8 42 0B 11 01 12 07 58 21  ...1.R.B.....X!
  0000000140019820: 01 59 0B 57 0B 00 00 1A 2E 01 3F 19 03 08 3A 21  .Y.W......?...:!
  0000000140019830: 06 3B 0B 39 0B 27 19 49 13 3C 19 01 13 00 00 1B  .;.9.'.I.<......
  0000000140019840: 2E 01 3F 19 03 08 3A 21 01 3B 0B 39 21 01 27 19  ..?...:!.;.9!.'.
  0000000140019850: 49 13 20 21 01 01 13 00 00 1C 05 00 03 0E 3A 21  I. !..........:!
  0000000140019860: 01 3B 0B 39 0B 49 13 00 00 1D 34 00 03 08 3A 21  .;.9.I....4...:!
  0000000140019870: 01 3B 0B 39 0B 49 13 00 00 1E 11 01 25 08 13 0B  .;.9.I......%...
  0000000140019880: 03 1F 1B 1F 11 01 12 07 10 17 00 00 1F 26 00 49  .............&.I
  0000000140019890: 13 00 00 20 0F 00 0B 0B 00 00 21 13 01 03 08 0B  ... ......!.....
  00000001400198A0: 05 3A 0B 3B 05 39 0B 01 13 00 00 22 17 01 0B 0B  .:.;.9....."....
  00000001400198B0: 3A 0B 3B 05 39 0B 01 13 00 00 23 17 01 0B 0B 3A  :.;.9.....#....:
  00000001400198C0: 0B 3B 05 39 0B 89 01 19 01 13 00 00 24 0D 00 03  .;.9........$...
  00000001400198D0: 0E 3A 0B 3B 05 39 0B 49 13 00 00 25 0D 00 49 13  .:.;.9.I...%..I.
  00000001400198E0: 38 0B 00 00 26 34 00 03 08 3A 0B 3B 0B 39 0B 49  8...&4...:.;.9.I
  00000001400198F0: 13 3F 19 3C 19 00 00 27 48 01 7D 01 7F 13 01 13  .?.<...'H.}.....
  0000000140019900: 00 00 28 48 01 7D 01 7F 13 00 00 29 05 00 03 08  ..(H.}.....)....
  0000000140019910: 3A 0B 3B 0B 39 0B 49 13 00 00 2A 2E 01 31 13 11  :.;.9.I...*..1..
  0000000140019920: 01 12 07 40 18 7A 19 01 13 00 00 2B 2E 01 31 13  ...@.z.....+..1.
  0000000140019930: 11 01 12 07 40 18 7A 19 00 00 2C 05 00 31 13 02  ....@.z...,..1..
  0000000140019940: 18 00 00 00 01 11 01 25 08 13 0B 03 1F 1B 1F 10  .......%........
  0000000140019950: 17 00 00 02 34 00 03 08 3A 0B 3B 0B 39 0B 49 13  ....4...:.;.9.I.
  0000000140019960: 3F 19 02 18 00 00 03 24 00 0B 0B 3E 0B 03 08 00  ?......$...>....
  0000000140019970: 00 00 01 24 00 0B 0B 3E 0B 03 08 00 00 02 0F 00  ...$...>........
  0000000140019980: 0B 21 08 49 13 00 00 03 05 00 49 13 00 00 04 05  .!.I......I.....
  0000000140019990: 00 03 08 3A 21 01 3B 21 09 39 0B 49 13 02 17 B7  ...:!.;!.9.I...
  00000001400199A0: 42 17 00 00 05 34 00 03 08 3A 21 01 3B 0B 39 0B  B....4...:!.;.9.
  00000001400199B0: 49 13 02 17 B7 42 17 00 00 06 11 01 25 08 13 0B  I...B......%...
  00000001400199C0: 03 1F 1B 1F 11 01 12 07 10 17 00 00 07 16 00 03  ................
  00000001400199D0: 08 3A 0B 3B 0B 39 0B 49 13 00 00 08 15 00 27 19  .:.;.9.I......'.
  00000001400199E0: 49 13 00 00 09 15 01 27 19 49 13 01 13 00 00 0A  I......'.I......
  00000001400199F0: 34 00 03 08 3A 0B 3B 0B 39 0B 49 13 3F 19 02 18  4...:.;.9.I.?...
  0000000140019A00: 00 00 0B 2E 01 3F 19 03 08 3A 0B 3B 0B 39 0B 27  .....?...:.;.9.'
  0000000140019A10: 19 49 13 11 01 12 07 40 18 7C 19 00 00 00 01 24  .I.....@.|.....$
  0000000140019A20: 00 0B 0B 3E 0B 03 08 00 00 02 0F 00 0B 21 08 49  ...>.........!.I
  0000000140019A30: 13 00 00 03 11 01 25 08 13 0B 03 1F 1B 1F 11 01  ......%.........
  0000000140019A40: 12 07 10 17 00 00 04 34 00 03 08 3A 0B 3B 0B 39  .......4...:.;.9
  0000000140019A50: 0B 49 13 3F 19 3C 19 00 00 05 15 00 27 19 49 13  .I.?.<......'.I.
  0000000140019A60: 00 00 06 34 00 03 08 3A 0B 3B 0B 39 0B 49 13 3F  ...4...:.;.9.I.?
  0000000140019A70: 19 02 18 00 00 07 2E 00 3F 19 03 08 3A 0B 3B 0B  ........?...:.;.
  0000000140019A80: 39 0B 27 19 49 13 11 01 12 07 40 18 7A 19 00 00  9.'.I.....@.z...
  0000000140019A90: 00 01 24 00 0B 0B 3E 0B 03 08 00 00 02 0F 00 0B  ..$...>.........
  0000000140019AA0: 21 08 49 13 00 00 03 11 01 25 08 13 0B 03 1F 1B  !.I......%......
  0000000140019AB0: 1F 11 01 12 07 10 17 00 00 04 34 00 03 08 3A 0B  ..........4...:.
  0000000140019AC0: 3B 0B 39 0B 49 13 3F 19 3C 19 00 00 05 15 00 27  ;.9.I.?.<......'
  0000000140019AD0: 19 49 13 00 00 06 34 00 03 08 3A 0B 3B 0B 39 0B  .I....4...:.;.9.
  0000000140019AE0: 49 13 3F 19 02 18 00 00 07 2E 00 3F 19 03 08 3A  I.?........?...:
  0000000140019AF0: 0B 3B 0B 39 0B 27 19 49 13 11 01 12 07 40 18 7A  .;.9.'.I.....@.z
  0000000140019B00: 19 00 00 00 01 0F 00 0B 21 08 49 13 00 00 02 11  ........!.I.....
  0000000140019B10: 01 25 08 13 0B 03 1F 1B 1F 11 01 12 07 10 17 00  .%..............
  0000000140019B20: 00 03 24 00 0B 0B 3E 0B 03 08 00 00 04 34 00 03  ..$...>......4..
  0000000140019B30: 08 3A 0B 3B 0B 39 0B 49 13 3F 19 3C 19 00 00 05  .:.;.9.I.?.<....
  0000000140019B40: 15 00 27 19 49 13 00 00 06 34 00 03 08 3A 0B 3B  ..'.I....4...:.;
  0000000140019B50: 0B 39 0B 49 13 3F 19 02 18 00 00 07 2E 00 3F 19  .9.I.?........?.
  0000000140019B60: 03 08 3A 0B 3B 0B 39 0B 27 19 49 13 11 01 12 07  ..:.;.9.'.I.....
  0000000140019B70: 40 18 7A 19 00 00 00 01 28 00 03 08 1C 0B 00 00  @.z.....(.......
  0000000140019B80: 02 24 00 0B 0B 3E 0B 03 08 00 00 03 28 00 03 08  .$...>......(...
  0000000140019B90: 1C 05 00 00 04 05 00 49 13 00 00 05 0F 00 0B 21  .......I.......!
  0000000140019BA0: 08 49 13 00 00 06 16 00 03 08 3A 0B 3B 0B 39 0B  .I........:.;.9.
  0000000140019BB0: 49 13 00 00 07 04 01 03 08 3E 21 07 0B 21 04 49  I........>!..!.I
  0000000140019BC0: 13 3A 0B 3B 05 39 0B 01 13 00 00 08 34 00 03 08  .:.;.9......4...
  0000000140019BD0: 3A 21 01 3B 0B 39 21 26 49 13 3F 19 02 18 00 00  :!.;.9!&I.?.....
  0000000140019BE0: 09 05 00 31 13 02 17 B7 42 17 00 00 0A 05 00 03  ...1...B.......
  0000000140019BF0: 08 3A 21 02 3B 21 EB 0D 39 0B 49 13 00 00 0B 11  .:!.;!.9.I.....
  0000000140019C00: 01 25 08 13 0B 03 1F 1B 1F 11 01 12 07 10 17 00  .%..............
  0000000140019C10: 00 0C 26 00 49 13 00 00 0D 0F 00 0B 0B 00 00 0E  ..&.I...........
  0000000140019C20: 35 00 49 13 00 00 0F 15 01 27 19 01 13 00 00 10  5.I......'......
  0000000140019C30: 04 01 03 08 3E 0B 0B 0B 49 13 3A 0B 3B 0B 39 0B  ....>...I.:.;.9.
  0000000140019C40: 01 13 00 00 11 34 00 03 08 3A 0B 3B 0B 39 0B 49  .....4...:.;.9.I
  0000000140019C50: 13 02 18 00 00 12 15 01 27 19 49 13 01 13 00 00  ........'.I.....
  0000000140019C60: 13 15 00 27 19 49 13 00 00 14 2E 00 03 08 3A 0B  ...'.I........:.
  0000000140019C70: 3B 0B 39 0B 27 19 49 13 11 01 12 07 40 18 7A 19  ;.9.'.I.....@.z.
  0000000140019C80: 00 00 15 2E 01 03 08 3A 0B 3B 0B 39 0B 27 19 49  .......:.;.9.'.I
  0000000140019C90: 13 11 01 12 07 40 18 7A 19 01 13 00 00 16 05 00  .....@.z........
  0000000140019CA0: 03 08 3A 0B 3B 0B 39 0B 49 13 02 18 00 00 17 1D  ..:.;.9.I.......
  0000000140019CB0: 01 31 13 52 01 B8 42 0B 11 01 12 07 58 0B 59 0B  .1.R.B.....X.Y.
  0000000140019CC0: 57 0B 00 00 18 2E 01 3F 19 03 08 3A 0B 3B 05 39  W......?...:.;.9
  0000000140019CD0: 0B 27 19 49 13 20 0B 01 13 00 00 00 01 24 00 0B  .'.I. .......$..
  0000000140019CE0: 0B 3E 0B 03 08 00 00 02 0D 00 03 08 3A 21 02 3B  .>..........:!.;
  0000000140019CF0: 0B 39 0B 49 13 38 0B 00 00 03 0F 00 0B 21 08 49  .9.I.8.......!.I
  0000000140019D00: 13 00 00 04 16 00 03 08 3A 0B 3B 0B 39 21 19 49  ........:.;.9!.I
  0000000140019D10: 13 00 00 05 11 01 25 08 13 0B 03 1F 1B 1F 11 01  ......%.........
  0000000140019D20: 12 07 10 17 00 00 06 13 01 03 08 0B 0B 3A 0B 3B  .............:.;
  0000000140019D30: 0B 39 0B 01 13 00 00 07 15 01 27 19 49 13 01 13  .9........'.I...
  0000000140019D40: 00 00 08 05 00 49 13 00 00 09 34 00 03 08 3A 0B  .....I....4...:.
  0000000140019D50: 3B 0B 39 0B 49 13 3F 19 02 18 00 00 0A 2E 00 3F  ;.9.I.?........?
  0000000140019D60: 19 03 08 3A 0B 3B 0B 39 0B 27 19 49 13 3C 19 00  ...:.;.9.'.I.<..
  0000000140019D70: 00 0B 2E 01 3F 19 03 08 3A 0B 3B 0B 39 0B 27 19  ....?...:.;.9.'.
  0000000140019D80: 49 13 11 01 12 07 40 18 7A 19 00 00 0C 05 00 03  I.....@.z.......
  0000000140019D90: 08 3A 0B 3B 0B 39 0B 49 13 02 17 B7 42 17 00 00  .:.;.9.I...B...
  0000000140019DA0: 0D 48 00 7D 01 7F 13 00 00 00                    .H.}......

RAW DATA #F
  000000014001A000: 52 04 00 00 05 00 08 00 94 00 00 00 01 01 01 FB  R..............
  000000014001A010: 0E 0D 00 01 01 01 01 00 00 00 01 00 00 01 01 01  ................
  000000014001A020: 1F 05 49 00 00 00 62 00 00 00 89 00 00 00 A5 00  ..I...b........
  000000014001A030: 00 00 CA 00 00 00 02 01 1F 02 0F 14 F5 00 00 00  ..............
  000000014001A040: 01 FE 00 00 00 01 07 01 00 00 02 0F 01 00 00 03  ...............
  000000014001A050: 1D 01 00 00 02 27 01 00 00 02 33 01 00 00 02 3D  .....'....3....=
  000000014001A060: 01 00 00 02 46 01 00 00 02 57 01 00 00 02 64 01  ....F....W....d.
  000000014001A070: 00 00 02 6D 01 00 00 02 75 01 00 00 04 80 01 00  ...m....u.......
  000000014001A080: 00 02 92 01 00 00 02 99 01 00 00 02 A1 01 00 00  ...............
  000000014001A090: 02 AA 01 00 00 02 B4 01 00 00 02 BF 01 00 00 00  .............
  000000014001A0A0: 05 01 00 09 02 00 10 00 40 01 00 00 00 03 D7 00  ........@......
  000000014001A0B0: 01 06 01 06 17 F6 05 03 4B 13 05 01 03 B6 01 01  .......K......
  000000014001A0C0: 05 03 14 13 13 13 15 05 1C 06 01 05 0C 7A 05 1C  .............z..
  000000014001A0D0: 03 7A 2E 05 03 06 67 05 1B 06 01 05 03 06 C9 05  .z....g........
  000000014001A0E0: 1B 06 01 05 03 06 CA 13 05 11 06 01 05 06 74 05  .............t.
  000000014001A0F0: 03 06 77 05 42 06 01 05 0D 4A 05 03 06 3D 05 06  ..w.B....J...=..
  000000014001A100: 06 01 82 05 07 03 BA 7E 01 05 0E 00 02 04 01 73  ......~.......s
  000000014001A110: 05 03 06 67 05 06 06 01 05 05 06 67 05 03 A2 05  ...g.......g...
  000000014001A120: 05 06 01 05 12 00 02 04 01 58 05 03 06 AD 05 05  .........X.....
  000000014001A130: 06 01 05 14 00 02 04 01 58 05 03 06 B1 05 09 06  ........X......
  000000014001A140: 01 05 03 06 5A 05 06 06 01 05 03 06 84 05 24 06  ....Z.........$.
  000000014001A150: 01 05 06 74 05 03 06 5D 05 05 14 05 03 13 05 01  ...t...]........
  000000014001A160: 06 13 05 05 06 03 6B F2 05 03 03 C6 01 F2 13 05  ......k......
  000000014001A170: 16 06 01 05 03 4A 05 07 06 08 27 13 05 0A 06 01  .....J....'.....
  000000014001A180: 05 07 06 CA 05 0E 06 01 08 4A 05 07 06 03 BD 7E  ........J....~
  000000014001A190: 01 05 03 BD 05 05 14 05 03 13 05 01 06 13 05 07  ...............
  000000014001A1A0: 06 03 B5 01 BA 05 0A 06 01 05 07 06 A0 05 0E 06  ..............
  000000014001A1B0: 01 08 3C 05 05 06 03 BF 7E 01 06 AC 05 01 06 00  ..<....~......
  000000014001A1C0: 09 02 50 11 00 40 01 00 00 00 03 0E 01 05 03 4B  ..P..@.........K
  000000014001A1D0: 13 14 05 15 06 01 05 0C 79 05 15 08 45 05 03 06  ........y...E...
  000000014001A1E0: 6B 05 0C 06 01 05 03 06 08 84 05 06 06 01 05 01  k...............
  000000014001A1F0: 4C 06 03 72 58 05 05 03 0D 01 06 AC 05 01 06 00  L..rX..........
  000000014001A200: 09 02 B0 11 00 40 01 00 00 00 03 C7 00 01 05 05  ....@.........
  000000014001A210: 9F 13 04 02 05 1E 03 A2 CE 00 01 05 33 01 04 03  ..........3...
  000000014001A220: 05 01 03 DC B6 7F 01 01 01 9E 06 01 04 01 05 0B  ..............
  000000014001A230: 00 02 04 01 03 82 7B 01 05 05 06 4B 13 05 02 06  ......{....K....
  000000014001A240: 7C 05 0A 03 78 74 05 02 06 A1 05 05 06 01 05 02  |...xt.........
  000000014001A250: 06 95 05 17 03 79 74 04 03 05 07 03 88 0C 01 05  .....yt.........
  000000014001A260: 05 13 04 01 05 17 06 03 F7 73 01 05 09 8E 05 05  ........s......
  000000014001A270: 06 03 0B 2E 05 20 06 01 74 05 08 2E 05 0A 06 94  ..... ..t.......
  000000014001A280: 05 25 06 01 05 0D 2E 05 07 06 89 05 11 06 01 05  .%..............
  000000014001A290: 05 06 A0 05 20 06 01 05 08 2E 05 05 06 95 13 05  .... ...........
  000000014001A2A0: 08 06 01 05 05 06 85 05 21 06 01 05 08 9E 05 07  ........!.......
  000000014001A2B0: 06 59 05 05 BC 59 05 20 06 01 05 1E 00 02 04 01  .Y..Y. ........
  000000014001A2C0: C8 05 05 78 05 1E 00 02 04 01 70 05 05 06 40 5A  ..x......p...@Z
  000000014001A2D0: 5A 05 0D 03 3A 66 05 02 14 13 13 05 3B 06 01 3C  Z...:f......;..<
  000000014001A2E0: 05 1B 3C 05 05 BC 05 1B 72 05 02 06 3E 13 05 0E  ..<....r...>...
  000000014001A2F0: 00 02 04 01 01 05 03 08 22 05 21 06 01 05 0A 00  ........".!.....
  000000014001A300: 02 04 01 90 05 03 06 4B 05 15 06 01 05 03 83 05  .......K........
  000000014001A310: 08 00 02 04 01 3B 05 03 06 59 05 15 06 49 05 0E  .....;...Y...I..
  000000014001A320: 00 02 04 01 39 05 03 4E 05 15 00 02 04 03 06 54  ....9..N.......T
  000000014001A330: 05 0E 00 02 04 01 01 05 03 06 5E 05 02 06 3C 05  ..........^...<.
  000000014001A340: 07 06 01 05 02 06 75 05 06 06 01 74 05 05 06 03  ......u....t....
  000000014001A350: B9 7F 01 5C 05 0F 00 02 04 01 06 58 76 00 02 04  ..\.......Xv...
  000000014001A360: 01 64 05 05 06 3E 05 0F 06 01 05 08 BB 05 0D 00  .d...>.........
  000000014001A370: 02 04 01 65 05 05 06 67 05 08 06 01 05 05 06 85  ...e...g........
  000000014001A380: 05 08 06 01 05 01 A2 05 0D 03 4A 08 12 05 02 06  .........J.....
  000000014001A390: 03 0B F2 05 06 06 13 05 19 D5 05 02 06 67 05 06  ...........g..
  000000014001A3A0: 06 01 05 05 00 02 04 01 58 05 0B 83 05 07 06 03  ........X.......
  000000014001A3B0: 0C 74 04 03 03 F6 0B 01 05 05 13 05 0C 06 01 58  .t............X
  000000014001A3C0: AC 04 01 05 07 06 03 A3 74 01 05 0A 06 5A 05 03  ......t....Z..
  000000014001A3D0: 06 66 05 01 06 13 05 02 06 03 5E 08 4A 08 2F 05  .f........^.J./.
  000000014001A3E0: 19 06 01 05 0E 00 02 04 01 03 D3 00 C8 00 02 04  ..............
  000000014001A3F0: 01 82 05 07 06 03 48 01 05 02 03 57 74 05 01 03  ......H....Wt...
  000000014001A400: B2 7F 08 12 05 03 4B 14 14 05 14 06 01 05 03 06  .....K.........
  000000014001A410: C9 05 09 06 01 05 03 06 5A 03 0C 2E 05 01 06 13  .......Z.......
  000000014001A420: 06 03 0A 82 05 03 4B 14 14 05 14 06 01 05 03 06  ......K.........
  000000014001A430: C9 05 09 06 01 05 03 06 5A 03 0C 2E 05 01 06 13  .......Z.......
  000000014001A440: 06 03 86 01 82 06 01 05 05 06 18 05 01 06 13 05  ................
  000000014001A450: 0C 11 58 00 01 01 26 01 00 00 05 00 08 00 4B 00  ..X...&.......K.
  000000014001A460: 00 00 01 01 01 FB 0E 0D 00 01 01 01 01 00 00 00  ...............
  000000014001A470: 01 00 00 01 01 01 1F 03 14 02 00 00 2D 02 00 00  ............-...
  000000014001A480: 54 02 00 00 02 01 1F 02 0F 07 70 02 00 00 01 7A  T.........p....z
  000000014001A490: 02 00 00 01 84 02 00 00 02 8C 02 00 00 02 99 02  ................
  000000014001A4A0: 00 00 02 A2 02 00 00 02 AC 02 00 00 02 05 01 00  ..............
  000000014001A4B0: 09 02 90 14 00 40 01 00 00 00 03 14 01 05 03 4B  .....@.........K
  000000014001A4C0: 14 05 0A 01 05 07 08 AE 05 08 06 01 05 07 06 2F  ............../
  000000014001A4D0: 05 08 06 01 05 0A A9 05 08 4D 05 0A 06 71 05 01  ........M...q..
  000000014001A4E0: 06 5D 06 08 32 05 03 67 05 42 06 01 05 11 74 05  .]..2..g.B....t.
  000000014001A4F0: 03 06 59 14 05 06 06 01 05 15 00 02 04 01 06 5D  ..Y............]
  000000014001A500: 00 02 04 01 06 4A 00 02 04 01 58 00 02 04 01 74  .....J....X....t
  000000014001A510: 05 07 06 92 05 1C 00 02 04 03 2C 05 15 00 02 04  ..........,.....
  000000014001A520: 01 01 05 03 95 05 01 06 75 05 03 65 05 12 03 78  ........u..e...x
  000000014001A530: 82 2E 05 30 00 02 04 01 06 D6 05 2B 00 02 04 01  ...0......+....
  000000014001A540: 06 01 05 30 00 02 04 01 66 05 2B 00 02 04 01 58  ...0....f.+....X
  000000014001A550: 05 30 00 02 04 01 3C 05 01 06 03 0F 08 20 05 03  .0....<...... ..
  000000014001A560: 13 05 06 06 01 05 01 A3 05 07 06 63 05 13 06 01  ..........c....
  000000014001A570: 05 07 06 9F 05 01 06 14 05 07 10 02 05 00 01 01  ................
  000000014001A580: 52 00 00 00 05 00 08 00 4A 00 00 00 01 01 01 FB  R.......J......
  000000014001A590: 0E 0D 00 01 01 01 01 00 00 00 01 00 00 01 01 01  ................
  000000014001A5A0: 1F 04 00 03 00 00 19 03 00 00 40 03 00 00 5C 03  ..........@...\.
  000000014001A5B0: 00 00 02 01 1F 02 0F 06 87 03 00 00 01 92 03 00  ................
  000000014001A5C0: 00 02 9A 03 00 00 02 A7 03 00 00 02 B0 03 00 00  ..............
  000000014001A5D0: 03 BB 03 00 00 01 36 00 00 00 05 00 08 00 2E 00  .....6.........
  000000014001A5E0: 00 00 01 01 01 FB 0E 0D 00 01 01 01 01 00 00 00  ...............
  000000014001A5F0: 01 00 00 01 01 01 1F 02 11 04 00 00 2A 04 00 00  ............*...
  000000014001A600: 02 01 1F 02 0F 02 51 04 00 00 01 5C 04 00 00 01  ......Q....\....
  000000014001A610: 52 00 00 00 05 00 08 00 2E 00 00 00 01 01 01 FB  R..............
  000000014001A620: 0E 0D 00 01 01 01 01 00 00 00 01 00 00 01 01 01  ................
  000000014001A630: 1F 02 B1 04 00 00 CA 04 00 00 02 01 1F 02 0F 02  ..............
  000000014001A640: F1 04 00 00 01 FB 04 00 00 01 05 01 00 09 02 80  ..............
  000000014001A650: 15 00 40 01 00 00 00 03 12 01 05 03 13 05 01 06  ..@.............
  000000014001A660: 13 02 03 00 01 01 36 00 00 00 05 00 08 00 2E 00  ......6.........
  000000014001A670: 00 00 01 01 01 FB 0E 0D 00 01 01 01 01 00 00 00  ...............
  000000014001A680: 01 00 00 01 01 01 1F 02 50 05 00 00 69 05 00 00  ........P...i...
  000000014001A690: 02 01 1F 02 0F 02 90 05 00 00 01 9B 05 00 00 01  ................
  000000014001A6A0: 2E 01 00 00 05 00 08 00 4B 00 00 00 01 01 01 FB  ........K......
  000000014001A6B0: 0E 0D 00 01 01 01 01 00 00 00 01 00 00 01 01 01  ................
  000000014001A6C0: 1F 03 EF 05 00 00 08 06 00 00 2F 06 00 00 02 01  ........./.....
  000000014001A6D0: 1F 02 0F 07 4B 06 00 00 01 54 06 00 00 01 5D 06  ....K....T....].
  000000014001A6E0: 00 00 02 67 06 00 00 02 73 06 00 00 02 7D 06 00  ...g....s....}..
  000000014001A6F0: 00 02 85 06 00 00 02 05 01 00 09 02 90 15 00 40  ...............@
  000000014001A700: 01 00 00 00 03 89 01 01 06 01 05 03 06 18 05 06  ................
  000000014001A710: 06 01 05 01 03 18 90 05 03 06 73 05 01 06 13 05  ..........s.....
  000000014001A720: 03 11 58 05 01 06 00 09 02 B0 15 00 40 01 00 00  ..X........@...
  000000014001A730: 00 03 A8 7F 01 06 01 05 03 06 67 13 15 05 0F 06  .........g.....
  000000014001A740: 01 05 06 74 05 04 06 59 05 0C 06 01 05 03 06 68  ...t...Y.......h
  000000014001A750: 05 06 06 01 05 07 06 5A 05 0A 06 01 05 01 03 0D  .......Z........
  000000014001A760: 58 06 03 68 D6 05 03 03 10 01 13 05 06 06 01 05  X..h...........
  000000014001A770: 03 06 75 05 0E 00 02 04 01 01 05 07 08 84 13 05  ..u.............
  000000014001A780: 0B 06 01 05 0A 3C 05 02 06 59 05 03 06 01 05 29  .....<...Y.....)
  000000014001A790: 06 2A 05 0E 00 02 04 01 4A 05 01 06 5E 58 05 09  .*......J...^X..
  000000014001A7A0: 06 03 74 82 05 01 06 03 0C 01 05 09 03 74 66 58  ..t..........tfX
  000000014001A7B0: 05 01 06 00 09 02 30 16 00 40 01 00 00 00 03 15  ......0..@......
  000000014001A7C0: 01 06 01 05 03 06 13 05 01 06 03 16 01 02 03 00  ................
  000000014001A7D0: 01 01 36 00 00 00 05 00 08 00 2E 00 00 00 01 01  ..6.............
  000000014001A7E0: 01 FB 0E 0D 00 01 01 01 01 00 00 00 01 00 00 01  ...............
  000000014001A7F0: 01 01 1F 02 E2 06 00 00 FB 06 00 00 02 01 1F 02  ..............
  000000014001A800: 0F 02 22 07 00 00 01 2D 07 00 00 01 3F 00 00 00  .."....-....?...
  000000014001A810: 05 00 08 00 37 00 00 00 01 01 01 FB 0E 0D 00 01  ....7..........
  000000014001A820: 01 01 01 00 00 00 01 00 00 01 01 01 1F 03 83 07  ................
  000000014001A830: 00 00 9C 07 00 00 C3 07 00 00 02 01 1F 02 0F 03  ...............
  000000014001A840: DF 07 00 00 01 EA 07 00 00 02 FC 07 00 00 01 BA  ............
  000000014001A850: 00 00 00 05 00 08 00 3C 00 00 00 01 01 01 FB 0E  .......<.......
  000000014001A860: 0D 00 01 01 01 01 00 00 00 01 00 00 01 01 01 1F  ................
  000000014001A870: 03 4E 08 00 00 67 08 00 00 8E 08 00 00 02 01 1F  .N...g..........
  000000014001A880: 02 0F 04 AA 08 00 00 01 B1 08 00 00 01 B8 08 00  .............
  000000014001A890: 00 02 BF 08 00 00 02 05 01 00 09 02 40 16 00 40  ...........@..@
  000000014001A8A0: 01 00 00 00 03 0B 01 06 01 05 03 06 08 59 14 03  .............Y..
  000000014001A8B0: 1F 02 29 01 06 08 82 00 02 04 01 58 08 66 00 02  ..)........X.f..
  000000014001A8C0: 04 01 3C 06 E6 05 01 06 13 08 66 05 07 03 61 3C  ..<......f...a<
  000000014001A8D0: 05 02 06 03 0C F2 13 05 07 06 11 05 02 75 06 8B  ............u..
  000000014001A8E0: 13 05 07 06 11 05 02 75 06 03 0B 90 13 05 07 06  .......u........
  000000014001A8F0: 11 05 02 75 06 8B 13 05 07 06 11 05 02 75 06 5F  ...u.........u._
  000000014001A900: 13 05 07 06 11 05 02 75 02 05 00 01 01 54 00 00  .......u.....T..
  000000014001A910: 00 05 00 08 00 2E 00 00 00 01 01 01 FB 0E 0D 00  ...............
  000000014001A920: 01 01 01 01 00 00 00 01 00 00 01 01 01 1F 02 12  ................
  000000014001A930: 09 00 00 2B 09 00 00 02 01 1F 02 0F 02 52 09 00  ...+.........R..
  000000014001A940: 00 01 5D 09 00 00 01 05 01 00 09 02 40 17 00 40  ..].........@..@
  000000014001A950: 01 00 00 00 03 09 01 05 03 03 09 01 05 01 06 33  ...............3
  000000014001A960: 02 01 00 01 01 36 00 00 00 05 00 08 00 2E 00 00  .....6..........
  000000014001A970: 00 01 01 01 FB 0E 0D 00 01 01 01 01 00 00 00 01  ...............
  000000014001A980: 00 00 01 01 01 1F 02 B8 09 00 00 D1 09 00 00 02  ..............
  000000014001A990: 01 1F 02 0F 02 F8 09 00 00 01 08 0A 00 00 01 79  ..............y
  000000014001A9A0: 05 00 00 05 00 08 00 73 00 00 00 01 01 01 FB 0E  .......s.......
  000000014001A9B0: 0D 00 01 01 01 01 00 00 00 01 00 00 01 01 01 1F  ................
  000000014001A9C0: 03 67 0A 00 00 80 0A 00 00 A7 0A 00 00 02 01 1F  .g.............
  000000014001A9D0: 02 0F 0F C3 0A 00 00 01 D2 0A 00 00 01 E1 0A 00  .............
  000000014001A9E0: 00 02 EA 0A 00 00 02 F4 0A 00 00 02 00 0B 00 00  ..............
  000000014001A9F0: 02 0A 0B 00 00 02 12 0B 00 00 02 1F 0B 00 00 02  ................
  000000014001AA00: 28 0B 00 00 02 30 0B 00 00 02 3C 0B 00 00 02 4D  (....0....<....M
  000000014001AA10: 0B 00 00 02 56 0B 00 00 02 5F 0B 00 00 00 05 01  ....V...._......
  000000014001AA20: 00 09 02 50 17 00 40 01 00 00 00 03 D4 00 01 06  ...P..@........
  000000014001AA30: 01 05 03 06 03 3E 66 13 05 01 06 03 41 01 05 03  .....>f.....A...
  000000014001AA40: 03 3F 3C 5A 05 01 03 BF 7F 58 05 03 03 3F E4 06  .?<Z....X...?.
  000000014001AA50: 5A 00 02 04 01 06 58 08 20 00 02 04 01 3C 06 59  Z.....X. ....<.Y
  000000014001AA60: 00 02 04 01 06 E4 3C 00 02 04 01 3C 06 87 13 05  .....<....<....
  000000014001AA70: 01 03 1B C8 06 01 05 03 06 75 13 13 14 05 11 00  ........u......
  000000014001AA80: 02 04 01 01 05 01 06 6F 05 11 00 02 04 01 41 05  .......o......A.
  000000014001AA90: 0A E4 05 07 06 F4 05 16 06 01 05 0A 3C 05 4F 59  ..........<.OY
  000000014001AAA0: 05 37 74 05 0B 3C 05 21 00 02 04 02 06 8D 05 11  .7t..<.!........
  000000014001AAB0: 00 02 04 01 4A 05 03 96 05 07 06 01 3C 05 03 06  ....J.......<...
  000000014001AAC0: 83 05 06 06 01 05 03 06 95 05 0B 06 01 74 4A 05  .............tJ.
  000000014001AAD0: 14 74 05 03 06 4B 05 1B 06 01 05 03 06 67 05 1B  .t...K.......g..
  000000014001AAE0: 06 01 05 31 00 02 04 01 58 05 08 3E 05 2E 00 02  ...1....X..>....
  000000014001AAF0: 04 01 64 05 19 00 02 04 01 4A 05 08 76 05 19 00  ..d......J..v...
  000000014001AB00: 02 04 01 56 05 03 06 5A 05 08 06 01 05 06 00 02  ...V...Z........
  000000014001AB10: 04 01 66 05 03 06 97 05 08 06 01 05 2B 4A 05 2E  ..f.........+J..
  000000014001AB20: 00 02 04 01 3D 05 2B 57 05 2E 00 02 04 01 3D 05  ....=.+W......=.
  000000014001AB30: 03 06 03 0F 58 75 05 01 06 13 05 07 06 03 71 AC  ....Xu........q
  000000014001AB40: 13 05 15 06 13 05 23 3F 05 22 59 05 15 54 05 07  ......#?."Y..T..
  000000014001AB50: 06 E7 05 0F 06 01 05 20 74 05 07 06 4B 05 0F 06  ...... t...K...
  000000014001AB60: 11 05 1F 3D 05 07 06 4B 05 0C 06 01 05 0A 00 02  ...=...K........
  000000014001AB70: 04 01 66 05 02 06 4D 05 0A 06 13 05 02 65 05 0A  ..f...M......e..
  000000014001AB80: 75 05 02 2D 90 05 0A 03 5C 01 05 07 06 03 12 74  u..-....\......t
  000000014001AB90: 03 77 08 9E 06 F2 05 01 06 00 09 02 30 19 00 40  .w.........0..@
  000000014001ABA0: 01 00 00 00 03 A0 02 01 05 03 08 4B 14 15 05 07  ...........K....
  000000014001ABB0: 06 01 05 06 74 05 01 03 10 58 05 03 06 03 72 08  ....t....X....r.
  000000014001ABC0: 66 A0 05 0B 06 01 05 03 06 59 05 1B 06 01 2E 4A  f........Y.....J
  000000014001ABD0: 05 0D 03 C7 7E 08 12 05 1B 03 B9 01 D6 05 0F 3D  ...~........=
  000000014001ABE0: 05 1B 9D 05 0C 00 02 04 01 58 05 03 06 75 15 05  .........X...u..
  000000014001ABF0: 01 03 C0 7E 01 05 03 14 13 05 0D 06 01 05 03 06  ..~............
  000000014001AC00: 67 13 13 18 05 06 06 01 05 03 06 03 16 66 05 06  g............f..
  000000014001AC10: 06 01 05 03 06 03 0F 9E 05 06 06 01 05 24 00 02  .............$..
  000000014001AC20: 04 01 9E 05 1B 00 02 04 01 3C 05 03 06 03 15 82  .........<......
  000000014001AC30: 05 0D 06 01 05 06 3C 05 03 06 03 0C 90 05 05 06  ......<.........
  000000014001AC40: 01 05 03 06 4C 05 0C 00 02 04 01 01 05 16 06 93  ....L...........
  000000014001AC50: 05 17 03 3C 74 F2 05 07 03 52 01 05 06 06 08 28  ...<t...R.....(
  000000014001AC60: 05 1D 06 01 05 06 06 3D 05 09 06 66 05 08 06 91  .......=...f....
  000000014001AC70: 05 06 03 12 01 05 07 16 13 05 10 06 03 69 01 05  .............i..
  000000014001AC80: 0F 03 16 74 3D 05 07 06 3E 13 05 0A 06 01 05 0B  ...t=...>.......
  000000014001AC90: 06 52 13 13 05 0E 06 01 C8 C8 05 0C 06 03 0D 01  .R............
  000000014001ACA0: 05 01 03 B2 7E 01 05 03 14 05 01 10 05 03 1A 03  ...~...........
  000000014001ACB0: 17 82 06 3C 05 05 06 03 B0 01 01 05 35 03 B3 7F  ...<.......5..
  000000014001ACC0: 01 05 0C 00 02 04 01 4A 05 07 5B 05 26 06 17 05  .......J..[.&...
  000000014001ACD0: 11 03 09 2E 05 2A 03 72 3C 05 10 41 05 19 03 09  .....*.r<..A....
  000000014001ACE0: 3C 05 10 03 78 3C 05 14 03 7A 3C 05 07 06 41 13  <...x<...z<...A.
  000000014001ACF0: 1A 06 90 05 06 06 03 15 E4 13 18 05 07 16 13 05  ...............
  000000014001AD00: 0F 06 11 67 05 07 06 3E 13 05 0A 06 01 05 0B 06  ...g...>........
  000000014001AD10: 8A 13 13 05 0E 06 01 90 05 0C 06 03 14 01 05 01  ................
  000000014001AD20: 03 AB 7E 01 05 03 14 05 01 10 05 03 1A 05 35 06  .~...........5.
  000000014001AD30: 03 FA 00 3C 05 03 03 86 7F 4A 06 03 17 58 06 3C  ..<.....J...X.<
  000000014001AD40: 05 05 06 03 B7 01 01 05 35 03 AC 7F 01 05 0C 00  .......5......
  000000014001AD50: 02 04 01 01 00 02 04 01 06 82 05 11 00 02 04 01  ................
  000000014001AD60: 06 03 E5 7E 01 05 07 06 DA 05 11 00 02 04 01 70  ..~..........p
  000000014001AD70: 05 07 32 06 8E 05 13 06 01 05 16 9E 05 0A 3C 05  ..2...........<.
  000000014001AD80: 07 06 5A 05 21 00 02 04 02 C4 05 11 00 02 04 01  ..Z.!..........
  000000014001AD90: 4A 00 02 04 01 06 08 4A 05 07 03 EA 00 01 05 27  J......J......'
  000000014001ADA0: 00 02 04 01 9E 05 07 3D 05 0D 03 0A AC 4A 05 06  .......=....J..
  000000014001ADB0: 06 03 3A BA 05 1D 06 01 05 06 06 3D 05 09 06 66  ..:.......=...f
  000000014001ADC0: 05 08 06 91 05 06 03 17 01 05 07 16 13 05 10 06  ................
  000000014001ADD0: 03 64 01 05 0F 03 1B 74 3D 05 07 06 3E 13 05 0A  .d.....t=...>...
  000000014001ADE0: 06 01 05 0B 06 52 13 13 05 0E 06 01 C8 9E 05 0C  .....R.........
  000000014001ADF0: 06 03 0A 01 05 01 03 B5 7E 01 05 03 14 05 01 10  .......~.......
  000000014001AE00: 05 03 1A 03 17 82 06 3C 05 05 06 03 AD 01 01 05  .......<.......
  000000014001AE10: 06 03 54 AC 05 1D 06 01 05 06 06 30 05 09 06 66  ..T.......0...f
  000000014001AE20: 05 08 06 4B 05 06 03 0C 01 05 07 16 13 05 10 06  ...K............
  000000014001AE30: 03 6F 01 05 0F 03 10 C8 3D 05 07 06 3E 13 05 0A  .o.....=...>...
  000000014001AE40: 06 01 05 0B 06 52 13 13 05 0E 06 01 90 08 2E 05  .....R..........
  000000014001AE50: 0C 06 03 10 01 05 01 03 AF 7E 01 05 03 14 05 01  ........~......
  000000014001AE60: 10 05 03 1A 03 17 82 06 2E 05 05 06 03 B3 01 01  ...............
  000000014001AE70: 05 06 03 5D 74 05 07 16 13 05 0F 06 11 3D 05 07  ...]t........=..
  000000014001AE80: 06 3E 13 05 0A 06 01 05 06 06 03 78 9E 05 07 16  .>.........x....
  000000014001AE90: 13 05 0F 06 11 3D 05 07 06 3E 13 05 0A 06 01 05  .....=...>......
  000000014001AEA0: 06 06 03 78 08 20 05 07 16 13 05 0F 06 11 3D 05  ...x. ........=.
  000000014001AEB0: 07 06 3E 13 05 0A 06 01 05 07 06 03 AF 7F 08 20  ..>........... 
  000000014001AEC0: 05 16 06 03 1F 90 05 04 06 03 64 74 13 13 05 27  ..........dt...'
  000000014001AED0: 06 11 05 28 3D 05 0D 2A 05 11 4D 05 28 3D 05 04  ...(=..*..M.(=..
  000000014001AEE0: 06 2F 05 01 03 94 7F 01 05 03 14 05 01 10 05 03  ./..............
  000000014001AEF0: 1A 03 17 82 06 2E 05 0D 06 03 C8 00 01 05 07 11  ...............
  000000014001AF00: 06 9E 05 06 06 03 C6 00 01 13 03 15 D6 06 08 58  .............X
  000000014001AF10: 05 07 06 03 B4 7F 01 02 0D 00 01 01 AA 00 00 00  ..............
  000000014001AF20: 05 00 08 00 37 00 00 00 01 01 01 FB 0E 0D 00 01  ....7..........
  000000014001AF30: 01 01 01 00 00 00 01 00 00 01 01 01 1F 03 B8 0B  ...............
  000000014001AF40: 00 00 D1 0B 00 00 F8 0B 00 00 02 01 1F 02 0F 03  ..............
  000000014001AF50: 14 0C 00 00 01 22 0C 00 00 01 30 0C 00 00 02 05  ....."....0.....
  000000014001AF60: 01 00 09 02 A0 1C 00 40 01 00 00 00 03 0D 01 06  .......@........
  000000014001AF70: 01 05 07 4C 05 03 06 AB 13 05 06 06 01 05 03 06  ...L...........
  000000014001AF80: 5A 05 0D 06 16 05 0B 8C 05 03 06 4B 05 04 06 16  Z..........K....
  000000014001AF90: 05 0B 54 05 03 06 59 13 05 0B 06 11 05 03 06 5A  ..T...Y........Z
  000000014001AFA0: 05 0D 06 01 05 03 06 67 05 04 06 01 05 01 3D 06  .......g......=.
  000000014001AFB0: 79 06 01 05 03 06 13 05 11 06 01 05 03 06 75 05  y.............u.
  000000014001AFC0: 01 06 13 05 03 11 58 00 01 01 36 00 00 00 05 00  ......X...6.....
  000000014001AFD0: 08 00 2E 00 00 00 01 01 01 FB 0E 0D 00 01 01 01  ...............
  000000014001AFE0: 01 00 00 00 01 00 00 01 01 01 1F 02 82 0C 00 00  ................
  000000014001AFF0: 9B 0C 00 00 02 01 1F 02 0F 02 C2 0C 00 00 01 CD  ..............
  000000014001B000: 0C 00 00 01 8E 01 00 00 05 00 08 00 55 00 00 00  ............U...
  000000014001B010: 01 01 01 FB 0E 0D 00 01 01 01 01 00 00 00 01 00  ...............
  000000014001B020: 00 01 01 01 1F 03 26 0D 00 00 3F 0D 00 00 66 0D  ......&...?...f.
  000000014001B030: 00 00 02 01 1F 02 0F 09 82 0D 00 00 01 90 0D 00  ................
  000000014001B040: 00 01 9E 0D 00 00 02 A6 0D 00 00 02 B2 0D 00 00  ..............
  000000014001B050: 02 BC 0D 00 00 02 CD 0D 00 00 02 DA 0D 00 00 02  .............
  000000014001B060: E3 0D 00 00 02 05 01 00 09 02 F0 1C 00 40 01 00  ...........@..
  000000014001B070: 00 00 03 B4 01 01 06 01 05 03 06 59 13 13 15 05  ..........Y....
  000000014001B080: 16 06 01 05 27 3C 05 01 03 7A 2E 05 37 42 2E 05  ....'<...z..7B..
  000000014001B090: 06 66 05 03 06 C1 05 07 03 2D 02 2F 01 17 05 15  .f......-./....
  000000014001B0A0: 06 01 05 07 06 BB 05 0A 06 01 05 0C 06 A5 05 0F  ..............
  000000014001B0B0: 06 01 05 2B 00 02 04 01 03 15 90 05 05 06 BB 05  ...+...........
  000000014001B0C0: 0F 06 01 05 01 3E 05 0F 56 05 03 03 B0 7F C8 05  .....>..V.....
  000000014001B0D0: 01 03 73 08 3C 03 DF 00 58 58 05 07 06 03 A9 7F  ..s.<..XX.....
  000000014001B0E0: 2E 05 0A 06 01 F2 05 01 03 D7 00 2E 58 05 03 03  ..........X...
  000000014001B0F0: AE 7F 90 05 07 06 03 17 D6 05 15 06 01 05 07 06  ..............
  000000014001B100: BB 05 0A 06 01 05 0C 06 A5 05 0F 06 01 05 04 06  ..............
  000000014001B110: 93 05 05 06 01 05 04 06 75 05 03 03 2C 01 05 07  ........u...,...
  000000014001B120: 03 63 BA 05 15 06 01 05 07 06 BB 05 0A 06 01 05  .c............
  000000014001B130: 04 06 A0 E5 05 07 03 4E AC 05 15 06 01 05 07 06  ......N.......
  000000014001B140: BB 05 0A 06 01 05 0C 06 6D 05 0F 06 01 05 04 06  .......m.......
  000000014001B150: 93 05 05 06 01 05 04 06 75 05 03 03 3F 01 05 04  ........u...?...
  000000014001B160: 03 6E D6 05 05 06 01 05 04 06 75 05 03 03 11 01  .n.......u.....
  000000014001B170: 05 04 03 BA 7F 58 E5 05 03 03 C5 00 01 05 04 03  ....X........
  000000014001B180: 4D 58 E5 05 03 03 32 01 05 04 03 66 58 E5 05 06  MX...2....fX..
  000000014001B190: 13 02 0A 00 01 01 72 02 00 00 05 00 08 00 5A 00  ......r.......Z.
  000000014001B1A0: 00 00 01 01 01 FB 0E 0D 00 01 01 01 01 00 00 00  ...............
  000000014001B1B0: 01 00 00 01 01 01 1F 03 36 0E 00 00 4F 0E 00 00  ........6...O...
  000000014001B1C0: 76 0E 00 00 02 01 1F 02 0F 0A 92 0E 00 00 01 9C  v...............
  000000014001B1D0: 0E 00 00 01 A6 0E 00 00 02 B2 0E 00 00 02 BC 0E  .............
  000000014001B1E0: 00 00 02 C4 0E 00 00 02 D1 0E 00 00 02 DC 0E 00  .............
  000000014001B1F0: 00 02 E5 0E 00 00 02 F9 0E 00 00 02 05 01 00 09  ..............
  000000014001B200: 02 C0 1E 00 40 01 00 00 00 03 E2 00 01 05 03 A4  ...@.........
  000000014001B210: F4 05 0D 06 01 05 1E 00 02 04 01 06 74 05 07 08  ...........t...
  000000014001B220: D8 05 27 06 01 05 16 2E 05 07 06 59 05 0B 06 01  .'........Y....
  000000014001B230: 06 30 05 0E 06 01 58 05 0D 06 4B 05 13 06 01 05  .0....X...K.....
  000000014001B240: 0E 4A 05 07 06 5A 05 0C 06 01 4A 05 1E 00 02 04  .J...Z....J.....
  000000014001B250: 01 06 03 78 01 05 03 03 0B 58 05 01 06 3D 58 05  ...x.....X...=X.
  000000014001B260: 03 57 05 01 06 03 B5 7F E4 06 01 05 03 06 75 14  .W..........u.
  000000014001B270: 05 1A 06 01 05 01 63 05 06 5B 05 0C 4B 05 01 03  ......c..[..K...
  000000014001B280: 0F 2E 74 05 03 06 03 72 20 05 22 06 01 58 58 05  ..t....r ."..XX.
  000000014001B290: 03 06 83 05 06 06 01 05 03 06 5B 05 11 06 13 05  ..........[.....
  000000014001B2A0: 03 4C 05 10 71 05 03 06 2F 14 92 05 11 06 01 05  .L..q.../.......
  000000014001B2B0: 03 77 05 11 3A 73 05 03 06 4B 14 67 05 0A 06 01  .w..:s...K.g....
  000000014001B2C0: 05 0C 03 75 2E 3C 05 01 06 03 10 3C 06 01 05 03  ...u.<.....<....
  000000014001B2D0: 06 67 13 14 05 1A 06 01 05 01 62 05 06 32 05 01  .g........b..2..
  000000014001B2E0: 03 1A 4A 05 03 06 03 69 D6 06 9E 06 68 13 05 0B  ..J....i...h...
  000000014001B2F0: 06 01 05 03 06 76 05 12 01 05 0C 06 55 4A 05 07  .....v......UJ..
  000000014001B300: 06 03 0F F2 13 05 12 03 73 01 06 82 05 07 06 3E  .......s......>
  000000014001B310: 05 13 06 01 05 0A 2E 05 24 31 05 0A 47 05 0B 06  ........$1..G...
  000000014001B320: 30 05 0E 06 01 05 0D 06 5B 05 1C 06 01 05 0B 06  0.......[.......
  000000014001B330: 4C 59 05 03 18 91 05 01 06 13 74 05 0D 06 03 73  LY........t....s
  000000014001B340: 58 05 1B 06 01 05 01 06 03 2A 08 74 06 01 05 03  X........*.t....
  000000014001B350: 06 59 05 07 E7 05 1E 06 01 05 0A 66 05 07 06 84  .Y........f....
  000000014001B360: 05 1A 06 01 05 07 06 9F 05 03 03 18 01 05 01 06  ................
  000000014001B370: 13 05 03 03 61 08 3C 05 07 06 03 1B 58 05 01 03  ....a.<.....X...
  000000014001B380: 4A 01 05 03 14 14 05 1A 06 01 05 06 66 90 BA 05  J...........f..
  000000014001B390: 07 06 03 1F 01 05 01 03 5D 01 05 03 14 14 05 1A  ........].......
  000000014001B3A0: 06 01 05 06 66 4A 05 07 06 03 20 01 05 1E 06 01  ....fJ.... .....
  000000014001B3B0: 05 0A 66 05 0B 06 5A 13 05 15 06 01 05 26 00 02  ..f...Z......&..
  000000014001B3C0: 04 01 06 74 05 0D 08 3E 05 0F 06 3C 05 0D 06 4B  ...t...>...<...K
  000000014001B3D0: 59 05 26 00 02 04 01 0E 05 0B 5E 06 14 05 19 72  Y.&.......^....r
  000000014001B3E0: 05 0B 06 AD 05 1E 06 01 05 0B 06 9F 06 08 2E 05  ...............
  000000014001B3F0: 07 06 16 59 05 03 17 05 01 06 13 AC 58 AC 05 09  ...Y.......X..
  000000014001B400: 06 03 65 01 06 74 66 02 05 00 01 01 36 00 00 00  ..e..tf.....6...
  000000014001B410: 05 00 08 00 2E 00 00 00 01 01 01 FB 0E 0D 00 01  ...............
  000000014001B420: 01 01 01 00 00 00 01 00 00 01 01 01 1F 02 54 0F  ..............T.
  000000014001B430: 00 00 6D 0F 00 00 02 01 1F 02 0F 02 94 0F 00 00  ..m.............
  000000014001B440: 01 9E 0F 00 00 01 36 00 00 00 05 00 08 00 2E 00  ......6.........
  000000014001B450: 00 00 01 01 01 FB 0E 0D 00 01 01 01 01 00 00 00  ...............
  000000014001B460: 01 00 00 01 01 01 1F 02 FC 0F 00 00 15 10 00 00  ...............
  000000014001B470: 02 01 1F 02 0F 02 3C 10 00 00 01 50 10 00 00 01  ......<....P....
  000000014001B480: 48 05 00 00 05 00 08 00 4B 00 00 00 01 01 01 FB  H.......K......
  000000014001B490: 0E 0D 00 01 01 01 01 00 00 00 01 00 00 01 01 01  ................
  000000014001B4A0: 1F 03 AD 10 00 00 C6 10 00 00 ED 10 00 00 02 01  .............
  000000014001B4B0: 1F 02 0F 07 09 11 00 00 01 12 11 00 00 01 1B 11  ................
  000000014001B4C0: 00 00 02 25 11 00 00 02 31 11 00 00 02 3B 11 00  ...%....1....;..
  000000014001B4D0: 00 02 43 11 00 00 02 05 01 00 09 02 60 21 00 40  ..C.........`!.@
  000000014001B4E0: 01 00 00 00 03 0F 01 06 01 05 03 06 13 13 13 14  ................
  000000014001B4F0: 13 05 0C 06 13 05 06 2D 05 01 06 03 79 74 05 03  .......-....yt..
  000000014001B500: 03 09 01 05 43 06 01 05 0D 4A 05 03 06 3D 05 06  ....C....J...=..
  000000014001B510: 06 01 82 05 01 18 05 03 06 7E 13 05 06 06 01 05  .........~......
  000000014001B520: 01 AF 06 5E 06 01 05 03 06 13 13 13 14 05 51 06  ..^..........Q.
  000000014001B530: 01 05 0D 4A 05 03 06 3E 05 21 06 01 05 25 4B 05  ...J...>.!...%K.
  000000014001B540: 1F 57 05 0E 06 59 06 9E 05 07 06 08 15 05 1A 06  .W...Y..........
  000000014001B550: 01 05 0A 74 05 26 59 05 04 3C 05 0F 06 55 05 10  ...t.&Y..<...U..
  000000014001B560: 06 01 05 0E 06 49 05 0A 06 5F 05 01 2F 06 26 06  .....I..._../.&.
  000000014001B570: 01 05 03 06 75 13 13 13 15 05 01 06 03 79 01 05  ....u........y..
  000000014001B580: 07 43 05 06 00 02 04 01 58 05 03 06 69 13 05 01  .C......X...i...
  000000014001B590: 03 49 01 05 03 14 13 13 14 13 05 11 06 01 05 0C  .I..............
  000000014001B5A0: 03 2D 74 05 06 03 53 2E 05 01 06 03 79 74 05 03  .-t...S.....yt..
  000000014001B5B0: 03 09 01 05 43 06 01 05 0D 4A 05 03 06 3D 05 06  ....C....J...=..
  000000014001B5C0: 06 01 05 03 06 84 13 05 06 06 01 82 05 03 06 03  ................
  000000014001B5D0: 2D 01 14 05 21 06 01 05 1F 4A 05 0E 06 59 05 25  -...!....J...Y.%
  000000014001B5E0: 06 01 05 0E 4A 82 05 0F 06 E5 05 10 06 01 05 0E  ....J..........
  000000014001B5F0: 06 49 05 07 5B 05 0C 06 01 05 0A 00 02 04 01 08  .I..[...........
  000000014001B600: 12 05 01 4E 90 05 0C 03 70 90 05 01 03 10 2E 90  ...N....p.......
  000000014001B610: 06 5F 06 01 05 03 06 13 13 14 13 05 01 03 B0 7F  ._.............
  000000014001B620: 01 05 03 14 13 13 14 13 05 11 06 01 05 0C 03 CA  ...............
  000000014001B630: 00 74 05 06 03 B6 7F 2E 05 01 06 03 79 74 05 03  .t.........yt..
  000000014001B640: 03 09 01 05 43 06 01 05 0D 4A 05 03 06 3D 05 06  ....C....J...=..
  000000014001B650: 06 01 90 05 01 03 CB 00 01 05 03 06 03 B7 7F 82  ..............
  000000014001B660: 13 05 06 06 01 90 05 03 06 03 C6 00 01 05 21 06  .............!.
  000000014001B670: 03 4A 01 05 22 03 36 58 05 03 06 3D 05 01 03 41  .J..".6X...=...A
  000000014001B680: 01 05 03 14 13 13 14 14 05 1F 06 01 05 0E 06 59  ...............Y
  000000014001B690: 05 25 06 01 05 0E 58 9E 05 07 06 08 31 05 1A 06  .%....X.....1...
  000000014001B6A0: 01 05 0A 74 05 26 59 05 04 3C 05 0F 06 55 05 10  ...t.&Y..<...U..
  000000014001B6B0: 06 01 05 0E 06 49 06 58 05 0C 03 33 01 05 01 32  .....I.X...3...2
  000000014001B6C0: 06 24 05 03 13 13 14 13 05 01 03 A2 7F 01 05 03  .$.............
  000000014001B6D0: 14 13 13 14 13 05 11 06 01 05 0C 03 D8 00 74 05  .............t.
  000000014001B6E0: 06 03 A8 7F 2E 05 01 06 03 79 74 05 03 03 09 01  ........yt.....
  000000014001B6F0: 05 43 06 01 05 0D 4A 05 03 06 3D 05 06 06 01 82  .C....J...=.....
  000000014001B700: 05 01 03 DA 00 01 05 03 06 03 A8 7F 90 13 05 06  ..............
  000000014001B710: 06 01 82 05 03 06 03 D4 00 01 14 05 0A 06 01 05  ...............
  000000014001B720: 01 4B 2E 06 A5 06 01 05 03 06 13 13 13 13 14 13  .K.............
  000000014001B730: 05 01 03 8E 7F 01 05 03 14 13 13 14 13 05 11 06  ................
  000000014001B740: 01 05 0C 03 EC 00 74 05 06 03 94 7F 2E 05 01 06  .....t.........
  000000014001B750: 03 79 82 05 03 03 09 01 05 43 06 01 05 0D 4A 05  .y.......C....J.
  000000014001B760: 03 06 3D 05 06 06 01 82 05 01 03 F9 00 01 05 03  ..=............
  000000014001B770: 06 03 89 7F 82 13 05 06 06 01 82 05 03 06 03 E8  ...............
  000000014001B780: 00 01 14 05 21 06 01 05 25 4B 05 1F 57 05 0E 06  ....!...%K..W...
  000000014001B790: 59 06 9E 05 07 06 08 77 05 0A 06 01 05 02 06 68  Y......w.......h
  000000014001B7A0: 05 05 06 01 05 02 06 5A 05 0F 03 7A 4A 05 10 06  .......Z...zJ...
  000000014001B7B0: 01 05 0E 06 49 05 0C 06 53 05 01 03 10 2E 06 6C  ....I...S......l
  000000014001B7C0: 05 03 13 13 13 05 01 03 F4 7E 01 05 03 14 13 13  ........~......
  000000014001B7D0: 14 13 05 11 06 01 05 0C 03 86 01 74 05 06 03 FA  ...........t...
  000000014001B7E0: 7E 2E 05 01 06 03 79 74 05 03 03 09 01 05 43 06  ~.....yt......C.
  000000014001B7F0: 01 05 0D 4A 05 03 06 3D 05 06 06 01 82 05 01 03  ...J...=........
  000000014001B800: 85 01 01 05 03 06 03 FD 7E 90 13 05 0A 06 03 81  .......~.......
  000000014001B810: 01 01 05 01 9F 06 DC 06 01 05 03 06 13 13 13 14  ...............
  000000014001B820: 13 05 01 03 E5 7E 01 05 03 14 13 13 14 13 05 11  ....~..........
  000000014001B830: 06 01 05 0C 03 95 01 74 05 06 03 EB 7E 2E 05 01  .......t...~...
  000000014001B840: 06 03 79 74 05 03 03 09 01 05 43 06 01 05 0D 4A  ..yt......C....J
  000000014001B850: 05 03 06 3D 05 06 06 01 90 05 01 03 98 01 01 05  ...=............
  000000014001B860: 03 06 03 EA 7E 82 13 05 06 06 01 90 05 03 06 03  ...~...........
  000000014001B870: 90 01 01 05 17 06 01 05 03 06 3D 05 01 03 F7 7E  ..........=...~
  000000014001B880: 01 05 03 14 13 13 14 14 05 25 06 13 05 21 57 05  .........%...!W.
  000000014001B890: 1F 58 05 0E 06 59 05 07 08 BD 05 1A 06 01 05 0A  .X...Y.........
  000000014001B8A0: 74 05 26 59 05 04 3C 05 0F 06 55 05 10 06 01 05  t.&Y..<...U.....
  000000014001B8B0: 0E 06 49 05 0C 06 03 FE 00 58 05 01 34 05 03 06  ..I.....X..4...
  000000014001B8C0: 1D 14 05 3C 06 01 05 01 83 06 89 06 01 05 03 06  ...<............
  000000014001B8D0: 13 13 13 13 13 14 13 05 01 03 CF 7E 01 05 03 14  ..........~....
  000000014001B8E0: 13 13 14 13 05 11 06 01 05 0C 03 AB 01 74 05 06  ............t..
  000000014001B8F0: 03 D5 7E 3C 05 01 06 03 79 82 05 03 03 09 01 05  .~<....y.......
  000000014001B900: 43 06 01 05 0D 4A 05 03 06 3D 05 06 06 01 90 05  C....J...=......
  000000014001B910: 01 03 C4 01 01 05 03 06 03 BE 7E D6 13 05 06 06  ........~....
  000000014001B920: 01 90 05 03 06 03 A7 01 01 14 05 13 06 01 05 03  ...............
  000000014001B930: 06 75 05 06 06 01 05 03 06 4D 05 01 03 DB 7E 01  .u.......M...~.
  000000014001B940: 05 03 14 13 13 14 14 05 21 06 01 05 25 59 05 1F  ........!...%Y..
  000000014001B950: 57 05 0E 06 59 06 9E 05 07 06 08 31 05 1A 06 01  W...Y......1....
  000000014001B960: 05 0A 74 05 26 59 05 04 4A 05 0F 06 55 05 10 06  ..t.&Y..J...U...
  000000014001B970: 01 05 0E 06 49 06 58 05 0C 03 94 01 01 05 01 03  ....I.X.........
  000000014001B980: 1C 3C 05 03 06 03 6D 74 15 05 0E 06 01 05 03 06  .<....mt........
  000000014001B990: 3D 05 07 03 0A 58 3D 05 11 06 01 05 03 06 03 78  =....X=........x
  000000014001B9A0: 4A 01 05 07 14 05 0A 06 01 05 2A 00 02 04 01 90  J.........*.....
  000000014001B9B0: 05 07 06 77 05 0A 06 01 05 08 06 4B 05 30 06 01  ...w.......K.0..
  000000014001B9C0: 05 0F 4A 05 01 42 3C 02 01 00 01 01 36 00 00 00  ..J..B<.....6...
  000000014001B9D0: 05 00 08 00 2E 00 00 00 01 01 01 FB 0E 0D 00 01  ...............
  000000014001B9E0: 01 01 01 00 00 00 01 00 00 01 01 01 1F 02 9D 11  ................
  000000014001B9F0: 00 00 B6 11 00 00 02 01 1F 02 0F 02 DE 11 00 00  ..............
  000000014001BA00: 01 EE 11 00 00 01 A4 00 00 00 05 00 08 00 37 00  ............7.
  000000014001BA10: 00 00 01 01 01 FB 0E 0D 00 01 01 01 01 00 00 00  ...............
  000000014001BA20: 01 00 00 01 01 01 1F 03 4D 12 00 00 66 12 00 00  ........M...f...
  000000014001BA30: 8E 12 00 00 02 01 1F 02 0F 03 AA 12 00 00 01 B8  ..............
  000000014001BA40: 12 00 00 01 C6 12 00 00 02 05 01 00 09 02 A0 25  ..............%
  000000014001BA50: 00 40 01 00 00 00 03 09 01 06 01 05 05 06 67 13  .@............g.
  000000014001BA60: 14 05 22 00 02 04 01 01 05 01 06 0E 05 22 00 02  ..".........."..
  000000014001BA70: 04 01 6A 05 09 06 08 3E 05 0E 06 01 05 0C 3C 05  ..j....>......<.
  000000014001BA80: 09 06 5A 05 10 06 01 05 09 06 2F 05 0C 06 01 05  ..Z......./.....
  000000014001BA90: 33 00 02 04 02 06 45 05 22 00 02 04 01 4A 05 0C  3.....E."....J..
  000000014001BAA0: 06 03 09 58 05 01 2F 58 20 02 01 00 01 01 5A 00  ...X../X .....Z.
  000000014001BAB0: 00 00 05 00 08 00 2E 00 00 00 01 01 01 FB 0E 0D  ...............
  000000014001BAC0: 00 01 01 01 01 00 00 00 01 00 00 01 01 01 1F 02  ................
  000000014001BAD0: 26 13 00 00 3F 13 00 00 02 01 1F 02 0F 02 67 13  &...?.........g.
  000000014001BAE0: 00 00 01 74 13 00 00 01 05 01 00 09 02 E0 25 00  ...t.........%.
  000000014001BAF0: 40 01 00 00 00 03 0C 01 05 05 13 05 0C 06 01 00  @...............
  000000014001BB00: 02 04 01 74 05 01 3D 02 01 00 01 01 5A 00 00 00  ...t..=.....Z...
  000000014001BB10: 05 00 08 00 2E 00 00 00 01 01 01 FB 0E 0D 00 01  ...............
  000000014001BB20: 01 01 01 00 00 00 01 00 00 01 01 01 1F 02 D1 13  ...............
  000000014001BB30: 00 00 EA 13 00 00 02 01 1F 02 0F 02 12 14 00 00  ...............
  000000014001BB40: 01 21 14 00 00 01 05 01 00 09 02 F0 25 00 40 01  .!.........%.@.
  000000014001BB50: 00 00 00 03 0C 01 05 05 13 05 0C 06 01 00 02 04  ................
  000000014001BB60: 01 74 05 01 3D 02 01 00 01 01 5A 00 00 00 05 00  .t..=.....Z.....
  000000014001BB70: 08 00 2E 00 00 00 01 01 01 FB 0E 0D 00 01 01 01  ...............
  000000014001BB80: 01 00 00 00 01 00 00 01 01 01 1F 02 81 14 00 00  ................
  000000014001BB90: 9A 14 00 00 02 01 1F 02 0F 02 C2 14 00 00 01 D2  ..............
  000000014001BBA0: 14 00 00 01 05 01 00 09 02 00 26 00 40 01 00 00  ..........&.@...
  000000014001BBB0: 00 03 0C 01 05 05 13 05 0C 06 01 00 02 04 01 74  ...............t
  000000014001BBC0: 05 01 3D 02 01 00 01 01 9F 00 00 00 05 00 08 00  ..=.............
  000000014001BBD0: 54 00 00 00 01 01 01 FB 0E 0D 00 01 01 01 01 00  T..............
  000000014001BBE0: 00 00 01 00 00 01 01 01 1F 04 3F 15 00 00 58 15  ..........?...X.
  000000014001BBF0: 00 00 80 15 00 00 A5 15 00 00 02 01 1F 02 0F 08  ...............
  000000014001BC00: C1 15 00 00 01 DD 15 00 00 01 F9 15 00 00 02 07  .............
  000000014001BC10: 16 00 00 03 11 16 00 00 03 1A 16 00 00 03 22 16  ..............".
  000000014001BC20: 00 00 03 2F 16 00 00 03 05 01 00 09 02 10 26 00  .../..........&.
  000000014001BC30: 40 01 00 00 00 03 0F 01 05 05 13 05 01 06 13 06  @...............
  000000014001BC40: 03 76 F2 06 01 05 05 06 13 05 01 06 11 04 02 05  .v.............
  000000014001BC50: 07 06 03 E3 0D 3C 05 05 13 05 0C 06 01 74 04 01  ....<.......t..
  000000014001BC60: 05 01 03 9E 72 01 02 01 00 01 01 73 00 00 00 05  ....r......s....
  000000014001BC70: 00 08 00 37 00 00 00 01 01 01 FB 0E 0D 00 01 01  ...7...........
  000000014001BC80: 01 01 00 00 00 01 00 00 01 01 01 1F 03 8A 16 00  ................
  000000014001BC90: 00 A3 16 00 00 CC 16 00 00 02 01 1F 02 0F 03 E8  .............
  000000014001BCA0: 16 00 00 01 F8 16 00 00 01 08 17 00 00 02 05 01  ...............
  000000014001BCB0: 00 09 02 30 26 00 40 01 00 00 00 03 09 01 06 01  ...0&.@.........
  000000014001BCC0: 05 05 06 59 05 01 06 11 05 0E 2F 05 1A 00 02 04  ...Y....../.....
  000000014001BCD0: 01 58 05 0C 00 02 04 01 9E 05 01 3D 58 02 01 00  .X.........=X...
  000000014001BCE0: 01 01                                            ..

RAW DATA #10
  000000014001C000: 14 00 00 00 FF FF FF FF 01 00 01 78 20 0C 07 08  .......x ...
  000000014001C010: A0 01 00 00 00 00 00 00 14 00 00 00 00 00 00 00  ................
  000000014001C020: 00 10 00 40 01 00 00 00 01 00 00 00 00 00 00 00  ...@............
  000000014001C030: 2C 00 00 00 00 00 00 00 10 10 00 40 01 00 00 00  ,..........@....
  000000014001C040: 39 01 00 00 00 00 00 00 44 0E 30 02 A2 0A 0E 08  9.......D.0....
  000000014001C050: 4A 0B 02 5A 0A 0E 08 46 0B 00 00 00 00 00 00 00  J..Z...F........
  000000014001C060: 24 00 00 00 00 00 00 00 50 11 00 40 01 00 00 00  $.......P..@....
  000000014001C070: 53 00 00 00 00 00 00 00 44 0E 50 02 43 0A 0E 08  S.......D.P.C...
  000000014001C080: 41 0B 00 00 00 00 00 00 6C 00 00 00 00 00 00 00  A.......l.......
  000000014001C090: B0 11 00 40 01 00 00 00 3A 02 00 00 00 00 00 00  ..@....:.......
  000000014001C0A0: 42 0E 10 8C 02 41 0E 18 86 03 41 0E 20 85 04 41  B....A....A. ..A
  000000014001C0B0: 0E 28 84 05 41 0E 30 83 06 44 0E 50 03 81 01 0A  .(..A.0..D.P....
  000000014001C0C0: 0E 30 41 C3 0E 28 41 C4 0E 20 41 C5 0E 18 41 C6  .0A.(A. A..A
  000000014001C0D0: 0E 10 42 CC 0E 08 47 0B 02 57 0A 0E 30 41 C3 0E  ..B..G..W..0A.
  000000014001C0E0: 28 41 C4 0E 20 41 C5 0E 18 41 C6 0E 10 42 CC 0E  (A. A..A..B.
  000000014001C0F0: 08 4B 0B 00 00 00 00 00 1C 00 00 00 00 00 00 00  .K..............
  000000014001C100: F0 13 00 40 01 00 00 00 1D 00 00 00 00 00 00 00  ..@............
  000000014001C110: 44 0E 30 58 0E 08 00 00 1C 00 00 00 00 00 00 00  D.0X............
  000000014001C120: 10 14 00 40 01 00 00 00 1D 00 00 00 00 00 00 00  ...@............
  000000014001C130: 44 0E 30 58 0E 08 00 00 14 00 00 00 00 00 00 00  D.0X............
  000000014001C140: 30 14 00 40 01 00 00 00 05 00 00 00 00 00 00 00  0..@............
  000000014001C150: 14 00 00 00 FF FF FF FF 01 00 01 78 20 0C 07 08  .......x ...
  000000014001C160: A0 01 00 00 00 00 00 00 1C 00 00 00 50 01 00 00  ............P...
  000000014001C170: 90 14 00 40 01 00 00 00 42 00 00 00 00 00 00 00  ...@....B.......
  000000014001C180: 44 0E 30 7D 0E 08 00 00 34 00 00 00 50 01 00 00  D.0}....4...P...
  000000014001C190: E0 14 00 40 01 00 00 00 72 00 00 00 00 00 00 00  ..@....r.......
  000000014001C1A0: 41 0E 10 84 02 41 0E 18 83 03 44 0E 40 02 40 0A  A....A....D.@.@.
  000000014001C1B0: 0E 18 41 C3 0E 10 41 C4 0E 08 48 0B 00 00 00 00  ..A..A..H.....
  000000014001C1C0: 14 00 00 00 50 01 00 00 60 15 00 40 01 00 00 00  ....P...`..@....
  000000014001C1D0: 1F 00 00 00 00 00 00 00 14 00 00 00 FF FF FF FF  ............
  000000014001C1E0: 01 00 01 78 20 0C 07 08 A0 01 00 00 00 00 00 00  ...x ...........
  000000014001C1F0: 14 00 00 00 D8 01 00 00 80 15 00 40 01 00 00 00  ..........@....
  000000014001C200: 03 00 00 00 00 00 00 00 14 00 00 00 FF FF FF FF  ............
  000000014001C210: 01 00 01 78 20 0C 07 08 A0 01 00 00 00 00 00 00  ...x ...........
  000000014001C220: 14 00 00 00 08 02 00 00 90 15 00 40 01 00 00 00  ...........@....
  000000014001C230: 15 00 00 00 00 00 00 00 4C 00 00 00 08 02 00 00  ........L.......
  000000014001C240: B0 15 00 40 01 00 00 00 7B 00 00 00 00 00 00 00  ..@....{.......
  000000014001C250: 41 0E 10 84 02 41 0E 18 83 03 44 0E 40 60 0A 0E  A....A....D.@`..
  000000014001C260: 18 41 C3 0E 10 41 C4 0E 08 48 0B 77 0A 0E 18 41  .A..A..H.w...A
  000000014001C270: C3 0E 10 41 C4 0E 08 47 0B 44 0E 18 41 C3 0E 10  ..A..G.D..A..
  000000014001C280: 41 C4 0E 08 00 00 00 00 14 00 00 00 08 02 00 00  A..............
  000000014001C290: 30 16 00 40 01 00 00 00 03 00 00 00 00 00 00 00  0..@............
  000000014001C2A0: 14 00 00 00 FF FF FF FF 01 00 01 78 20 0C 07 08  .......x ...
  000000014001C2B0: A0 01 00 00 00 00 00 00 3C 00 00 00 A0 02 00 00  ........<.......
  000000014001C2C0: 40 16 00 40 01 00 00 00 F8 00 00 00 00 00 00 00  @..@...........
  000000014001C2D0: 41 0E 10 84 02 41 0E 18 83 03 44 0E 90 01 50 97  A....A....D...P.
  000000014001C2E0: 0A 98 08 99 06 02 86 0A D9 D8 D7 0E 18 41 C3 0E  ..........A.
  000000014001C2F0: 10 41 C4 0E 08 42 0B 00 14 00 00 00 FF FF FF FF  .A..B......
  000000014001C300: 01 00 01 78 20 0C 07 08 A0 01 00 00 00 00 00 00  ...x ...........
  000000014001C310: 14 00 00 00 F8 02 00 00 40 17 00 40 01 00 00 00  .......@..@....
  000000014001C320: 03 00 00 00 00 00 00 00 14 00 00 00 FF FF FF FF  ............
  000000014001C330: 01 00 01 78 20 0C 07 08 A0 01 00 00 00 00 00 00  ...x ...........
  000000014001C340: 24 00 00 00 28 03 00 00 50 17 00 40 01 00 00 00  $...(...P..@....
  000000014001C350: 69 00 00 00 00 00 00 00 41 0E 10 84 02 41 0E 18  i.......A....A..
  000000014001C360: 83 03 44 0E 50 00 00 00 3C 00 00 00 28 03 00 00  ..D.P...<...(...
  000000014001C370: C0 17 00 40 01 00 00 00 62 01 00 00 00 00 00 00  ..@....b.......
  000000014001C380: 41 0E 10 85 02 41 0E 18 84 03 41 0E 20 83 04 44  A....A....A. ..D
  000000014001C390: 0E 70 02 D2 0A 0E 20 41 C3 0E 18 41 C4 0E 10 41  .p... A..A..A
  000000014001C3A0: C5 0E 08 44 0B 00 00 00 5C 00 00 00 28 03 00 00  ..D....\...(...
  000000014001C3B0: 30 19 00 40 01 00 00 00 63 03 00 00 00 00 00 00  0..@....c.......
  000000014001C3C0: 41 0E 10 86 02 42 0E 18 8F 03 42 0E 20 8E 04 42  A....B....B. ..B
  000000014001C3D0: 0E 28 8D 05 42 0E 30 8C 06 41 0E 38 85 07 41 0E  .(..B.0..A.8..A.
  000000014001C3E0: 40 84 08 41 0E 48 83 09 44 0E 90 01 45 0C 06 50  @..A.H..D...E..P
  000000014001C3F0: 51 0A C3 41 C4 41 C5 42 CC 42 CD 42 CE 42 CF 41  Q.AABBBBA
  000000014001C400: C6 12 07 01 47 0B 00 00 14 00 00 00 FF FF FF FF  ...G.......
  000000014001C410: 01 00 01 78 20 0C 07 08 A0 01 00 00 00 00 00 00  ...x ...........
  000000014001C420: 1C 00 00 00 08 04 00 00 A0 1C 00 40 01 00 00 00  ...........@....
  000000014001C430: 3E 00 00 00 00 00 00 00 44 0E 60 79 0E 08 00 00  >.......D.`y....
  000000014001C440: 14 00 00 00 08 04 00 00 E0 1C 00 40 01 00 00 00  ..........@....
  000000014001C450: 0C 00 00 00 00 00 00 00 14 00 00 00 FF FF FF FF  ............
  000000014001C460: 01 00 01 78 20 0C 07 08 A0 01 00 00 00 00 00 00  ...x ...........
  000000014001C470: 3C 00 00 00 58 04 00 00 F0 1C 00 40 01 00 00 00  <...X.....@....
  000000014001C480: BD 01 00 00 00 00 00 00 41 0E 10 83 02 44 0E 30  .......A....D.0
  000000014001C490: 02 7D 0A 0E 10 41 C3 0E 08 4D 0B 5D 0A 0E 10 41  .}...A..M.]...A
  000000014001C4A0: C3 0E 08 42 0B 56 0A 0E 10 41 C3 0E 08 49 0B 00  ..B.V...A..I..
  000000014001C4B0: 14 00 00 00 FF FF FF FF 01 00 01 78 20 0C 07 08  .......x ...
  000000014001C4C0: A0 01 00 00 00 00 00 00 4C 00 00 00 B0 04 00 00  ........L......
  000000014001C4D0: C0 1E 00 40 01 00 00 00 78 00 00 00 00 00 00 00  ..@....x.......
  000000014001C4E0: 42 0E 10 8C 02 41 0E 18 86 03 41 0E 20 85 04 41  B....A....A. ..A
  000000014001C4F0: 0E 28 84 05 41 0E 30 83 06 44 0E 50 02 61 0E 30  .(..A.0..D.P.a.0
  000000014001C500: 41 C3 0E 28 41 C4 0E 20 41 C5 0E 18 41 C6 0E 10  A.(A. A..A..
  000000014001C510: 42 CC 0E 08 00 00 00 00 3C 00 00 00 B0 04 00 00  B......<......
  000000014001C520: 40 1F 00 40 01 00 00 00 6F 00 00 00 00 00 00 00  @..@....o.......
  000000014001C530: 41 0E 10 85 02 41 0E 18 84 03 41 0E 20 83 04 44  A....A....A. ..D
  000000014001C540: 0E 40 55 0A 0E 20 41 C3 0E 18 41 C4 0E 10 41 C5  .@U.. A..A..A
  000000014001C550: 0E 08 41 0B 00 00 00 00 44 00 00 00 B0 04 00 00  ..A.....D......
  000000014001C560: B0 1F 00 40 01 00 00 00 91 00 00 00 00 00 00 00  ..@............
  000000014001C570: 41 0E 10 84 02 41 0E 18 83 03 44 0E 40 52 0A 0E  A....A....D.@R..
  000000014001C580: 18 41 C3 0E 10 41 C4 0E 08 46 0B 02 62 0A 0E 18  .A..A..F..b...
  000000014001C590: 41 C3 0E 10 41 C4 0E 08 44 0B 00 00 00 00 00 00  A..A..D.......
  000000014001C5A0: 34 00 00 00 B0 04 00 00 50 20 00 40 01 00 00 00  4......P .@....
  000000014001C5B0: 02 01 00 00 00 00 00 00 41 0E 10 83 02 44 0E 30  ........A....D.0
  000000014001C5C0: 70 0A 0E 10 41 C3 0E 08 4A 0B 02 9E 0A 0E 10 41  p...A..J......A
  000000014001C5D0: C3 0E 08 41 0B 00 00 00 14 00 00 00 FF FF FF FF  ..A........
  000000014001C5E0: 01 00 01 78 20 0C 07 08 A0 01 00 00 00 00 00 00  ...x ...........
  000000014001C5F0: 14 00 00 00 D8 05 00 00 60 21 00 40 01 00 00 00  .......`!.@....
  000000014001C600: 2C 00 00 00 00 00 00 00 14 00 00 00 D8 05 00 00  ,..............
  000000014001C610: 90 21 00 40 01 00 00 00 50 00 00 00 00 00 00 00  .!.@....P.......
  000000014001C620: 4C 00 00 00 D8 05 00 00 E0 21 00 40 01 00 00 00  L......!.@....
  000000014001C630: 9D 00 00 00 00 00 00 00 41 0E 10 85 02 41 0E 18  ........A....A..
  000000014001C640: 84 03 41 0E 20 83 04 44 0E 40 02 7E 0A 0E 20 41  ..A. ..D.@.~.. A
  000000014001C650: C3 0E 18 41 C4 0E 10 41 C5 0E 08 48 0B 49 0E 20  ..A..A..H.I. 
  000000014001C660: 41 C3 0E 18 41 C4 0E 10 41 C5 0E 08 00 00 00 00  A..A..A......
  000000014001C670: 14 00 00 00 D8 05 00 00 80 22 00 40 01 00 00 00  ........".@....
  000000014001C680: 80 00 00 00 00 00 00 00 14 00 00 00 D8 05 00 00  ...............
  000000014001C690: 00 23 00 40 01 00 00 00 37 00 00 00 00 00 00 00  .#.@....7.......
  000000014001C6A0: 14 00 00 00 D8 05 00 00 40 23 00 40 01 00 00 00  .......@#.@....
  000000014001C6B0: 7B 00 00 00 00 00 00 00 14 00 00 00 D8 05 00 00  {..............
  000000014001C6C0: C0 23 00 40 01 00 00 00 36 00 00 00 00 00 00 00  #.@....6.......
  000000014001C6D0: 14 00 00 00 D8 05 00 00 00 24 00 40 01 00 00 00  ........$.@....
  000000014001C6E0: 89 00 00 00 00 00 00 00 14 00 00 00 D8 05 00 00  ...............
  000000014001C6F0: 90 24 00 40 01 00 00 00 C6 00 00 00 00 00 00 00  .$.@...........
  000000014001C700: 14 00 00 00 FF FF FF FF 01 00 01 78 20 0C 07 08  .......x ...
  000000014001C710: A0 01 00 00 00 00 00 00 2C 00 00 00 00 07 00 00  ........,.......
  000000014001C720: A0 25 00 40 01 00 00 00 40 00 00 00 00 00 00 00  .%.@....@.......
  000000014001C730: 41 0E 10 84 02 41 0E 18 83 03 44 0E 40 77 0E 18  A....A....D.@w..
  000000014001C740: 41 C3 0E 10 41 C4 0E 08 14 00 00 00 FF FF FF FF  A..A......
  000000014001C750: 01 00 01 78 20 0C 07 08 A0 01 00 00 00 00 00 00  ...x ...........
  000000014001C760: 14 00 00 00 48 07 00 00 E0 25 00 40 01 00 00 00  ....H...%.@....
  000000014001C770: 0B 00 00 00 00 00 00 00 14 00 00 00 FF FF FF FF  ............
  000000014001C780: 01 00 01 78 20 0C 07 08 A0 01 00 00 00 00 00 00  ...x ...........
  000000014001C790: 14 00 00 00 78 07 00 00 F0 25 00 40 01 00 00 00  ....x...%.@....
  000000014001C7A0: 0B 00 00 00 00 00 00 00 14 00 00 00 FF FF FF FF  ............
  000000014001C7B0: 01 00 01 78 20 0C 07 08 A0 01 00 00 00 00 00 00  ...x ...........
  000000014001C7C0: 14 00 00 00 A8 07 00 00 00 26 00 40 01 00 00 00  ........&.@....
  000000014001C7D0: 0B 00 00 00 00 00 00 00 14 00 00 00 FF FF FF FF  ............
  000000014001C7E0: 01 00 01 78 20 0C 07 08 A0 01 00 00 00 00 00 00  ...x ...........
  000000014001C7F0: 14 00 00 00 D8 07 00 00 10 26 00 40 01 00 00 00  ........&.@....
  000000014001C800: 08 00 00 00 00 00 00 00 14 00 00 00 D8 07 00 00  ...............
  000000014001C810: 20 26 00 40 01 00 00 00 0B 00 00 00 00 00 00 00   &.@............
  000000014001C820: 14 00 00 00 FF FF FF FF 01 00 01 78 20 0C 07 08  .......x ...
  000000014001C830: A0 01 00 00 00 00 00 00 24 00 00 00 20 08 00 00  ........$... ...
  000000014001C840: 30 26 00 40 01 00 00 00 1F 00 00 00 00 00 00 00  0&.@............
  000000014001C850: 41 0E 10 83 02 44 0E 30 58 0E 10 41 C3 0E 08 00  A....D.0X..A...

RAW DATA #11
  000000014001D000: 53 75 62 73 79 73 74 65 6D 00 43 68 65 63 6B 53  Subsystem.CheckS
  000000014001D010: 75 6D 00 53 69 7A 65 4F 66 49 6D 61 67 65 00 42  um.SizeOfImage.B
  000000014001D020: 61 73 65 4F 66 43 6F 64 65 00 53 65 63 74 69 6F  aseOfCode.Sectio
  000000014001D030: 6E 41 6C 69 67 6E 6D 65 6E 74 00 4D 69 6E 6F 72  nAlignment.Minor
  000000014001D040: 53 75 62 73 79 73 74 65 6D 56 65 72 73 69 6F 6E  SubsystemVersion
  000000014001D050: 00 44 61 74 61 44 69 72 65 63 74 6F 72 79 00 53  .DataDirectory.S
  000000014001D060: 69 7A 65 4F 66 53 74 61 63 6B 43 6F 6D 6D 69 74  izeOfStackCommit
  000000014001D070: 00 49 6D 61 67 65 42 61 73 65 00 53 69 7A 65 4F  .ImageBase.SizeO
  000000014001D080: 66 43 6F 64 65 00 4D 61 6A 6F 72 4C 69 6E 6B 65  fCode.MajorLinke
  000000014001D090: 72 56 65 72 73 69 6F 6E 00 53 69 7A 65 4F 66 48  rVersion.SizeOfH
  000000014001D0A0: 65 61 70 52 65 73 65 72 76 65 00 53 69 7A 65 4F  eapReserve.SizeO
  000000014001D0B0: 66 49 6E 69 74 69 61 6C 69 7A 65 64 44 61 74 61  fInitializedData
  000000014001D0C0: 00 53 69 7A 65 4F 66 53 74 61 63 6B 52 65 73 65  .SizeOfStackRese
  000000014001D0D0: 72 76 65 00 53 69 7A 65 4F 66 48 65 61 70 43 6F  rve.SizeOfHeapCo
  000000014001D0E0: 6D 6D 69 74 00 4D 69 6E 6F 72 4C 69 6E 6B 65 72  mmit.MinorLinker
  000000014001D0F0: 56 65 72 73 69 6F 6E 00 5F 5F 65 6E 61 74 69 76  Version.__enativ
  000000014001D100: 65 5F 73 74 61 72 74 75 70 5F 73 74 61 74 65 00  e_startup_state.
  000000014001D110: 53 69 7A 65 4F 66 55 6E 69 6E 69 74 69 61 6C 69  SizeOfUninitiali
  000000014001D120: 7A 65 64 44 61 74 61 00 41 64 64 72 65 73 73 4F  zedData.AddressO
  000000014001D130: 66 45 6E 74 72 79 50 6F 69 6E 74 00 4D 61 6A 6F  fEntryPoint.Majo
  000000014001D140: 72 53 75 62 73 79 73 74 65 6D 56 65 72 73 69 6F  rSubsystemVersio
  000000014001D150: 6E 00 53 69 7A 65 4F 66 48 65 61 64 65 72 73 00  n.SizeOfHeaders.
  000000014001D160: 4D 61 6A 6F 72 4F 70 65 72 61 74 69 6E 67 53 79  MajorOperatingSy
  000000014001D170: 73 74 65 6D 56 65 72 73 69 6F 6E 00 46 69 6C 65  stemVersion.File
  000000014001D180: 41 6C 69 67 6E 6D 65 6E 74 00 4E 75 6D 62 65 72  Alignment.Number
  000000014001D190: 4F 66 52 76 61 41 6E 64 53 69 7A 65 73 00 45 78  OfRvaAndSizes.Ex
  000000014001D1A0: 63 65 70 74 69 6F 6E 52 65 63 6F 72 64 00 44 6C  ceptionRecord.Dl
  000000014001D1B0: 6C 43 68 61 72 61 63 74 65 72 69 73 74 69 63 73  lCharacteristics
  000000014001D1C0: 00 4D 69 6E 6F 72 49 6D 61 67 65 56 65 72 73 69  .MinorImageVersi
  000000014001D1D0: 6F 6E 00 4D 69 6E 6F 72 4F 70 65 72 61 74 69 6E  on.MinorOperatin
  000000014001D1E0: 67 53 79 73 74 65 6D 56 65 72 73 69 6F 6E 00 4C  gSystemVersion.L
  000000014001D1F0: 6F 61 64 65 72 46 6C 61 67 73 00 57 69 6E 33 32  oaderFlags.Win32
  000000014001D200: 56 65 72 73 69 6F 6E 56 61 6C 75 65 00 4D 61 6A  VersionValue.Maj
  000000014001D210: 6F 72 49 6D 61 67 65 56 65 72 73 69 6F 6E 00 5F  orImageVersion._
  000000014001D220: 5F 65 6E 61 74 69 76 65 5F 73 74 61 72 74 75 70  _enative_startup
  000000014001D230: 5F 73 74 61 74 65 00 68 44 6C 6C 48 61 6E 64 6C  _state.hDllHandl
  000000014001D240: 65 00 6C 70 72 65 73 65 72 76 65 64 00 64 77 52  e.lpreserved.dwR
  000000014001D250: 65 61 73 6F 6E 00 73 53 65 63 49 6E 66 6F 00 45  eason.sSecInfo.E
  000000014001D260: 78 63 65 70 74 69 6F 6E 52 65 63 6F 72 64 00 70  xceptionRecord.p
  000000014001D270: 53 65 63 74 69 6F 6E 00 54 69 6D 65 44 61 74 65  Section.TimeDate
  000000014001D280: 53 74 61 6D 70 00 70 4E 54 48 65 61 64 65 72 00  Stamp.pNTHeader.
  000000014001D290: 43 68 61 72 61 63 74 65 72 69 73 74 69 63 73 00  Characteristics.
  000000014001D2A0: 70 49 6D 61 67 65 42 61 73 65 00 56 69 72 74 75  pImageBase.Virtu
  000000014001D2B0: 61 6C 41 64 64 72 65 73 73 00 69 53 65 63 74 69  alAddress.iSecti
  000000014001D2C0: 6F 6E 00                                         on.

RAW DATA #12
  000000014001E000: 43 3A 2F 4D 2F 42 2F 73 72 63 2F 6D 69 6E 67 77  C:/M/B/src/mingw
  000000014001E010: 2D 77 36 34 2F 6D 69 6E 67 77 2D 77 36 34 2D 63  -w64/mingw-w64-c
  000000014001E020: 72 74 2F 63 72 74 2F 63 72 74 65 78 65 2E 63 00  rt/crt/crtexe.c.
  000000014001E030: 43 3A 5C 4D 5C 42 5C 73 72 63 5C 62 75 69 6C 64  C:\M\B\src\build
  000000014001E040: 2D 4D 49 4E 47 57 36 34 00 43 3A 2F 4D 2F 42 2F  -MINGW64.C:/M/B/
  000000014001E050: 73 72 63 2F 62 75 69 6C 64 2D 4D 49 4E 47 57 36  src/build-MINGW6
  000000014001E060: 34 00 43 3A 2F 4D 2F 42 2F 73 72 63 2F 6D 69 6E  4.C:/M/B/src/min
  000000014001E070: 67 77 2D 77 36 34 2F 6D 69 6E 67 77 2D 77 36 34  gw-w64/mingw-w64
  000000014001E080: 2D 63 72 74 2F 63 72 74 00 44 3A 2F 61 2F 6D 73  -crt/crt.D:/a/ms
  000000014001E090: 79 73 36 34 2F 6D 69 6E 67 77 36 34 2F 69 6E 63  ys64/mingw64/inc
  000000014001E0A0: 6C 75 64 65 00 44 3A 2F 61 2F 6D 73 79 73 36 34  lude.D:/a/msys64
  000000014001E0B0: 2F 6D 69 6E 67 77 36 34 2F 69 6E 63 6C 75 64 65  /mingw64/include
  000000014001E0C0: 2F 70 73 64 6B 5F 69 6E 63 00 43 3A 2F 4D 2F 42  /psdk_inc.C:/M/B
  000000014001E0D0: 2F 73 72 63 2F 6D 69 6E 67 77 2D 77 36 34 2F 6D  /src/mingw-w64/m
  000000014001E0E0: 69 6E 67 77 2D 77 36 34 2D 63 72 74 2F 69 6E 63  ingw-w64-crt/inc
  000000014001E0F0: 6C 75 64 65 00 63 72 74 65 78 65 2E 63 00 63 72  lude.crtexe.c.cr
  000000014001E100: 74 65 78 65 2E 63 00 77 69 6E 6E 74 2E 68 00 69  texe.c.winnt.h.i
  000000014001E110: 6E 74 72 69 6E 2D 69 6D 70 6C 2E 68 00 63 6F 72  ntrin-impl.h.cor
  000000014001E120: 65 63 72 74 2E 68 00 6D 69 6E 77 69 6E 64 65 66  ecrt.h.minwindef
  000000014001E130: 2E 68 00 62 61 73 65 74 73 64 2E 68 00 73 74 64  .h.basetsd.h.std
  000000014001E140: 6C 69 62 2E 68 00 65 72 72 68 61 6E 64 6C 69 6E  lib.h.errhandlin
  000000014001E150: 67 61 70 69 2E 68 00 63 6F 6D 62 61 73 65 61 70  gapi.h.combaseap
  000000014001E160: 69 2E 68 00 77 74 79 70 65 73 2E 68 00 63 74 79  i.h.wtypes.h.cty
  000000014001E170: 70 65 2E 68 00 69 6E 74 65 72 6E 61 6C 2E 68 00  pe.h.internal.h.
  000000014001E180: 63 6F 72 65 63 72 74 5F 73 74 61 72 74 75 70 2E  corecrt_startup.
  000000014001E190: 68 00 6D 61 74 68 2E 68 00 74 63 68 61 72 2E 68  h.math.h.tchar.h
  000000014001E1A0: 00 73 74 72 69 6E 67 2E 68 00 70 72 6F 63 65 73  .string.h.proces
  000000014001E1B0: 73 2E 68 00 73 79 6E 63 68 61 70 69 2E 68 00 3C  s.h.synchapi.h.<
  000000014001E1C0: 62 75 69 6C 74 2D 69 6E 3E 00 43 3A 2F 4D 2F 42  built-in>.C:/M/B
  000000014001E1D0: 2F 73 72 63 2F 6D 69 6E 67 77 2D 77 36 34 2F 6D  /src/mingw-w64/m
  000000014001E1E0: 69 6E 67 77 2D 77 36 34 2D 63 72 74 2F 63 72 74  ingw-w64-crt/crt
  000000014001E1F0: 2F 67 63 63 6D 61 69 6E 2E 63 00 43 3A 5C 4D 5C  /gccmain.c.C:\M\
  000000014001E200: 42 5C 73 72 63 5C 62 75 69 6C 64 2D 4D 49 4E 47  B\src\build-MING
  000000014001E210: 57 36 34 00 43 3A 2F 4D 2F 42 2F 73 72 63 2F 62  W64.C:/M/B/src/b
  000000014001E220: 75 69 6C 64 2D 4D 49 4E 47 57 36 34 00 43 3A 2F  uild-MINGW64.C:/
  000000014001E230: 4D 2F 42 2F 73 72 63 2F 6D 69 6E 67 77 2D 77 36  M/B/src/mingw-w6
  000000014001E240: 34 2F 6D 69 6E 67 77 2D 77 36 34 2D 63 72 74 2F  4/mingw-w64-crt/
  000000014001E250: 63 72 74 00 44 3A 2F 61 2F 6D 73 79 73 36 34 2F  crt.D:/a/msys64/
  000000014001E260: 6D 69 6E 67 77 36 34 2F 69 6E 63 6C 75 64 65 00  mingw64/include.
  000000014001E270: 67 63 63 6D 61 69 6E 2E 63 00 67 63 63 6D 61 69  gccmain.c.gccmai
  000000014001E280: 6E 2E 63 00 77 69 6E 6E 74 2E 68 00 63 6F 6D 62  n.c.winnt.h.comb
  000000014001E290: 61 73 65 61 70 69 2E 68 00 77 74 79 70 65 73 2E  aseapi.h.wtypes.
  000000014001E2A0: 68 00 63 6F 72 65 63 72 74 2E 68 00 73 74 64 6C  h.corecrt.h.stdl
  000000014001E2B0: 69 62 2E 68 00 43 3A 2F 4D 2F 42 2F 73 72 63 2F  ib.h.C:/M/B/src/
  000000014001E2C0: 6D 69 6E 67 77 2D 77 36 34 2F 6D 69 6E 67 77 2D  mingw-w64/mingw-
  000000014001E2D0: 77 36 34 2D 63 72 74 2F 63 72 74 2F 6E 61 74 73  w64-crt/crt/nats
  000000014001E2E0: 74 61 72 74 2E 63 00 43 3A 5C 4D 5C 42 5C 73 72  tart.c.C:\M\B\sr
  000000014001E2F0: 63 5C 62 75 69 6C 64 2D 4D 49 4E 47 57 36 34 00  c\build-MINGW64.
  000000014001E300: 43 3A 2F 4D 2F 42 2F 73 72 63 2F 62 75 69 6C 64  C:/M/B/src/build
  000000014001E310: 2D 4D 49 4E 47 57 36 34 00 43 3A 2F 4D 2F 42 2F  -MINGW64.C:/M/B/
  000000014001E320: 73 72 63 2F 6D 69 6E 67 77 2D 77 36 34 2F 6D 69  src/mingw-w64/mi
  000000014001E330: 6E 67 77 2D 77 36 34 2D 63 72 74 2F 63 72 74 00  ngw-w64-crt/crt.
  000000014001E340: 44 3A 2F 61 2F 6D 73 79 73 36 34 2F 6D 69 6E 67  D:/a/msys64/ming
  000000014001E350: 77 36 34 2F 69 6E 63 6C 75 64 65 00 43 3A 2F 4D  w64/include.C:/M
  000000014001E360: 2F 42 2F 73 72 63 2F 6D 69 6E 67 77 2D 77 36 34  /B/src/mingw-w64
  000000014001E370: 2F 6D 69 6E 67 77 2D 77 36 34 2D 63 72 74 2F 69  /mingw-w64-crt/i
  000000014001E380: 6E 63 6C 75 64 65 00 6E 61 74 73 74 61 72 74 2E  nclude.natstart.
  000000014001E390: 63 00 77 69 6E 6E 74 2E 68 00 63 6F 6D 62 61 73  c.winnt.h.combas
  000000014001E3A0: 65 61 70 69 2E 68 00 77 74 79 70 65 73 2E 68 00  eapi.h.wtypes.h.
  000000014001E3B0: 69 6E 74 65 72 6E 61 6C 2E 68 00 6E 61 74 73 74  internal.h.natst
  000000014001E3C0: 61 72 74 2E 63 00 43 3A 2F 4D 2F 42 2F 73 72 63  art.c.C:/M/B/src
  000000014001E3D0: 2F 6D 69 6E 67 77 2D 77 36 34 2F 6D 69 6E 67 77  /mingw-w64/mingw
  000000014001E3E0: 2D 77 36 34 2D 63 72 74 2F 63 72 74 2F 77 69 6C  -w64-crt/crt/wil
  000000014001E3F0: 64 63 61 72 64 2E 63 00 43 3A 5C 4D 5C 42 5C 73  dcard.c.C:\M\B\s
  000000014001E400: 72 63 5C 62 75 69 6C 64 2D 4D 49 4E 47 57 36 34  rc\build-MINGW64
  000000014001E410: 00 43 3A 2F 4D 2F 42 2F 73 72 63 2F 62 75 69 6C  .C:/M/B/src/buil
  000000014001E420: 64 2D 4D 49 4E 47 57 36 34 00 43 3A 2F 4D 2F 42  d-MINGW64.C:/M/B
  000000014001E430: 2F 73 72 63 2F 6D 69 6E 67 77 2D 77 36 34 2F 6D  /src/mingw-w64/m
  000000014001E440: 69 6E 67 77 2D 77 36 34 2D 63 72 74 2F 63 72 74  ingw-w64-crt/crt
  000000014001E450: 00 77 69 6C 64 63 61 72 64 2E 63 00 77 69 6C 64  .wildcard.c.wild
  000000014001E460: 63 61 72 64 2E 63 00 43 3A 2F 4D 2F 42 2F 73 72  card.c.C:/M/B/sr
  000000014001E470: 63 2F 6D 69 6E 67 77 2D 77 36 34 2F 6D 69 6E 67  c/mingw-w64/ming
  000000014001E480: 77 2D 77 36 34 2D 63 72 74 2F 63 72 74 2F 64 6C  w-w64-crt/crt/dl
  000000014001E490: 6C 61 72 67 76 2E 63 00 43 3A 5C 4D 5C 42 5C 73  largv.c.C:\M\B\s
  000000014001E4A0: 72 63 5C 62 75 69 6C 64 2D 4D 49 4E 47 57 36 34  rc\build-MINGW64
  000000014001E4B0: 00 43 3A 2F 4D 2F 42 2F 73 72 63 2F 62 75 69 6C  .C:/M/B/src/buil
  000000014001E4C0: 64 2D 4D 49 4E 47 57 36 34 00 43 3A 2F 4D 2F 42  d-MINGW64.C:/M/B
  000000014001E4D0: 2F 73 72 63 2F 6D 69 6E 67 77 2D 77 36 34 2F 6D  /src/mingw-w64/m
  000000014001E4E0: 69 6E 67 77 2D 77 36 34 2D 63 72 74 2F 63 72 74  ingw-w64-crt/crt
  000000014001E4F0: 00 64 6C 6C 61 72 67 76 2E 63 00 64 6C 6C 61 72  .dllargv.c.dllar
  000000014001E500: 67 76 2E 63 00 43 3A 5C 4D 5C 42 5C 73 72 63 5C  gv.c.C:\M\B\src\
  000000014001E510: 62 75 69 6C 64 2D 4D 49 4E 47 57 36 34 00 43 3A  build-MINGW64.C:
  000000014001E520: 2F 4D 2F 42 2F 73 72 63 2F 6D 69 6E 67 77 2D 77  /M/B/src/mingw-w
  000000014001E530: 36 34 2F 6D 69 6E 67 77 2D 77 36 34 2D 63 72 74  64/mingw-w64-crt
  000000014001E540: 2F 63 72 74 2F 5F 6E 65 77 6D 6F 64 65 2E 63 00  /crt/_newmode.c.
  000000014001E550: 43 3A 2F 4D 2F 42 2F 73 72 63 2F 62 75 69 6C 64  C:/M/B/src/build
  000000014001E560: 2D 4D 49 4E 47 57 36 34 00 43 3A 2F 4D 2F 42 2F  -MINGW64.C:/M/B/
  000000014001E570: 73 72 63 2F 6D 69 6E 67 77 2D 77 36 34 2F 6D 69  src/mingw-w64/mi
  000000014001E580: 6E 67 77 2D 77 36 34 2D 63 72 74 2F 63 72 74 00  ngw-w64-crt/crt.
  000000014001E590: 5F 6E 65 77 6D 6F 64 65 2E 63 00 5F 6E 65 77 6D  _newmode.c._newm
  000000014001E5A0: 6F 64 65 2E 63 00 43 3A 5C 4D 5C 42 5C 73 72 63  ode.c.C:\M\B\src
  000000014001E5B0: 5C 62 75 69 6C 64 2D 4D 49 4E 47 57 36 34 00 43  \build-MINGW64.C
  000000014001E5C0: 3A 2F 4D 2F 42 2F 73 72 63 2F 6D 69 6E 67 77 2D  :/M/B/src/mingw-
  000000014001E5D0: 77 36 34 2F 6D 69 6E 67 77 2D 77 36 34 2D 63 72  w64/mingw-w64-cr
  000000014001E5E0: 74 2F 63 72 74 2F 74 6C 73 73 75 70 2E 63 00 43  t/crt/tlssup.c.C
  000000014001E5F0: 3A 2F 4D 2F 42 2F 73 72 63 2F 62 75 69 6C 64 2D  :/M/B/src/build-
  000000014001E600: 4D 49 4E 47 57 36 34 00 43 3A 2F 4D 2F 42 2F 73  MINGW64.C:/M/B/s
  000000014001E610: 72 63 2F 6D 69 6E 67 77 2D 77 36 34 2F 6D 69 6E  rc/mingw-w64/min
  000000014001E620: 67 77 2D 77 36 34 2D 63 72 74 2F 63 72 74 00 44  gw-w64-crt/crt.D
  000000014001E630: 3A 2F 61 2F 6D 73 79 73 36 34 2F 6D 69 6E 67 77  :/a/msys64/mingw
  000000014001E640: 36 34 2F 69 6E 63 6C 75 64 65 00 74 6C 73 73 75  64/include.tlssu
  000000014001E650: 70 2E 63 00 74 6C 73 73 75 70 2E 63 00 63 6F 72  p.c.tlssup.c.cor
  000000014001E660: 65 63 72 74 2E 68 00 6D 69 6E 77 69 6E 64 65 66  ecrt.h.minwindef
  000000014001E670: 2E 68 00 62 61 73 65 74 73 64 2E 68 00 77 69 6E  .h.basetsd.h.win
  000000014001E680: 6E 74 2E 68 00 63 6F 72 65 63 72 74 5F 73 74 61  nt.h.corecrt_sta
  000000014001E690: 72 74 75 70 2E 68 00 43 3A 2F 4D 2F 42 2F 73 72  rtup.h.C:/M/B/sr
  000000014001E6A0: 63 2F 6D 69 6E 67 77 2D 77 36 34 2F 6D 69 6E 67  c/mingw-w64/ming
  000000014001E6B0: 77 2D 77 36 34 2D 63 72 74 2F 63 72 74 2F 78 6E  w-w64-crt/crt/xn
  000000014001E6C0: 63 6F 6D 6D 6F 64 2E 63 00 43 3A 5C 4D 5C 42 5C  commod.c.C:\M\B\
  000000014001E6D0: 73 72 63 5C 62 75 69 6C 64 2D 4D 49 4E 47 57 36  src\build-MINGW6
  000000014001E6E0: 34 00 43 3A 2F 4D 2F 42 2F 73 72 63 2F 62 75 69  4.C:/M/B/src/bui
  000000014001E6F0: 6C 64 2D 4D 49 4E 47 57 36 34 00 43 3A 2F 4D 2F  ld-MINGW64.C:/M/
  000000014001E700: 42 2F 73 72 63 2F 6D 69 6E 67 77 2D 77 36 34 2F  B/src/mingw-w64/
  000000014001E710: 6D 69 6E 67 77 2D 77 36 34 2D 63 72 74 2F 63 72  mingw-w64-crt/cr
  000000014001E720: 74 00 78 6E 63 6F 6D 6D 6F 64 2E 63 00 78 6E 63  t.xncommod.c.xnc
  000000014001E730: 6F 6D 6D 6F 64 2E 63 00 43 3A 2F 4D 2F 42 2F 73  ommod.c.C:/M/B/s
  000000014001E740: 72 63 2F 6D 69 6E 67 77 2D 77 36 34 2F 6D 69 6E  rc/mingw-w64/min
  000000014001E750: 67 77 2D 77 36 34 2D 63 72 74 2F 63 72 74 2F 63  gw-w64-crt/crt/c
  000000014001E760: 69 6E 69 74 65 78 65 2E 63 00 43 3A 5C 4D 5C 42  initexe.c.C:\M\B
  000000014001E770: 5C 73 72 63 5C 62 75 69 6C 64 2D 4D 49 4E 47 57  \src\build-MINGW
  000000014001E780: 36 34 00 43 3A 2F 4D 2F 42 2F 73 72 63 2F 62 75  64.C:/M/B/src/bu
  000000014001E790: 69 6C 64 2D 4D 49 4E 47 57 36 34 00 43 3A 2F 4D  ild-MINGW64.C:/M
  000000014001E7A0: 2F 42 2F 73 72 63 2F 6D 69 6E 67 77 2D 77 36 34  /B/src/mingw-w64
  000000014001E7B0: 2F 6D 69 6E 67 77 2D 77 36 34 2D 63 72 74 2F 63  /mingw-w64-crt/c
  000000014001E7C0: 72 74 00 44 3A 2F 61 2F 6D 73 79 73 36 34 2F 6D  rt.D:/a/msys64/m
  000000014001E7D0: 69 6E 67 77 36 34 2F 69 6E 63 6C 75 64 65 00 63  ingw64/include.c
  000000014001E7E0: 69 6E 69 74 65 78 65 2E 63 00 63 6F 72 65 63 72  initexe.c.corecr
  000000014001E7F0: 74 5F 73 74 61 72 74 75 70 2E 68 00 63 69 6E 69  t_startup.h.cini
  000000014001E800: 74 65 78 65 2E 63 00 43 3A 2F 4D 2F 42 2F 73 72  texe.c.C:/M/B/sr
  000000014001E810: 63 2F 6D 69 6E 67 77 2D 77 36 34 2F 6D 69 6E 67  c/mingw-w64/ming
  000000014001E820: 77 2D 77 36 34 2D 63 72 74 2F 63 72 74 2F 6D 65  w-w64-crt/crt/me
  000000014001E830: 72 72 2E 63 00 43 3A 5C 4D 5C 42 5C 73 72 63 5C  rr.c.C:\M\B\src\
  000000014001E840: 62 75 69 6C 64 2D 4D 49 4E 47 57 36 34 00 43 3A  build-MINGW64.C:
  000000014001E850: 2F 4D 2F 42 2F 73 72 63 2F 62 75 69 6C 64 2D 4D  /M/B/src/build-M
  000000014001E860: 49 4E 47 57 36 34 00 43 3A 2F 4D 2F 42 2F 73 72  INGW64.C:/M/B/sr
  000000014001E870: 63 2F 6D 69 6E 67 77 2D 77 36 34 2F 6D 69 6E 67  c/mingw-w64/ming
  000000014001E880: 77 2D 77 36 34 2D 63 72 74 2F 63 72 74 00 44 3A  w-w64-crt/crt.D:
  000000014001E890: 2F 61 2F 6D 73 79 73 36 34 2F 6D 69 6E 67 77 36  /a/msys64/mingw6
  000000014001E8A0: 34 2F 69 6E 63 6C 75 64 65 00 6D 65 72 72 2E 63  4/include.merr.c
  000000014001E8B0: 00 6D 65 72 72 2E 63 00 6D 61 74 68 2E 68 00 73  .merr.c.math.h.s
  000000014001E8C0: 74 64 69 6F 2E 68 00 43 3A 2F 4D 2F 42 2F 73 72  tdio.h.C:/M/B/sr
  000000014001E8D0: 63 2F 6D 69 6E 67 77 2D 77 36 34 2F 6D 69 6E 67  c/mingw-w64/ming
  000000014001E8E0: 77 2D 77 36 34 2D 63 72 74 2F 63 72 74 2F 43 52  w-w64-crt/crt/CR
  000000014001E8F0: 54 5F 66 70 31 30 2E 63 00 43 3A 5C 4D 5C 42 5C  T_fp10.c.C:\M\B\
  000000014001E900: 73 72 63 5C 62 75 69 6C 64 2D 4D 49 4E 47 57 36  src\build-MINGW6
  000000014001E910: 34 00 43 3A 2F 4D 2F 42 2F 73 72 63 2F 62 75 69  4.C:/M/B/src/bui
  000000014001E920: 6C 64 2D 4D 49 4E 47 57 36 34 00 43 3A 2F 4D 2F  ld-MINGW64.C:/M/
  000000014001E930: 42 2F 73 72 63 2F 6D 69 6E 67 77 2D 77 36 34 2F  B/src/mingw-w64/
  000000014001E940: 6D 69 6E 67 77 2D 77 36 34 2D 63 72 74 2F 63 72  mingw-w64-crt/cr
  000000014001E950: 74 00 43 52 54 5F 66 70 31 30 2E 63 00 43 52 54  t.CRT_fp10.c.CRT
  000000014001E960: 5F 66 70 31 30 2E 63 00 43 3A 2F 4D 2F 42 2F 73  _fp10.c.C:/M/B/s
  000000014001E970: 72 63 2F 6D 69 6E 67 77 2D 77 36 34 2F 6D 69 6E  rc/mingw-w64/min
  000000014001E980: 67 77 2D 77 36 34 2D 63 72 74 2F 63 72 74 2F 6D  gw-w64-crt/crt/m
  000000014001E990: 69 6E 67 77 5F 68 65 6C 70 65 72 73 2E 63 00 43  ingw_helpers.c.C
  000000014001E9A0: 3A 5C 4D 5C 42 5C 73 72 63 5C 62 75 69 6C 64 2D  :\M\B\src\build-
  000000014001E9B0: 4D 49 4E 47 57 36 34 00 43 3A 2F 4D 2F 42 2F 73  MINGW64.C:/M/B/s
  000000014001E9C0: 72 63 2F 62 75 69 6C 64 2D 4D 49 4E 47 57 36 34  rc/build-MINGW64
  000000014001E9D0: 00 43 3A 2F 4D 2F 42 2F 73 72 63 2F 6D 69 6E 67  .C:/M/B/src/ming
  000000014001E9E0: 77 2D 77 36 34 2F 6D 69 6E 67 77 2D 77 36 34 2D  w-w64/mingw-w64-
  000000014001E9F0: 63 72 74 2F 63 72 74 00 6D 69 6E 67 77 5F 68 65  crt/crt.mingw_he
  000000014001EA00: 6C 70 65 72 73 2E 63 00 6D 69 6E 67 77 5F 68 65  lpers.c.mingw_he
  000000014001EA10: 6C 70 65 72 73 2E 63 00 43 3A 2F 4D 2F 42 2F 73  lpers.c.C:/M/B/s
  000000014001EA20: 72 63 2F 6D 69 6E 67 77 2D 77 36 34 2F 6D 69 6E  rc/mingw-w64/min
  000000014001EA30: 67 77 2D 77 36 34 2D 63 72 74 2F 63 72 74 2F 70  gw-w64-crt/crt/p
  000000014001EA40: 73 65 75 64 6F 2D 72 65 6C 6F 63 2E 63 00 43 3A  seudo-reloc.c.C:
  000000014001EA50: 5C 4D 5C 42 5C 73 72 63 5C 62 75 69 6C 64 2D 4D  \M\B\src\build-M
  000000014001EA60: 49 4E 47 57 36 34 00 43 3A 2F 4D 2F 42 2F 73 72  INGW64.C:/M/B/sr
  000000014001EA70: 63 2F 62 75 69 6C 64 2D 4D 49 4E 47 57 36 34 00  c/build-MINGW64.
  000000014001EA80: 43 3A 2F 4D 2F 42 2F 73 72 63 2F 6D 69 6E 67 77  C:/M/B/src/mingw
  000000014001EA90: 2D 77 36 34 2F 6D 69 6E 67 77 2D 77 36 34 2D 63  -w64/mingw-w64-c
  000000014001EAA0: 72 74 2F 63 72 74 00 44 3A 2F 61 2F 6D 73 79 73  rt/crt.D:/a/msys
  000000014001EAB0: 36 34 2F 6D 69 6E 67 77 36 34 2F 69 6E 63 6C 75  64/mingw64/inclu
  000000014001EAC0: 64 65 00 70 73 65 75 64 6F 2D 72 65 6C 6F 63 2E  de.pseudo-reloc.
  000000014001EAD0: 63 00 70 73 65 75 64 6F 2D 72 65 6C 6F 63 2E 63  c.pseudo-reloc.c
  000000014001EAE0: 00 76 61 64 65 66 73 2E 68 00 63 6F 72 65 63 72  .vadefs.h.corecr
  000000014001EAF0: 74 2E 68 00 6D 69 6E 77 69 6E 64 65 66 2E 68 00  t.h.minwindef.h.
  000000014001EB00: 62 61 73 65 74 73 64 2E 68 00 77 69 6E 6E 74 2E  basetsd.h.winnt.
  000000014001EB10: 68 00 63 6F 6D 62 61 73 65 61 70 69 2E 68 00 77  h.combaseapi.h.w
  000000014001EB20: 74 79 70 65 73 2E 68 00 73 74 64 69 6F 2E 68 00  types.h.stdio.h.
  000000014001EB30: 6D 65 6D 6F 72 79 61 70 69 2E 68 00 65 72 72 68  memoryapi.h.errh
  000000014001EB40: 61 6E 64 6C 69 6E 67 61 70 69 2E 68 00 73 74 72  andlingapi.h.str
  000000014001EB50: 69 6E 67 2E 68 00 73 74 64 6C 69 62 2E 68 00 3C  ing.h.stdlib.h.<
  000000014001EB60: 62 75 69 6C 74 2D 69 6E 3E 00 43 3A 2F 4D 2F 42  built-in>.C:/M/B
  000000014001EB70: 2F 73 72 63 2F 6D 69 6E 67 77 2D 77 36 34 2F 6D  /src/mingw-w64/m
  000000014001EB80: 69 6E 67 77 2D 77 36 34 2D 63 72 74 2F 63 72 74  ingw-w64-crt/crt
  000000014001EB90: 2F 75 73 65 72 6D 61 74 68 65 72 72 2E 63 00 43  /usermatherr.c.C
  000000014001EBA0: 3A 5C 4D 5C 42 5C 73 72 63 5C 62 75 69 6C 64 2D  :\M\B\src\build-
  000000014001EBB0: 4D 49 4E 47 57 36 34 00 43 3A 2F 4D 2F 42 2F 73  MINGW64.C:/M/B/s
  000000014001EBC0: 72 63 2F 62 75 69 6C 64 2D 4D 49 4E 47 57 36 34  rc/build-MINGW64
  000000014001EBD0: 00 43 3A 2F 4D 2F 42 2F 73 72 63 2F 6D 69 6E 67  .C:/M/B/src/ming
  000000014001EBE0: 77 2D 77 36 34 2F 6D 69 6E 67 77 2D 77 36 34 2D  w-w64/mingw-w64-
  000000014001EBF0: 63 72 74 2F 63 72 74 00 44 3A 2F 61 2F 6D 73 79  crt/crt.D:/a/msy
  000000014001EC00: 73 36 34 2F 6D 69 6E 67 77 36 34 2F 69 6E 63 6C  s64/mingw64/incl
  000000014001EC10: 75 64 65 00 75 73 65 72 6D 61 74 68 65 72 72 2E  ude.usermatherr.
  000000014001EC20: 63 00 75 73 65 72 6D 61 74 68 65 72 72 2E 63 00  c.usermatherr.c.
  000000014001EC30: 6D 61 74 68 2E 68 00 43 3A 2F 4D 2F 42 2F 73 72  math.h.C:/M/B/sr
  000000014001EC40: 63 2F 6D 69 6E 67 77 2D 77 36 34 2F 6D 69 6E 67  c/mingw-w64/ming
  000000014001EC50: 77 2D 77 36 34 2D 63 72 74 2F 63 72 74 2F 78 74  w-w64-crt/crt/xt
  000000014001EC60: 78 74 6D 6F 64 65 2E 63 00 43 3A 5C 4D 5C 42 5C  xtmode.c.C:\M\B\
  000000014001EC70: 73 72 63 5C 62 75 69 6C 64 2D 4D 49 4E 47 57 36  src\build-MINGW6
  000000014001EC80: 34 00 43 3A 2F 4D 2F 42 2F 73 72 63 2F 62 75 69  4.C:/M/B/src/bui
  000000014001EC90: 6C 64 2D 4D 49 4E 47 57 36 34 00 43 3A 2F 4D 2F  ld-MINGW64.C:/M/
  000000014001ECA0: 42 2F 73 72 63 2F 6D 69 6E 67 77 2D 77 36 34 2F  B/src/mingw-w64/
  000000014001ECB0: 6D 69 6E 67 77 2D 77 36 34 2D 63 72 74 2F 63 72  mingw-w64-crt/cr
  000000014001ECC0: 74 00 78 74 78 74 6D 6F 64 65 2E 63 00 78 74 78  t.xtxtmode.c.xtx
  000000014001ECD0: 74 6D 6F 64 65 2E 63 00 43 3A 5C 4D 5C 42 5C 73  tmode.c.C:\M\B\s
  000000014001ECE0: 72 63 5C 62 75 69 6C 64 2D 4D 49 4E 47 57 36 34  rc\build-MINGW64
  000000014001ECF0: 00 43 3A 2F 4D 2F 42 2F 73 72 63 2F 6D 69 6E 67  .C:/M/B/src/ming
  000000014001ED00: 77 2D 77 36 34 2F 6D 69 6E 67 77 2D 77 36 34 2D  w-w64/mingw-w64-
  000000014001ED10: 63 72 74 2F 63 72 74 2F 63 72 74 5F 68 61 6E 64  crt/crt/crt_hand
  000000014001ED20: 6C 65 72 2E 63 00 43 3A 2F 4D 2F 42 2F 73 72 63  ler.c.C:/M/B/src
  000000014001ED30: 2F 62 75 69 6C 64 2D 4D 49 4E 47 57 36 34 00 43  /build-MINGW64.C
  000000014001ED40: 3A 2F 4D 2F 42 2F 73 72 63 2F 6D 69 6E 67 77 2D  :/M/B/src/mingw-
  000000014001ED50: 77 36 34 2F 6D 69 6E 67 77 2D 77 36 34 2D 63 72  w64/mingw-w64-cr
  000000014001ED60: 74 2F 63 72 74 00 44 3A 2F 61 2F 6D 73 79 73 36  t/crt.D:/a/msys6
  000000014001ED70: 34 2F 6D 69 6E 67 77 36 34 2F 69 6E 63 6C 75 64  4/mingw64/includ
  000000014001ED80: 65 00 63 72 74 5F 68 61 6E 64 6C 65 72 2E 63 00  e.crt_handler.c.
  000000014001ED90: 63 72 74 5F 68 61 6E 64 6C 65 72 2E 63 00 77 69  crt_handler.c.wi
  000000014001EDA0: 6E 6E 74 2E 68 00 6D 69 6E 77 69 6E 64 65 66 2E  nnt.h.minwindef.
  000000014001EDB0: 68 00 62 61 73 65 74 73 64 2E 68 00 65 72 72 68  h.basetsd.h.errh
  000000014001EDC0: 61 6E 64 6C 69 6E 67 61 70 69 2E 68 00 63 6F 6D  andlingapi.h.com
  000000014001EDD0: 62 61 73 65 61 70 69 2E 68 00 77 74 79 70 65 73  baseapi.h.wtypes
  000000014001EDE0: 2E 68 00 73 69 67 6E 61 6C 2E 68 00 43 3A 2F 4D  .h.signal.h.C:/M
  000000014001EDF0: 2F 42 2F 73 72 63 2F 6D 69 6E 67 77 2D 77 36 34  /B/src/mingw-w64
  000000014001EE00: 2F 6D 69 6E 67 77 2D 77 36 34 2D 63 72 74 2F 63  /mingw-w64-crt/c
  000000014001EE10: 72 74 2F 74 6C 73 74 68 72 64 2E 63 00 43 3A 5C  rt/tlsthrd.c.C:\
  000000014001EE20: 4D 5C 42 5C 73 72 63 5C 62 75 69 6C 64 2D 4D 49  M\B\src\build-MI
  000000014001EE30: 4E 47 57 36 34 00 43 3A 2F 4D 2F 42 2F 73 72 63  NGW64.C:/M/B/src
  000000014001EE40: 2F 62 75 69 6C 64 2D 4D 49 4E 47 57 36 34 00 43  /build-MINGW64.C
  000000014001EE50: 3A 2F 4D 2F 42 2F 73 72 63 2F 6D 69 6E 67 77 2D  :/M/B/src/mingw-
  000000014001EE60: 77 36 34 2F 6D 69 6E 67 77 2D 77 36 34 2D 63 72  w64/mingw-w64-cr
  000000014001EE70: 74 2F 63 72 74 00 44 3A 2F 61 2F 6D 73 79 73 36  t/crt.D:/a/msys6
  000000014001EE80: 34 2F 6D 69 6E 67 77 36 34 2F 69 6E 63 6C 75 64  4/mingw64/includ
  000000014001EE90: 65 00 74 6C 73 74 68 72 64 2E 63 00 74 6C 73 74  e.tlsthrd.c.tlst
  000000014001EEA0: 68 72 64 2E 63 00 6D 69 6E 77 69 6E 64 65 66 2E  hrd.c.minwindef.
  000000014001EEB0: 68 00 62 61 73 65 74 73 64 2E 68 00 77 69 6E 6E  h.basetsd.h.winn
  000000014001EEC0: 74 2E 68 00 6D 69 6E 77 69 6E 62 61 73 65 2E 68  t.h.minwinbase.h
  000000014001EED0: 00 73 79 6E 63 68 61 70 69 2E 68 00 73 74 64 6C  .synchapi.h.stdl
  000000014001EEE0: 69 62 2E 68 00 70 72 6F 63 65 73 73 74 68 72 65  ib.h.processthre
  000000014001EEF0: 61 64 73 61 70 69 2E 68 00 65 72 72 68 61 6E 64  adsapi.h.errhand
  000000014001EF00: 6C 69 6E 67 61 70 69 2E 68 00 43 3A 5C 4D 5C 42  lingapi.h.C:\M\B
  000000014001EF10: 5C 73 72 63 5C 62 75 69 6C 64 2D 4D 49 4E 47 57  \src\build-MINGW
  000000014001EF20: 36 34 00 43 3A 2F 4D 2F 42 2F 73 72 63 2F 6D 69  64.C:/M/B/src/mi
  000000014001EF30: 6E 67 77 2D 77 36 34 2F 6D 69 6E 67 77 2D 77 36  ngw-w64/mingw-w6
  000000014001EF40: 34 2D 63 72 74 2F 63 72 74 2F 74 6C 73 6D 63 72  4-crt/crt/tlsmcr
  000000014001EF50: 74 2E 63 00 43 3A 2F 4D 2F 42 2F 73 72 63 2F 62  t.c.C:/M/B/src/b
  000000014001EF60: 75 69 6C 64 2D 4D 49 4E 47 57 36 34 00 43 3A 2F  uild-MINGW64.C:/
  000000014001EF70: 4D 2F 42 2F 73 72 63 2F 6D 69 6E 67 77 2D 77 36  M/B/src/mingw-w6
  000000014001EF80: 34 2F 6D 69 6E 67 77 2D 77 36 34 2D 63 72 74 2F  4/mingw-w64-crt/
  000000014001EF90: 63 72 74 00 74 6C 73 6D 63 72 74 2E 63 00 74 6C  crt.tlsmcrt.c.tl
  000000014001EFA0: 73 6D 63 72 74 2E 63 00 43 3A 2F 4D 2F 42 2F 73  smcrt.c.C:/M/B/s
  000000014001EFB0: 72 63 2F 6D 69 6E 67 77 2D 77 36 34 2F 6D 69 6E  rc/mingw-w64/min
  000000014001EFC0: 67 77 2D 77 36 34 2D 63 72 74 2F 63 72 74 2F 70  gw-w64-crt/crt/p
  000000014001EFD0: 73 65 75 64 6F 2D 72 65 6C 6F 63 2D 6C 69 73 74  seudo-reloc-list
  000000014001EFE0: 2E 63 00 43 3A 5C 4D 5C 42 5C 73 72 63 5C 62 75  .c.C:\M\B\src\bu
  000000014001EFF0: 69 6C 64 2D 4D 49 4E 47 57 36 34 00 43 3A 2F 4D  ild-MINGW64.C:/M
  000000014001F000: 2F 42 2F 73 72 63 2F 62 75 69 6C 64 2D 4D 49 4E  /B/src/build-MIN
  000000014001F010: 47 57 36 34 00 43 3A 2F 4D 2F 42 2F 73 72 63 2F  GW64.C:/M/B/src/
  000000014001F020: 6D 69 6E 67 77 2D 77 36 34 2F 6D 69 6E 67 77 2D  mingw-w64/mingw-
  000000014001F030: 77 36 34 2D 63 72 74 2F 63 72 74 00 70 73 65 75  w64-crt/crt.pseu
  000000014001F040: 64 6F 2D 72 65 6C 6F 63 2D 6C 69 73 74 2E 63 00  do-reloc-list.c.
  000000014001F050: 70 73 65 75 64 6F 2D 72 65 6C 6F 63 2D 6C 69 73  pseudo-reloc-lis
  000000014001F060: 74 2E 63 00 43 3A 5C 4D 5C 42 5C 73 72 63 5C 62  t.c.C:\M\B\src\b
  000000014001F070: 75 69 6C 64 2D 4D 49 4E 47 57 36 34 00 43 3A 2F  uild-MINGW64.C:/
  000000014001F080: 4D 2F 42 2F 73 72 63 2F 6D 69 6E 67 77 2D 77 36  M/B/src/mingw-w6
  000000014001F090: 34 2F 6D 69 6E 67 77 2D 77 36 34 2D 63 72 74 2F  4/mingw-w64-crt/
  000000014001F0A0: 63 72 74 2F 70 65 73 65 63 74 2E 63 00 43 3A 2F  crt/pesect.c.C:/
  000000014001F0B0: 4D 2F 42 2F 73 72 63 2F 62 75 69 6C 64 2D 4D 49  M/B/src/build-MI
  000000014001F0C0: 4E 47 57 36 34 00 43 3A 2F 4D 2F 42 2F 73 72 63  NGW64.C:/M/B/src
  000000014001F0D0: 2F 6D 69 6E 67 77 2D 77 36 34 2F 6D 69 6E 67 77  /mingw-w64/mingw
  000000014001F0E0: 2D 77 36 34 2D 63 72 74 2F 63 72 74 00 44 3A 2F  -w64-crt/crt.D:/
  000000014001F0F0: 61 2F 6D 73 79 73 36 34 2F 6D 69 6E 67 77 36 34  a/msys64/mingw64
  000000014001F100: 2F 69 6E 63 6C 75 64 65 00 70 65 73 65 63 74 2E  /include.pesect.
  000000014001F110: 63 00 70 65 73 65 63 74 2E 63 00 63 6F 72 65 63  c.pesect.c.corec
  000000014001F120: 72 74 2E 68 00 6D 69 6E 77 69 6E 64 65 66 2E 68  rt.h.minwindef.h
  000000014001F130: 00 62 61 73 65 74 73 64 2E 68 00 77 69 6E 6E 74  .basetsd.h.winnt
  000000014001F140: 2E 68 00 73 74 72 69 6E 67 2E 68 00 43 3A 5C 4D  .h.string.h.C:\M
  000000014001F150: 5C 42 5C 73 72 63 5C 62 75 69 6C 64 2D 4D 49 4E  \B\src\build-MIN
  000000014001F160: 47 57 36 34 00 43 3A 2F 4D 2F 42 2F 73 72 63 2F  GW64.C:/M/B/src/
  000000014001F170: 6D 69 6E 67 77 2D 77 36 34 2F 6D 69 6E 67 77 2D  mingw-w64/mingw-
  000000014001F180: 77 36 34 2D 63 72 74 2F 6D 69 73 63 2F 6D 69 6E  w64-crt/misc/min
  000000014001F190: 67 77 5F 6D 61 74 68 65 72 72 2E 63 00 43 3A 2F  gw_matherr.c.C:/
  000000014001F1A0: 4D 2F 42 2F 73 72 63 2F 62 75 69 6C 64 2D 4D 49  M/B/src/build-MI
  000000014001F1B0: 4E 47 57 36 34 00 43 3A 2F 4D 2F 42 2F 73 72 63  NGW64.C:/M/B/src
  000000014001F1C0: 2F 6D 69 6E 67 77 2D 77 36 34 2F 6D 69 6E 67 77  /mingw-w64/mingw
  000000014001F1D0: 2D 77 36 34 2D 63 72 74 2F 6D 69 73 63 00 6D 69  -w64-crt/misc.mi
  000000014001F1E0: 6E 67 77 5F 6D 61 74 68 65 72 72 2E 63 00 6D 69  ngw_matherr.c.mi
  000000014001F1F0: 6E 67 77 5F 6D 61 74 68 65 72 72 2E 63 00 43 3A  ngw_matherr.c.C:
  000000014001F200: 2F 4D 2F 42 2F 73 72 63 2F 6D 69 6E 67 77 2D 77  /M/B/src/mingw-w
  000000014001F210: 36 34 2F 6D 69 6E 67 77 2D 77 36 34 2D 63 72 74  64/mingw-w64-crt
  000000014001F220: 2F 6D 69 73 63 2F 5F 69 6E 69 74 74 65 72 6D 5F  /misc/_initterm_
  000000014001F230: 65 2E 63 00 43 3A 5C 4D 5C 42 5C 73 72 63 5C 62  e.c.C:\M\B\src\b
  000000014001F240: 75 69 6C 64 2D 4D 49 4E 47 57 36 34 00 43 3A 2F  uild-MINGW64.C:/
  000000014001F250: 4D 2F 42 2F 73 72 63 2F 62 75 69 6C 64 2D 4D 49  M/B/src/build-MI
  000000014001F260: 4E 47 57 36 34 00 43 3A 2F 4D 2F 42 2F 73 72 63  NGW64.C:/M/B/src
  000000014001F270: 2F 6D 69 6E 67 77 2D 77 36 34 2F 6D 69 6E 67 77  /mingw-w64/mingw
  000000014001F280: 2D 77 36 34 2D 63 72 74 2F 6D 69 73 63 00 44 3A  -w64-crt/misc.D:
  000000014001F290: 2F 61 2F 6D 73 79 73 36 34 2F 6D 69 6E 67 77 36  /a/msys64/mingw6
  000000014001F2A0: 34 2F 69 6E 63 6C 75 64 65 00 5F 69 6E 69 74 74  4/include._initt
  000000014001F2B0: 65 72 6D 5F 65 2E 63 00 5F 69 6E 69 74 74 65 72  erm_e.c._initter
  000000014001F2C0: 6D 5F 65 2E 63 00 63 6F 72 65 63 72 74 5F 73 74  m_e.c.corecrt_st
  000000014001F2D0: 61 72 74 75 70 2E 68 00 43 3A 5C 4D 5C 42 5C 73  artup.h.C:\M\B\s
  000000014001F2E0: 72 63 5C 62 75 69 6C 64 2D 4D 49 4E 47 57 36 34  rc\build-MINGW64
  000000014001F2F0: 00 43 3A 2F 4D 2F 42 2F 73 72 63 2F 6D 69 6E 67  .C:/M/B/src/ming
  000000014001F300: 77 2D 77 36 34 2F 6D 69 6E 67 77 2D 77 36 34 2D  w-w64/mingw-w64-
  000000014001F310: 63 72 74 2F 6D 69 73 63 2F 5F 5F 70 5F 5F 66 6D  crt/misc/__p__fm
  000000014001F320: 6F 64 65 2E 63 00 43 3A 2F 4D 2F 42 2F 73 72 63  ode.c.C:/M/B/src
  000000014001F330: 2F 62 75 69 6C 64 2D 4D 49 4E 47 57 36 34 00 43  /build-MINGW64.C
  000000014001F340: 3A 2F 4D 2F 42 2F 73 72 63 2F 6D 69 6E 67 77 2D  :/M/B/src/mingw-
  000000014001F350: 77 36 34 2F 6D 69 6E 67 77 2D 77 36 34 2D 63 72  w64/mingw-w64-cr
  000000014001F360: 74 2F 6D 69 73 63 00 5F 5F 70 5F 5F 66 6D 6F 64  t/misc.__p__fmod
  000000014001F370: 65 2E 63 00 5F 5F 70 5F 5F 66 6D 6F 64 65 2E 63  e.c.__p__fmode.c
  000000014001F380: 00 43 3A 5C 4D 5C 42 5C 73 72 63 5C 62 75 69 6C  .C:\M\B\src\buil
  000000014001F390: 64 2D 4D 49 4E 47 57 36 34 00 43 3A 2F 4D 2F 42  d-MINGW64.C:/M/B
  000000014001F3A0: 2F 73 72 63 2F 6D 69 6E 67 77 2D 77 36 34 2F 6D  /src/mingw-w64/m
  000000014001F3B0: 69 6E 67 77 2D 77 36 34 2D 63 72 74 2F 6D 69 73  ingw-w64-crt/mis
  000000014001F3C0: 63 2F 5F 5F 70 5F 5F 63 6F 6D 6D 6F 64 65 2E 63  c/__p__commode.c
  000000014001F3D0: 00 43 3A 2F 4D 2F 42 2F 73 72 63 2F 62 75 69 6C  .C:/M/B/src/buil
  000000014001F3E0: 64 2D 4D 49 4E 47 57 36 34 00 43 3A 2F 4D 2F 42  d-MINGW64.C:/M/B
  000000014001F3F0: 2F 73 72 63 2F 6D 69 6E 67 77 2D 77 36 34 2F 6D  /src/mingw-w64/m
  000000014001F400: 69 6E 67 77 2D 77 36 34 2D 63 72 74 2F 6D 69 73  ingw-w64-crt/mis
  000000014001F410: 63 00 5F 5F 70 5F 5F 63 6F 6D 6D 6F 64 65 2E 63  c.__p__commode.c
  000000014001F420: 00 5F 5F 70 5F 5F 63 6F 6D 6D 6F 64 65 2E 63 00  .__p__commode.c.
  000000014001F430: 43 3A 5C 4D 5C 42 5C 73 72 63 5C 62 75 69 6C 64  C:\M\B\src\build
  000000014001F440: 2D 4D 49 4E 47 57 36 34 00 43 3A 2F 4D 2F 42 2F  -MINGW64.C:/M/B/
  000000014001F450: 73 72 63 2F 6D 69 6E 67 77 2D 77 36 34 2F 6D 69  src/mingw-w64/mi
  000000014001F460: 6E 67 77 2D 77 36 34 2D 63 72 74 2F 6D 69 73 63  ngw-w64-crt/misc
  000000014001F470: 2F 5F 5F 70 5F 5F 5F 69 6E 69 74 65 6E 76 2E 63  /__p___initenv.c
  000000014001F480: 00 43 3A 2F 4D 2F 42 2F 73 72 63 2F 62 75 69 6C  .C:/M/B/src/buil
  000000014001F490: 64 2D 4D 49 4E 47 57 36 34 00 43 3A 2F 4D 2F 42  d-MINGW64.C:/M/B
  000000014001F4A0: 2F 73 72 63 2F 6D 69 6E 67 77 2D 77 36 34 2F 6D  /src/mingw-w64/m
  000000014001F4B0: 69 6E 67 77 2D 77 36 34 2D 63 72 74 2F 6D 69 73  ingw-w64-crt/mis
  000000014001F4C0: 63 00 5F 5F 70 5F 5F 5F 69 6E 69 74 65 6E 76 2E  c.__p___initenv.
  000000014001F4D0: 63 00 5F 5F 70 5F 5F 5F 69 6E 69 74 65 6E 76 2E  c.__p___initenv.
  000000014001F4E0: 63 00 43 3A 2F 4D 2F 42 2F 73 72 63 2F 6D 69 6E  c.C:/M/B/src/min
  000000014001F4F0: 67 77 2D 77 36 34 2F 6D 69 6E 67 77 2D 77 36 34  gw-w64/mingw-w64
  000000014001F500: 2D 63 72 74 2F 6D 69 73 63 2F 69 6E 76 61 6C 69  -crt/misc/invali
  000000014001F510: 64 5F 70 61 72 61 6D 65 74 65 72 5F 68 61 6E 64  d_parameter_hand
  000000014001F520: 6C 65 72 2E 63 00 43 3A 5C 4D 5C 42 5C 73 72 63  ler.c.C:\M\B\src
  000000014001F530: 5C 62 75 69 6C 64 2D 4D 49 4E 47 57 36 34 00 43  \build-MINGW64.C
  000000014001F540: 3A 2F 4D 2F 42 2F 73 72 63 2F 62 75 69 6C 64 2D  :/M/B/src/build-
  000000014001F550: 4D 49 4E 47 57 36 34 00 43 3A 2F 4D 2F 42 2F 73  MINGW64.C:/M/B/s
  000000014001F560: 72 63 2F 6D 69 6E 67 77 2D 77 36 34 2F 6D 69 6E  rc/mingw-w64/min
  000000014001F570: 67 77 2D 77 36 34 2D 63 72 74 2F 6D 69 73 63 00  gw-w64-crt/misc.
  000000014001F580: 44 3A 2F 61 2F 6D 73 79 73 36 34 2F 6D 69 6E 67  D:/a/msys64/ming
  000000014001F590: 77 36 34 2F 69 6E 63 6C 75 64 65 2F 70 73 64 6B  w64/include/psdk
  000000014001F5A0: 5F 69 6E 63 00 44 3A 2F 61 2F 6D 73 79 73 36 34  _inc.D:/a/msys64
  000000014001F5B0: 2F 6D 69 6E 67 77 36 34 2F 69 6E 63 6C 75 64 65  /mingw64/include
  000000014001F5C0: 00 69 6E 76 61 6C 69 64 5F 70 61 72 61 6D 65 74  .invalid_paramet
  000000014001F5D0: 65 72 5F 68 61 6E 64 6C 65 72 2E 63 00 69 6E 76  er_handler.c.inv
  000000014001F5E0: 61 6C 69 64 5F 70 61 72 61 6D 65 74 65 72 5F 68  alid_parameter_h
  000000014001F5F0: 61 6E 64 6C 65 72 2E 63 00 69 6E 74 72 69 6E 2D  andler.c.intrin-
  000000014001F600: 69 6D 70 6C 2E 68 00 63 6F 72 65 63 72 74 2E 68  impl.h.corecrt.h
  000000014001F610: 00 73 74 64 6C 69 62 2E 68 00 77 69 6E 6E 74 2E  .stdlib.h.winnt.
  000000014001F620: 68 00 63 6F 6D 62 61 73 65 61 70 69 2E 68 00 77  h.combaseapi.h.w
  000000014001F630: 74 79 70 65 73 2E 68 00 43 3A 2F 4D 2F 42 2F 73  types.h.C:/M/B/s
  000000014001F640: 72 63 2F 6D 69 6E 67 77 2D 77 36 34 2F 6D 69 6E  rc/mingw-w64/min
  000000014001F650: 67 77 2D 77 36 34 2D 63 72 74 2F 73 74 64 69 6F  gw-w64-crt/stdio
  000000014001F660: 2F 61 63 72 74 5F 69 6F 62 5F 66 75 6E 63 2E 63  /acrt_iob_func.c
  000000014001F670: 00 43 3A 5C 4D 5C 42 5C 73 72 63 5C 62 75 69 6C  .C:\M\B\src\buil
  000000014001F680: 64 2D 4D 49 4E 47 57 36 34 00 43 3A 2F 4D 2F 42  d-MINGW64.C:/M/B
  000000014001F690: 2F 73 72 63 2F 62 75 69 6C 64 2D 4D 49 4E 47 57  /src/build-MINGW
  000000014001F6A0: 36 34 00 43 3A 2F 4D 2F 42 2F 73 72 63 2F 6D 69  64.C:/M/B/src/mi
  000000014001F6B0: 6E 67 77 2D 77 36 34 2F 6D 69 6E 67 77 2D 77 36  ngw-w64/mingw-w6
  000000014001F6C0: 34 2D 63 72 74 2F 73 74 64 69 6F 00 44 3A 2F 61  4-crt/stdio.D:/a
  000000014001F6D0: 2F 6D 73 79 73 36 34 2F 6D 69 6E 67 77 36 34 2F  /msys64/mingw64/
  000000014001F6E0: 69 6E 63 6C 75 64 65 00 61 63 72 74 5F 69 6F 62  include.acrt_iob
  000000014001F6F0: 5F 66 75 6E 63 2E 63 00 61 63 72 74 5F 69 6F 62  _func.c.acrt_iob
  000000014001F700: 5F 66 75 6E 63 2E 63 00 73 74 64 69 6F 2E 68 00  _func.c.stdio.h.

RAW DATA #13
  0000000140020000: E0 01 00 00 05 00 08 00 00 00 00 00 00 00 00 00  ...............
  0000000140020010: 04 B0 08 B4 08 01 52 04 B4 08 B5 08 04 A3 01 52  ....R.....R
  0000000140020020: 9F 00 00 00 00 00 04 C8 03 82 04 01 54 04 C2 06  ...........T..
  0000000140020030: D2 06 01 54 00 01 00 00 00 00 00 00 00 00 00 00  ..T............
  0000000140020040: 00 04 C8 03 FB 03 02 30 9F 04 FB 03 85 05 01 55  .....0......U
  0000000140020050: 04 C2 06 D2 06 02 30 9F 04 D2 06 8A 07 01 55 04  ....0......U.
  0000000140020060: A6 07 CE 07 01 55 04 DF 07 EA 07 01 55 00 04 01  ...U....U...
  0000000140020070: 04 BA 03 C4 03 03 08 30 9F 00 00 01 04 C4 03 C4  .....0......
  0000000140020080: 03 01 50 00 00 00 01 00 00 00 04 D8 03 F0 03 01  ..P...........
  0000000140020090: 54 04 F0 03 82 04 01 54 04 C2 06 D2 06 01 54 00  T.....T....T.
  00000001400200A0: 00 00 01 00 04 D8 03 F0 03 02 30 9F 04 F0 03 EA  ........0...
  00000001400200B0: 07 02 30 9F 00 01 00 00 00 04 82 05 F3 05 0A 03  ..0............
  00000001400200C0: 18 70 00 40 01 00 00 00 9F 04 CE 07 D8 07 0A 03  .p.@..........
  00000001400200D0: 18 70 00 40 01 00 00 00 9F 00 00 00 00 00 04 82  .p.@............
  00000001400200E0: 05 AC 05 01 53 04 CE 07 D8 07 01 53 00 01 00 00  ...S....S....
  00000001400200F0: 00 04 9E 05 F3 05 01 5C 04 CE 07 D8 07 01 5C 00  ......\....\.
  0000000140020100: 02 00 00 00 00 01 00 00 04 9E 05 AC 05 02 30 9F  .............0.
  0000000140020110: 04 AC 05 D8 05 05 73 00 33 25 9F 04 D8 05 DD 05  ....s.3%....
  0000000140020120: 05 73 78 33 25 9F 04 CE 07 D8 07 02 30 9F 00 00  .sx3%.....0...
  0000000140020130: 00 00 00 00 00 04 9E 05 AC 05 01 50 04 AC 05 F3  ..........P..
  0000000140020140: 05 01 56 04 CE 07 D8 07 01 50 00 00 00 04 BD 05  ..V....P.....
  0000000140020150: E5 05 01 54 00 01 00 04 80 07 85 07 02 30 9F 00  ..T.........0..
  0000000140020160: 01 00 00 00 04 94 08 A6 08 03 08 FF 9F 04 A6 08  .............
  0000000140020170: AD 08 01 50 00 01 00 00 00 04 F4 07 86 08 03 08  ..P...........
  0000000140020180: FF 9F 04 86 08 8D 08 01 50 00 00 00 00 00 04 9C  .......P.......
  0000000140020190: 01 AB 01 01 50 04 BE 02 C8 02 01 50 00 00 00 00  ...P....P....
  00000001400201A0: 00 00 00 04 52 5A 01 50 04 CC 01 85 02 01 50 04  ....RZ.P.....P.
  00000001400201B0: 9B 02 BE 02 01 50 00 01 00 00 00 04 CC 01 85 02  ....P.........
  00000001400201C0: 03 70 18 9F 04 9B 02 BE 02 03 70 18 9F 00 01 00  .p.......p.....
  00000001400201D0: 04 E6 01 85 02 03 70 18 9F 00 00 00 04 8F 03 A2  .....p........
  00000001400201E0: 03 01 50 00 43 00 00 00 05 00 08 00 00 00 00 00  ..P.C...........
  00000001400201F0: 00 00 00 00 00 00 00 00 00 00 04 62 67 01 50 04  ...........bg.P.
  0000000140020200: 9D 01 A2 01 01 50 04 A2 01 B0 01 01 52 04 B0 01  ....P....R..
  0000000140020210: BE 01 01 50 04 BE 01 C2 01 01 52 00 00 00 00 00  ..P....R.....
  0000000140020220: 04 67 70 01 52 04 70 77 01 50 00 11 01 00 00 05  .gp.R.pw.P......
  0000000140020230: 00 08 00 00 00 00 00 00 00 00 00 04 00 14 01 52  ...............R
  0000000140020240: 04 14 15 04 A3 01 52 9F 00 00 00 00 00 04 00 14  .....R.........
  0000000140020250: 01 51 04 14 15 04 A3 01 51 9F 00 00 00 00 00 04  .Q.....Q.......
  0000000140020260: 00 14 01 58 04 14 15 04 A3 01 58 9F 00 00 00 00  ...X.....X.....
  0000000140020270: 00 00 00 00 00 04 20 63 01 52 04 63 8A 01 04 A3  ...... c.R.c...
  0000000140020280: 01 52 9F 04 8A 01 9A 01 01 52 04 9A 01 9B 01 04  .R.......R......
  0000000140020290: A3 01 52 9F 00 00 00 00 00 00 00 00 00 04 20 63  .R........... c
  00000001400202A0: 01 51 04 63 8A 01 04 A3 01 51 9F 04 8A 01 9A 01  .Q.c....Q......
  00000001400202B0: 01 51 04 9A 01 9B 01 04 A3 01 51 9F 00 00 00 00  .Q.......Q.....
  00000001400202C0: 00 00 00 00 00 04 20 63 01 58 04 63 8A 01 04 A3  ...... c.X.c...
  00000001400202D0: 01 58 9F 04 8A 01 9A 01 01 58 04 9A 01 9B 01 04  .X.......X......
  00000001400202E0: A3 01 58 9F 00 01 00 00 00 04 50 63 01 52 04 63  .X.......Pc.R.c
  00000001400202F0: 8A 01 04 A3 01 52 9F 00 01 00 04 50 8A 01 02 32  ....R.....P...2
  0000000140020300: 9F 00 01 00 00 00 04 50 63 01 58 04 63 8A 01 04  .......Pc.X.c...
  0000000140020310: A3 01 58 9F 00 01 00 00 00 04 63 7E 01 53 04 7E  .X.......c~.S.~
  0000000140020320: 88 01 03 73 78 9F 00 02 00 00 00 04 50 57 0A 03  ...sx.......PW..
  0000000140020330: 50 90 00 40 01 00 00 00 9F 04 57 88 01 01 53 00  P..@......W...S.
  0000000140020340: 87 00 00 00 05 00 08 00 00 00 00 00 00 00 00 00  ................
  0000000140020350: 00 00 04 00 58 01 52 04 58 9F 01 04 A3 01 52 9F  ....X.R.X....R.
  0000000140020360: 04 9F 01 F8 01 01 52 00 00 00 01 00 01 00 01 00  .....R.........
  0000000140020370: 01 00 01 00 04 3F 9D 01 01 53 04 B0 01 B9 01 0A  .....?...S....
  0000000140020380: 03 C0 40 00 40 01 00 00 00 9F 04 B9 01 CC 01 0A  .@.@.........
  0000000140020390: 03 A0 40 00 40 01 00 00 00 9F 04 CC 01 DC 01 0A  ..@.@.........
  00000001400203A0: 03 10 41 00 40 01 00 00 00 9F 04 DC 01 EC 01 0A  ..A.@.........
  00000001400203B0: 03 E8 40 00 40 01 00 00 00 9F 04 EC 01 F8 01 0A  .@.@.........
  00000001400203C0: 03 46 41 00 40 01 00 00 00 9F 00 6A 05 00 00 05  .FA.@......j....
  00000001400203D0: 00 08 00 00 00 00 00 00 00 04 A7 04 AD 04 01 50  .............P
  00000001400203E0: 00 00 00 01 02 02 00 00 00 00 00 00 00 00 00 00  ................
  00000001400203F0: 00 04 B8 05 96 06 01 59 04 B7 06 B7 06 01 50 04  ......Y....P.
  0000000140020400: B7 06 F4 06 01 59 04 F9 07 C1 08 01 59 04 CA 08  ...Y....Y..
  0000000140020410: 96 09 01 59 04 9E 09 DB 09 01 59 04 92 0A 9F 0A  ...Y.....Y.....
  0000000140020420: 01 59 04 A0 0A B5 0A 01 59 00 00 01 01 00 00 00  .Y.....Y.......
  0000000140020430: 00 00 00 00 01 00 00 00 00 01 01 00 00 00 00 00  ................
  0000000140020440: 00 00 00 01 01 00 00 00 00 00 00 00 00 00 00 00  ................
  0000000140020450: 00 00 00 00 00 00 00 00 02 00 00 00 04 D5 05 E4  ..............
  0000000140020460: 05 01 54 04 E4 05 EB 05 08 74 00 11 80 80 7C 21  ..T....t....|!
  0000000140020470: 9F 04 EB 05 EE 05 01 54 04 EE 05 F1 05 0E 75 00  .....T....u.
  0000000140020480: 94 02 0A FF FF 1A 11 80 80 7C 21 9F 04 F1 05 A3  .......|!...
  0000000140020490: 06 01 54 04 CF 06 D8 06 02 75 00 04 D8 06 FD 06  ..T....u....
  00000001400204A0: 01 54 04 83 08 92 08 01 54 04 92 08 99 08 07 74  .T......T......t
  00000001400204B0: 00 0B 00 FF 21 9F 04 99 08 9C 08 01 54 04 9C 08  ...!.......T...
  00000001400204C0: 9F 08 0C 75 00 94 01 08 FF 1A 0B 00 FF 21 9F 04  ...u.......!..
  00000001400204D0: 9F 08 CA 08 01 54 04 D2 08 DC 08 01 54 04 DC 08  ....T....T..
  00000001400204E0: E9 08 08 74 00 40 4C 24 1F 21 9F 04 E9 08 EC 08  ..t.@L$.!....
  00000001400204F0: 01 54 04 EC 08 EF 08 10 75 00 94 04 0C FF FF FF  .T....u....
  0000000140020500: FF 1A 40 4C 24 1F 21 9F 04 EF 08 A3 09 01 54 04  .@L$.!.....T.
  0000000140020510: A3 09 A6 09 0B 75 00 94 04 0C FF FF FF FF 1A 9F  ...u......
  0000000140020520: 04 A6 09 B3 09 01 54 04 B3 09 B6 09 08 75 00 94  ....T....u..
  0000000140020530: 01 08 FF 1A 9F 04 B6 09 CB 09 01 54 04 CB 09 CE  ........T..
  0000000140020540: 09 09 75 00 94 02 0A FF FF 1A 9F 04 CE 09 DB 09  ..u.........
  0000000140020550: 01 54 04 92 0A A0 0A 02 30 9F 04 A0 0A B6 0A 01  .T......0......
  0000000140020560: 54 00 00 00 00 00 00 00 00 00 00 00 00 00 00 00  T...............
  0000000140020570: 02 00 00 00 00 00 00 00 04 EB 04 FB 04 01 50 04  ............P.
  0000000140020580: B8 05 A3 06 01 55 04 B7 06 FD 06 01 55 04 D5 07  ...U....U..
  0000000140020590: E5 07 01 50 04 E5 07 F4 07 06 7D 00 73 00 1C 9F  ..P....}.s...
  00000001400205A0: 04 F4 07 F9 07 08 7D 00 73 00 1C 23 0C 9F 04 F9  ....}.s..#...
  00000001400205B0: 07 DB 09 01 55 04 F0 09 F9 09 0E 73 04 94 04 0C  ...U....s....
  00000001400205C0: FF FF FF FF 1A 7E 00 22 9F 04 F9 09 FC 09 0E 73  .~.".....s
  00000001400205D0: 7C 94 04 0C FF FF FF FF 1A 7E 00 22 9F 04 FC 09  |....~."...
  00000001400205E0: 92 0A 01 54 04 92 0A B6 0A 01 55 00 00 00 00 00  ...T.....U.....
  00000001400205F0: 00 00 04 FB 04 A0 05 01 53 04 A0 05 B8 05 03 73  .......S.....s
  0000000140020600: 74 9F 04 B6 0A C3 0A 01 53 00 00 00 00 03 03 00  t.....S.......
  0000000140020610: 00 00 00 00 04 A0 05 F0 06 01 53 04 F0 06 F8 06  .........S...
  0000000140020620: 03 73 74 9F 04 F8 06 FD 06 01 53 04 F9 07 DB 09  .st.....S...
  0000000140020630: 01 53 04 92 0A B6 0A 01 53 00 01 02 01 00 01 00  .S.....S.......
  0000000140020640: 01 00 01 00 01 00 01 00 04 F1 05 9A 06 02 40 9F  .............@.
  0000000140020650: 04 D8 06 FD 06 03 08 40 9F 04 9F 08 CA 08 02 38  .....@......8
  0000000140020660: 9F 04 EF 08 9E 09 03 08 20 9F 04 A6 09 AC 09 03  ....... .....
  0000000140020670: 08 20 9F 04 B6 09 C3 09 02 38 9F 04 CE 09 DB 09  . .....8....
  0000000140020680: 02 40 9F 00 01 00 01 00 01 00 01 00 04 F5 05 8F  .@.............
  0000000140020690: 06 04 0A FF FF 9F 04 E0 06 E9 06 03 09 FF 9F 04  ...........
  00000001400206A0: A3 08 BA 08 03 08 FF 9F 04 F3 08 8F 09 06 0C FF  ...........
  00000001400206B0: FF FF FF 9F 00 02 00 02 00 02 00 02 00 04 F5 05  ............
  00000001400206C0: 8F 06 04 0B 00 80 9F 04 E0 06 E9 06 0A 9E 08 00  ..............
  00000001400206D0: 00 00 00 00 00 00 80 04 A3 08 BA 08 03 09 80 9F  ..............
  00000001400206E0: 04 F3 08 8F 09 05 40 4B 24 1F 9F 00 02 00 04 8F  .....@K$.......
  00000001400206F0: 06 9A 06 01 55 00 02 00 04 8F 06 9A 06 06 A0 87  ....U...........
  0000000140020700: 53 00 00 00 00 02 00 04 8F 06 9A 06 02 32 9F 00  S............2..
  0000000140020710: 04 00 04 8F 06 9A 06 01 55 00 04 00 04 8F 06 9A  ........U.......
  0000000140020720: 06 06 A0 87 53 00 00 00 00 04 00 04 8F 06 9A 06  ....S...........
  0000000140020730: 02 32 9F 00 02 00 04 E9 06 F8 06 01 55 00 02 00  .2........U...
  0000000140020740: 04 E9 06 F8 06 06 A0 87 53 00 00 00 00 02 00 04  ......S.......
  0000000140020750: E9 06 F8 06 02 38 9F 00 04 00 04 E9 06 F8 06 01  ...8........
  0000000140020760: 55 00 04 00 04 E9 06 F8 06 06 A0 87 53 00 00 00  U.........S...
  0000000140020770: 00 04 00 04 E9 06 F8 06 02 38 9F 00 02 00 04 BA  .......8.....
  0000000140020780: 08 C5 08 01 55 00 02 00 04 BA 08 C5 08 06 A0 87  ...U.........
  0000000140020790: 53 00 00 00 00 02 00 04 BA 08 C5 08 02 31 9F 00  S..........1..
  00000001400207A0: 04 00 04 BA 08 C5 08 01 55 00 04 00 04 BA 08 C5  ......U.....
  00000001400207B0: 08 06 A0 87 53 00 00 00 00 04 00 04 BA 08 C5 08  ....S.........
  00000001400207C0: 02 31 9F 00 02 00 04 8F 09 99 09 01 55 00 02 00  .1..........U...
  00000001400207D0: 04 8F 09 99 09 06 A0 87 53 00 00 00 00 02 00 04  ........S.......
  00000001400207E0: 8F 09 99 09 02 34 9F 00 04 00 04 8F 09 99 09 01  .....4..........
  00000001400207F0: 55 00 04 00 04 8F 09 99 09 06 A0 87 53 00 00 00  U...........S...
  0000000140020800: 00 04 00 04 8F 09 99 09 02 34 9F 00 00 00 00 02  .........4......
  0000000140020810: 02 00 04 DB 09 F9 09 01 53 04 F9 09 88 0A 03 73  ......S.....s
  0000000140020820: 78 9F 04 88 0A 92 0A 01 53 00 00 00 04 FE 09 88  x.......S......
  0000000140020830: 0A 01 55 00 01 00 04 FE 09 88 0A 01 54 00 01 00  ..U........T...
  0000000140020840: 04 FE 09 88 0A 06 A0 C9 56 00 00 00 00 01 00 04  ......V.......
  0000000140020850: FE 09 88 0A 02 34 9F 00 03 00 04 FE 09 88 0A 01  ....4.........
  0000000140020860: 54 00 03 00 04 FE 09 88 0A 06 A0 C9 56 00 00 00  T.........V...
  0000000140020870: 00 03 00 04 FE 09 88 0A 02 34 9F 00 00 00 00 00  ........4......
  0000000140020880: 04 FD 06 9B 07 02 30 9F 04 9B 07 D5 07 01 5C 00  .....0......\.
  0000000140020890: 00 00 00 00 00 00 00 00 00 00 00 00 04 70 CB 01  .............p.
  00000001400208A0: 01 52 04 CB 01 E7 01 01 53 04 E7 01 9C 03 04 A3  .R....S.....
  00000001400208B0: 01 52 9F 04 9C 03 A7 03 01 52 04 A7 03 C2 03 04  .R......R....
  00000001400208C0: A3 01 52 9F 04 C2 03 D2 03 01 53 00 00 00 00 01  .R.....S.....
  00000001400208D0: 00 00 00 00 00 00 00 00 04 D3 01 E3 01 01 50 04  ............P.
  00000001400208E0: E3 01 C5 02 01 55 04 CD 02 9C 03 01 55 04 A7 03  ...U.....U..
  00000001400208F0: C2 03 01 55 04 C2 03 D1 03 01 50 04 D1 03 D2 03  ..U....P...
  0000000140020900: 01 55 00 04 00 00 00 00 00 04 77 97 01 02 30 9F  .U........w...0.
  0000000140020910: 04 97 01 C8 01 01 59 04 9C 03 A7 03 02 30 9F 00  .....Y.....0..
  0000000140020920: 00 00 04 EC 02 83 03 01 58 00 00 00 00 00 04 00  .......X.......
  0000000140020930: 13 01 52 04 13 69 01 53 00 6E 00 00 00 05 00 08  ..R..i.S.n......
  0000000140020940: 00 00 00 00 00 00 00 00 00 04 40 4B 01 52 04 4B  ..........@K.R.K
  0000000140020950: 4C 04 A3 01 52 9F 00 00 00 00 00 00 00 04 00 26  L..R..........&
  0000000140020960: 01 52 04 26 38 02 72 00 04 38 3E 04 A3 01 52 9F  .R.&8.r..8>..R.
  0000000140020970: 00 00 00 00 00 04 00 38 01 51 04 38 3E 04 A3 01  .......8.Q.8>..
  0000000140020980: 51 9F 00 00 00 00 00 04 00 0F 01 63 04 0F 3E 06  Q..........c..>.
  0000000140020990: A3 03 A5 13 77 9F 00 00 00 00 00 04 00 38 01 64  ..w........8.d
  00000001400209A0: 04 38 3E 06 A3 03 A5 14 77 9F 00 7A 01 00 00 05  .8>...w..z....
  00000001400209B0: 00 08 00 00 00 00 00 00 00 00 00 00 00 00 00 00  ................
  00000001400209C0: 00 00 00 00 00 00 00 00 00 04 00 0F 01 52 04 0F  .............R..
  00000001400209D0: 83 01 01 53 04 83 01 85 01 01 52 04 85 01 86 01  ...S......R.....
  00000001400209E0: 04 A3 01 52 9F 04 86 01 AE 01 01 53 04 AE 01 AF  ..R......S..
  00000001400209F0: 01 04 A3 01 52 9F 04 AF 01 C7 01 01 53 04 C7 01  ...R.....S..
  0000000140020A00: C8 01 04 A3 01 52 9F 04 C8 01 BD 03 01 53 00 00  ...R.....S..
  0000000140020A10: 00 00 00 00 00 00 00 00 00 00 00 00 00 00 00 04  ................
  0000000140020A20: 5C 6F 01 50 04 EA 01 83 02 01 50 04 9C 02 B4 02  \o.P.....P....
  0000000140020A30: 01 50 04 CC 02 E1 02 01 50 04 E7 02 F6 02 01 50  .P....P....P
  0000000140020A40: 04 FC 02 8A 03 01 50 04 90 03 9E 03 01 50 04 A4  .....P......P.
  0000000140020A50: 03 B2 03 01 50 00 02 00 00 00 00 00 00 01 01 00  ...P...........
  0000000140020A60: 00 01 01 00 00 01 01 00 00 01 01 00 00 01 01 00  ................
  0000000140020A70: 00 00 04 05 6F 02 30 9F 04 86 01 A4 01 02 30 9F  ....o.0......0.
  0000000140020A80: 04 AF 01 BC 01 02 30 9F 04 C8 01 84 02 02 30 9F  ....0......0.
  0000000140020A90: 04 84 02 86 02 03 09 FF 9F 04 86 02 E2 02 02 30  .............0
  0000000140020AA0: 9F 04 E2 02 E7 02 03 09 FF 9F 04 E7 02 F7 02 02  ...........
  0000000140020AB0: 30 9F 04 F7 02 FC 02 03 09 FF 9F 04 FC 02 8B 03  0...........
  0000000140020AC0: 02 30 9F 04 8B 03 90 03 03 09 FF 9F 04 90 03 9F  .0.............
  0000000140020AD0: 03 02 30 9F 04 9F 03 A4 03 03 09 FF 9F 04 A4 03  ..0..........
  0000000140020AE0: BD 03 02 30 9F 00 03 01 01 00 00 00 00 00 00 00  ..0............
  0000000140020AF0: 00 00 00 00 04 05 50 02 30 9F 04 50 66 02 31 9F  ......P.0..Pf.1.
  0000000140020B00: 04 86 01 A4 01 02 30 9F 04 AF 01 BC 01 02 30 9F  .....0.....0.
  0000000140020B10: 04 C8 01 E7 02 02 30 9F 04 FC 02 A4 03 02 30 9F  ....0.....0.
  0000000140020B20: 04 A4 03 BD 03 02 31 9F 00 C9 02 00 00 05 00 08  ....1........
  0000000140020B30: 00 00 00 00 00 00 00 00 00 00 00 00 00 00 00 00  ................
  0000000140020B40: 00 00 00 00 00 00 00 00 00 00 00 00 00 04 90 03  ................
  0000000140020B50: B2 03 01 52 04 B2 03 C7 03 04 A3 01 52 9F 04 C7  ..R.....R..
  0000000140020B60: 03 E3 03 01 52 04 E3 03 E6 03 04 A3 01 52 9F 04  ...R.....R..
  0000000140020B70: E6 03 FA 03 01 52 04 FA 03 D8 04 04 A3 01 52 9F  ...R.....R.
  0000000140020B80: 04 D8 04 E4 04 01 52 04 E4 04 F0 04 04 A3 01 52  ....R.....R
  0000000140020B90: 9F 04 F0 04 F4 04 01 52 04 F4 04 F7 04 04 A3 01  .....R.....
  0000000140020BA0: 52 9F 04 F7 04 87 05 01 52 04 87 05 92 05 04 A3  R......R......
  0000000140020BB0: 01 52 9F 00 00 00 00 00 00 00 00 00 00 00 00 00  .R..............
  0000000140020BC0: 00 00 00 00 00 00 00 00 00 00 00 00 04 90 03 B2  ...............
  0000000140020BD0: 03 01 51 04 B2 03 C7 03 04 A3 01 51 9F 04 C7 03  ..Q.....Q...
  0000000140020BE0: E3 03 01 51 04 E3 03 E6 03 04 A3 01 51 9F 04 E6  ..Q.....Q..
  0000000140020BF0: 03 FA 03 01 51 04 FA 03 D8 04 04 A3 01 51 9F 04  ...Q.....Q..
  0000000140020C00: D8 04 E4 04 01 51 04 E4 04 F0 04 04 A3 01 51 9F  ...Q.....Q.
  0000000140020C10: 04 F0 04 F4 04 01 51 04 F4 04 F7 04 04 A3 01 51  ....Q.....Q
  0000000140020C20: 9F 04 F7 04 8C 05 01 51 04 8C 05 92 05 04 A3 01  ......Q.......
  0000000140020C30: 51 9F 00 00 00 00 00 00 00 00 00 00 00 00 00 00  Q...............
  0000000140020C40: 00 00 00 00 00 00 00 00 00 00 00 04 90 03 B2 03  ...............
  0000000140020C50: 01 58 04 B2 03 C7 03 04 A3 01 58 9F 04 C7 03 E3  .X.....X...
  0000000140020C60: 03 01 58 04 E3 03 E6 03 04 A3 01 58 9F 04 E6 03  ..X.....X...
  0000000140020C70: FA 03 01 58 04 FA 03 D8 04 04 A3 01 58 9F 04 D8  ..X.....X..
  0000000140020C80: 04 E4 04 01 58 04 E4 04 F0 04 04 A3 01 58 9F 04  ...X.....X..
  0000000140020C90: F0 04 F4 04 01 58 04 F4 04 F7 04 04 A3 01 58 9F  ...X.....X.
  0000000140020CA0: 04 F7 04 8C 05 01 58 04 8C 05 92 05 04 A3 01 58  .....X.......X
  0000000140020CB0: 9F 00 00 00 00 00 01 00 04 8C 04 A7 04 01 53 04  .............S.
  0000000140020CC0: A7 04 AB 04 01 52 04 AC 04 D8 04 01 53 00 00 00  ...R....S...
  0000000140020CD0: 04 A7 04 B1 04 01 53 00 00 00 00 00 00 00 00 00  ....S.........
  0000000140020CE0: 04 F0 01 9A 02 01 52 04 9A 02 F3 02 01 53 04 F3  .....R.....S.
  0000000140020CF0: 02 F5 02 04 A3 01 52 9F 04 F5 02 81 03 01 53 00  ....R......S.
  0000000140020D00: 01 00 01 00 00 00 04 A0 02 B0 02 02 30 9F 04 C0  ...........0..
  0000000140020D10: 02 C8 02 01 52 04 C8 02 CB 02 01 51 00 00 02 02  ...R....Q....
  0000000140020D20: 00 00 00 00 00 04 A7 02 C0 02 01 52 04 C0 02 CB  .........R..
  0000000140020D30: 02 01 50 04 CB 02 E2 02 01 52 04 F5 02 81 03 01  ..P....R.....
  0000000140020D40: 52 00 00 00 00 00 00 00 00 00 00 00 04 80 01 96  R...............
  0000000140020D50: 01 01 52 04 96 01 9F 01 01 55 04 9F 01 A0 01 04  ..R......U......
  0000000140020D60: A3 01 52 9F 04 A0 01 AA 01 01 52 04 AA 01 EF 01  .R......R...
  0000000140020D70: 01 55 00 00 00 00 00 00 00 00 00 00 00 00 00 00  .U..............
  0000000140020D80: 00 04 80 01 96 01 01 51 04 96 01 A0 01 04 A3 01  .......Q.......
  0000000140020D90: 51 9F 04 A0 01 A5 01 01 51 04 A5 01 C2 01 01 54  Q......Q....T
  0000000140020DA0: 04 C2 01 CC 01 02 70 08 04 CC 01 EA 01 04 A3 01  ....p......
  0000000140020DB0: 51 9F 04 EA 01 EF 01 01 54 00 00 00 00 00 00 00  Q.....T.......
  0000000140020DC0: 00 00 04 B2 01 CC 01 01 50 04 CC 01 EA 01 01 53  ......P....S
  0000000140020DD0: 04 EA 01 ED 01 01 50 04 ED 01 EF 01 01 53 00 00  ....P....S..
  0000000140020DE0: 00 04 21 6C 01 53 00 00 00 00 00 04 47 48 01 50  ..!l.S......GH.P
  0000000140020DF0: 04 48 64 01 54 00 F4 03 00 00 05 00 08 00 00 00  .Hd.T..........
  0000000140020E00: 00 00 00 00 00 00 04 B0 06 D3 07 01 52 04 D3 07  ..........R..
  0000000140020E10: F6 07 01 52 00 02 00 00 00 04 E9 06 8D 07 01 58  ..R..........X
  0000000140020E20: 04 8D 07 F6 07 0E 7B 3C 94 04 08 20 24 08 20 26  .....{<... $. &
  0000000140020E30: 7B 00 22 9F 00 00 00 04 CB 07 F5 07 01 50 00 00  {."........P..
  0000000140020E40: 00 00 00 00 00 00 00 04 F0 06 BE 07 01 50 04 BE  ...........P.
  0000000140020E50: 07 C5 07 10 7B 3C 94 04 08 20 24 08 20 26 7B 00  ...{<... $. &{.
  0000000140020E60: 22 23 90 01 04 C5 07 CB 07 01 50 04 CB 07 F6 07  "#......P...
  0000000140020E70: 10 7B 3C 94 04 08 20 24 08 20 26 7B 00 22 23 90  .{<... $. &{."#.
  0000000140020E80: 01 00 00 00 00 00 04 C9 06 D2 06 01 58 04 D6 06  ..........X..
  0000000140020E90: E9 06 01 58 00 01 00 04 D6 06 E9 06 03 78 18 9F  ..X.......x..
  0000000140020EA0: 00 01 00 04 F4 06 BE 07 01 50 00 06 00 00 00 04  .......P......
  0000000140020EB0: F4 06 8D 07 01 58 04 8D 07 BE 07 0E 7B 3C 94 04  ....X.....{<..
  0000000140020EC0: 08 20 24 08 20 26 7B 00 22 9F 00 00 00 01 00 00  . $. &{.".......
  0000000140020ED0: 00 04 83 07 96 07 01 51 04 B5 07 B9 07 03 71 28  .......Q....q(
  0000000140020EE0: 9F 04 B9 07 BE 07 01 51 00 07 00 04 F4 06 96 07  .....Q.......
  0000000140020EF0: 02 30 9F 00 00 00 00 00 00 00 00 00 04 A0 05 C0  .0.............
  0000000140020F00: 05 01 52 04 C0 05 C1 05 04 A3 01 52 9F 04 C1 05  ..R.....R...
  0000000140020F10: D4 05 01 52 04 D4 05 A9 06 04 A3 01 52 9F 00 00  ..R.....R...
  0000000140020F20: 00 04 D4 05 A9 06 01 52 00 00 00 04 A0 06 A9 06  .....R.......
  0000000140020F30: 01 51 00 00 00 00 00 04 B7 05 C0 05 01 58 04 C1  .Q.........X.
  0000000140020F40: 05 D1 05 01 58 00 01 00 04 C1 05 D1 05 03 78 18  ...X.......x.
  0000000140020F50: 9F 00 01 00 04 D4 05 A0 06 01 52 00 06 00 04 D4  .........R....
  0000000140020F60: 05 F6 05 01 58 00 00 00 04 E3 05 A0 06 01 51 00  ...X........Q.
  0000000140020F70: 07 00 04 D4 05 F6 05 02 30 9F 00 00 00 00 00 04  ......0.......
  0000000140020F80: F7 04 FF 04 01 52 04 83 05 96 05 01 52 00 01 00  ...R......R...
  0000000140020F90: 04 83 05 96 05 03 72 18 9F 00 00 00 00 00 04 E0  ......r........
  0000000140020FA0: 03 CF 04 01 52 04 CF 04 DB 04 01 52 00 02 00 04  ...R....R....
  0000000140020FB0: 90 04 A8 04 01 51 00 00 00 04 9E 04 DA 04 01 50  ....Q........P
  0000000140020FC0: 00 03 00 04 90 04 B1 04 02 30 9F 00 00 00 00 00  ........0......
  0000000140020FD0: 04 F8 03 80 04 01 51 04 81 04 90 04 01 51 00 01  .....Q......Q..
  0000000140020FE0: 00 04 81 04 90 04 03 71 18 9F 00 02 00 04 D0 03  .......q.......
  0000000140020FF0: D6 03 01 50 00 00 00 00 00 04 B7 03 BF 03 01 50  ..P.........P
  0000000140021000: 04 C2 03 D0 03 01 50 00 01 00 04 C2 03 D0 03 03  ....P.......
  0000000140021010: 70 18 9F 00 00 00 00 00 00 00 00 00 04 A0 02 C0  p..............
  0000000140021020: 02 01 52 04 C0 02 C1 02 04 A3 01 52 9F 04 C1 02  ..R.....R...
  0000000140021030: D9 02 01 52 04 D9 02 A0 03 04 A3 01 52 9F 00 00  ..R......R...
  0000000140021040: 00 04 D9 02 A0 03 01 52 00 00 00 00 00 04 B7 02  ......R.......
  0000000140021050: C0 02 01 58 04 C1 02 D1 02 01 58 00 01 00 04 C1  ..X....X....
  0000000140021060: 02 D1 02 03 78 18 9F 00 01 00 04 D9 02 9F 03 01  ...x..........
  0000000140021070: 52 00 06 00 00 00 04 D9 02 E3 02 01 58 04 E3 02  R.........X..
  0000000140021080: ED 02 0E 71 3C 94 04 08 20 24 08 20 26 71 00 22  ..q<... $. &q."
  0000000140021090: 9F 00 00 00 04 DE 02 9F 03 01 50 00 07 00 04 D9  .........P....
  00000001400210A0: 02 F6 02 02 30 9F 00 00 00 00 00 00 00 00 00 00  ...0...........
  00000001400210B0: 00 04 80 01 8E 01 01 52 04 8E 01 87 02 01 54 04  .......R......T.
  00000001400210C0: 87 02 89 02 04 A3 01 52 9F 04 89 02 9B 02 01 54  ......R.......T
  00000001400210D0: 04 9B 02 9D 02 04 A3 01 52 9F 00 02 00 04 BC 01  .......R......
  00000001400210E0: D1 01 01 50 00 00 00 04 C5 01 FE 01 01 53 00 03  ..P.......S..
  00000001400210F0: 00 04 BC 01 DC 01 02 30 9F 00 00 00 04 AC 01 BC  .....0......
  0000000140021100: 01 01 50 00 01 00 04 B4 01 BC 01 03 70 18 9F 00  ..P.......p...
  0000000140021110: 00 00 00 00 04 00 10 01 52 04 10 2C 04 A3 01 52  ........R..,..R
  0000000140021120: 9F 00 06 00 00 00 04 00 10 01 52 04 10 2C 04 A3  ..........R..,.
  0000000140021130: 01 52 9F 00 00 00 00 00 00 00 04 09 10 01 52 04  .R............R.
  0000000140021140: 10 18 04 A3 01 52 9F 04 19 2C 04 A3 01 52 9F 00  ....R...,..R..
  0000000140021150: 00 00 00 00 04 10 18 01 52 04 19 2C 01 52 00 01  ........R..,.R..
  0000000140021160: 00 04 19 2C 03 72 18 9F 00 00 00 00 00 04 30 37  ...,.r........07
  0000000140021170: 01 52 04 37 80 01 04 A3 01 52 9F 00 00 00 00 00  .R.7....R......
  0000000140021180: 04 37 4F 01 52 04 4F 80 01 12 A3 01 52 23 3C 94  .7O.R.O....R#<.
  0000000140021190: 04 08 20 24 08 20 26 A3 01 52 22 9F 00 00 00 04  .. $. &.R".....
  00000001400211A0: 45 7F 01 50 00 01 00 00 01 04 37 58 02 30 9F 04  E..P......7X.0..
  00000001400211B0: 58 74 3A 70 00 A3 01 52 23 3C 94 04 08 20 24 08  Xt:p..R#<... $.
  00000001400211C0: 20 26 A3 01 52 22 23 14 94 02 0A FF FF 1A 1C A3   &.R"#......
  00000001400211D0: 01 52 23 3C 94 04 08 20 24 08 20 26 1C A3 01 52  .R#<... $. &..R
  00000001400211E0: 1C 48 1C A8 77 08 28 A8 77 1B A8 00 9F 00 4A 00  .H.w.(w....J.
  00000001400211F0: 00 00 05 00 08 00 00 00 00 00 00 00 00 00 04 00  ................
  0000000140021200: 11 01 52 04 11 40 04 A3 01 52 9F 00 00 00 00 00  ..R..@..R......
  0000000140021210: 00 00 04 00 11 01 51 04 11 3F 01 54 04 3F 40 04  ......Q..?.T.?@.
  0000000140021220: A3 01 51 9F 00 03 00 00 00 04 06 11 01 52 04 11  .Q..........R..
  0000000140021230: 3E 01 53 00 00 00 04 2A 2E 01 50 00 21 00 00 00  >.S....*..P.!...
  0000000140021240: 05 00 08 00 00 00 00 00 03 00 04 10 1A 0A 03 70  ...............p
  0000000140021250: 71 00 40 01 00 00 00 9F 00 00 00 04 13 1A 01 52  q.@............R
  0000000140021260: 00 1E 00 00 00 05 00 08 00 00 00 00 00 00 00 00  ................
  0000000140021270: 00 00 00 04 00 0B 01 52 04 0B 1E 01 53 04 1E 1F  .......R....S...
  0000000140021280: 01 52 00                                         .R.

RAW DATA #14
  0000000140022000: 2C 00 00 00 05 00 08 00 00 00 00 00 04 14 5A 04  ,.............Z.
  0000000140022010: D0 01 88 02 04 A0 02 BE 02 00 04 82 05 F3 05 04  .............
  0000000140022020: D0 07 D8 07 00 04 B0 05 D4 05 04 D8 05 DD 05 00  ..........
  0000000140022030: 58 00 00 00 05 00 08 00 00 00 00 00 04 BE 04 CC  X.............
  0000000140022040: 04 04 E5 04 80 07 04 D8 07 C3 0A 00 04 B0 05 C0  ...........
  0000000140022050: 05 04 F5 05 8F 06 04 E0 06 E9 06 04 A3 08 BA 08  ...........
  0000000140022060: 04 F3 08 8F 09 04 A0 0A B6 0A 00 04 E9 06 EC 06  ............
  0000000140022070: 04 F0 06 F8 06 00 04 E0 09 E9 09 04 F0 09 92 0A  ...........
  0000000140022080: 00 04 F0 09 F5 09 04 F9 09 88 0A 00 13 00 00 00  .............
  0000000140022090: 05 00 08 00 00 00 00 00 04 F0 03 FA 03 04 F0 04  .............
  00000001400220A0: 80 05 00 C7 00 00 00 05 00 08 00 00 00 00 00 04  ...............
  00000001400220B0: 09 18 04 20 2B 00 04 95 01 9C 01 04 9E 01 BC 01  ... +..........
  00000001400220C0: 00 04 A0 02 A7 02 04 A9 02 C0 02 04 C8 02 D1 02  ...........
  00000001400220D0: 00 04 B0 02 C0 02 04 C8 02 D1 02 00 04 D1 02 D6  ..........
  00000001400220E0: 02 04 D9 02 9D 03 00 04 A0 03 A7 03 04 A9 03 BF  ............
  00000001400220F0: 03 04 C8 03 D0 03 00 04 B0 03 BF 03 04 C8 03 D0  ..........
  0000000140022100: 03 00 04 E0 03 E7 03 04 E9 03 80 04 04 88 04 90  .............
  0000000140022110: 04 00 04 F1 03 80 04 04 88 04 90 04 00 04 E0 04  ..............
  0000000140022120: E7 04 04 E9 04 FF 04 04 88 05 88 05 00 04 F0 04  ............
  0000000140022130: FF 04 04 88 05 88 05 00 04 A0 05 A7 05 04 A9 05  .............
  0000000140022140: C0 05 04 C8 05 D1 05 00 04 B0 05 C0 05 04 C8 05  ..........
  0000000140022150: D1 05 00 04 B0 06 B7 06 04 BA 06 D2 06 04 E0 06  ..........
  0000000140022160: E9 06 00 04 C2 06 D2 06 04 E0 06 E9 06 00        .........

  Summary

        1000 .CRT
        1000 .bss
        1000 .data
        2000 .debug_abbrev
        1000 .debug_aranges
        1000 .debug_frame
        A000 .debug_info
        2000 .debug_line
        2000 .debug_line_str
        2000 .debug_loclists
        1000 .debug_rnglists
        1000 .debug_str
        1000 .idata
        1000 .pdata
        1000 .rdata
        1000 .reloc
        1000 .rsrc
        2000 .text
        1000 .tls
        1000 .xdata
