---
triple:          'x86_64-apple-darwin'
binary-path:     '/Volumes/NO_NAME/work/00_TPrjs/C_CPP_Rehabilitation/SoW_tetris_CLI/src/test_debug'
relocations:
  - { offset: 0x26, size: 0x8, addend: 0x0, symName: __Z5kbhitv, symObjAddr: 0x0, symBinAddr: 0x100000780, symSize: 0x130 }
  - { offset: 0x52, size: 0x8, addend: 0x0, symName: __ZL11line_length, symObjAddr: 0x7D8, symBinAddr: 0x100002000, symSize: 0x0 }
  - { offset: 0x9D, size: 0x8, addend: 0x0, symName: __ZNSt3__16chronomiB8ne180100IxNS_5ratioILl1ELl1000000EEExS3_EENS_11common_typeIJNS0_8durationIT_T0_EENS5_IT1_T2_EEEE4typeERKS8_RKSB_, symObjAddr: 0x4C0, symBinAddr: 0x100000C40, symSize: 0x70 }
  - { offset: 0x96B, size: 0x8, addend: 0x0, symName: __ZNSt3__16chronomiB8ne180100INS0_12system_clockENS0_8durationIxNS_5ratioILl1ELl1000000EEEEES6_EENS_11common_typeIJT0_T1_EE4typeERKNS0_10time_pointIT_S8_EERKNSC_ISD_S9_EE, symObjAddr: 0x380, symBinAddr: 0x100000B00, symSize: 0x50 }
  - { offset: 0x9C0, size: 0x8, addend: 0x0, symName: __ZNSt3__16chrono13duration_castB8ne180100INS0_8durationIxNS_5ratioILl1ELl1000EEEEExNS3_ILl1ELl1000000EEELi0EEET_RKNS2_IT0_T1_EE, symObjAddr: 0x3D0, symBinAddr: 0x100000B50, symSize: 0x30 }
  - { offset: 0xA0D, size: 0x8, addend: 0x0, symName: __ZNSt3__16chrono13duration_castB8ne180100INS0_8durationIxNS_5ratioILl1ELl1EEEEExNS3_ILl1ELl1000000EEELi0EEET_RKNS2_IT0_T1_EE, symObjAddr: 0x420, symBinAddr: 0x100000BA0, symSize: 0x30 }
  - { offset: 0xA5A, size: 0x8, addend: 0x0, symName: __ZNSt3__16chrono13duration_castB8ne180100INS0_8durationIlNS_5ratioILl60ELl1EEEEExNS3_ILl1ELl1000000EEELi0EEET_RKNS2_IT0_T1_EE, symObjAddr: 0x470, symBinAddr: 0x100000BF0, symSize: 0x30 }
  - { offset: 0x1A63, size: 0x8, addend: 0x0, symName: __ZNKSt3__16chrono15__duration_castINS0_8durationIxNS_5ratioILl1ELl1000000EEEEENS2_IxNS3_ILl1ELl1000EEEEES6_Lb1ELb0EEclB8ne180100ERKS5_, symObjAddr: 0x5C0, symBinAddr: 0x100000D40, symSize: 0x40 }
  - { offset: 0x1ACD, size: 0x8, addend: 0x0, symName: __ZNKSt3__16chrono15__duration_castINS0_8durationIxNS_5ratioILl1ELl1000000EEEEENS2_IxNS3_ILl1ELl1EEEEES4_Lb1ELb0EEclB8ne180100ERKS5_, symObjAddr: 0x650, symBinAddr: 0x100000DD0, symSize: 0x40 }
  - { offset: 0x1B37, size: 0x8, addend: 0x0, symName: __ZNKSt3__16chrono15__duration_castINS0_8durationIxNS_5ratioILl1ELl1000000EEEEENS2_IlNS3_ILl60ELl1EEEEENS3_ILl1ELl60000000EEELb1ELb0EEclB8ne180100ERKS5_, symObjAddr: 0x6E0, symBinAddr: 0x100000E60, symSize: 0x40 }
  - { offset: 0x1B74, size: 0x8, addend: 0x0, symName: __Z5kbhitv, symObjAddr: 0x0, symBinAddr: 0x100000780, symSize: 0x130 }
  - { offset: 0x1BCE, size: 0x8, addend: 0x0, symName: _main, symObjAddr: 0x130, symBinAddr: 0x1000008B0, symSize: 0x250 }
  - { offset: 0x1C9B, size: 0x8, addend: 0x0, symName: __ZNKSt3__16chrono8durationIxNS_5ratioILl1ELl1000EEEE5countB8ne180100Ev, symObjAddr: 0x400, symBinAddr: 0x100000B80, symSize: 0x20 }
  - { offset: 0x1CBF, size: 0x8, addend: 0x0, symName: __ZNKSt3__16chrono8durationIxNS_5ratioILl1ELl1EEEE5countB8ne180100Ev, symObjAddr: 0x450, symBinAddr: 0x100000BD0, symSize: 0x20 }
  - { offset: 0x1CE3, size: 0x8, addend: 0x0, symName: __ZNKSt3__16chrono8durationIlNS_5ratioILl60ELl1EEEE5countB8ne180100Ev, symObjAddr: 0x4A0, symBinAddr: 0x100000C20, symSize: 0x20 }
  - { offset: 0x1D4A, size: 0x8, addend: 0x0, symName: __ZNKSt3__16chrono10time_pointINS0_12system_clockENS0_8durationIxNS_5ratioILl1ELl1000000EEEEEE16time_since_epochB8ne180100Ev, symObjAddr: 0x530, symBinAddr: 0x100000CB0, symSize: 0x20 }
  - { offset: 0x1D6E, size: 0x8, addend: 0x0, symName: __ZNKSt3__16chrono8durationIxNS_5ratioILl1ELl1000000EEEE5countB8ne180100Ev, symObjAddr: 0x550, symBinAddr: 0x100000CD0, symSize: 0x20 }
  - { offset: 0x1D9C, size: 0x8, addend: 0x0, symName: __ZNSt3__16chrono8durationIxNS_5ratioILl1ELl1000000EEEEC1B8ne180100IxLi0EEERKT_, symObjAddr: 0x570, symBinAddr: 0x100000CF0, symSize: 0x30 }
  - { offset: 0x1DE1, size: 0x8, addend: 0x0, symName: __ZNSt3__16chrono8durationIxNS_5ratioILl1ELl1000000EEEEC2B8ne180100IxLi0EEERKT_, symObjAddr: 0x5A0, symBinAddr: 0x100000D20, symSize: 0x20 }
  - { offset: 0x1E26, size: 0x8, addend: 0x0, symName: __ZNSt3__16chrono8durationIxNS_5ratioILl1ELl1000EEEEC1B8ne180100IxLi0EEERKT_, symObjAddr: 0x600, symBinAddr: 0x100000D80, symSize: 0x30 }
  - { offset: 0x1E6B, size: 0x8, addend: 0x0, symName: __ZNSt3__16chrono8durationIxNS_5ratioILl1ELl1000EEEEC2B8ne180100IxLi0EEERKT_, symObjAddr: 0x630, symBinAddr: 0x100000DB0, symSize: 0x20 }
  - { offset: 0x1EB0, size: 0x8, addend: 0x0, symName: __ZNSt3__16chrono8durationIxNS_5ratioILl1ELl1EEEEC1B8ne180100IxLi0EEERKT_, symObjAddr: 0x690, symBinAddr: 0x100000E10, symSize: 0x30 }
  - { offset: 0x1EF5, size: 0x8, addend: 0x0, symName: __ZNSt3__16chrono8durationIxNS_5ratioILl1ELl1EEEEC2B8ne180100IxLi0EEERKT_, symObjAddr: 0x6C0, symBinAddr: 0x100000E40, symSize: 0x20 }
  - { offset: 0x1F44, size: 0x8, addend: 0x0, symName: __ZNSt3__16chrono8durationIlNS_5ratioILl60ELl1EEEEC1B8ne180100IlLi0EEERKT_, symObjAddr: 0x720, symBinAddr: 0x100000EA0, symSize: 0x30 }
  - { offset: 0x1F89, size: 0x8, addend: 0x0, symName: __ZNSt3__16chrono8durationIlNS_5ratioILl60ELl1EEEEC2B8ne180100IlLi0EEERKT_, symObjAddr: 0x750, symBinAddr: 0x100000ED0, symSize: 0x1C }
...
